---
triple:          'arm64-apple-darwin'
binary-path:     '/Users/dunnaya/projects/uni/sem4/Algorithms/lab1/perfect_hash'
relocations:
  - { offsetInCU: 0xA6CC, offset: 0xA6CC, size: 0x8, addend: 0x0, symName: __ZNSt3__113__fill_n_trueB8ue170006INS_6vectorIbNS_9allocatorIbEEEEEEvNS_14__bit_iteratorIT_Lb0EXLi0EEEENS6_9size_typeE, symObjAddr: 0x9AE0, symBinAddr: 0x10000D64C, symSize: 0x160 }
  - { offsetInCU: 0xA791, offset: 0xA791, size: 0x8, addend: 0x0, symName: __ZNSt3__114__fill_n_falseB8ue170006INS_6vectorIbNS_9allocatorIbEEEEEEvNS_14__bit_iteratorIT_Lb0EXLi0EEEENS6_9size_typeE, symObjAddr: 0x9C74, symBinAddr: 0x10000D7E0, symSize: 0x15C }
  - { offsetInCU: 0xA856, offset: 0xA856, size: 0x8, addend: 0x0, symName: __ZNSt3__124__put_character_sequenceB8ue170006IcNS_11char_traitsIcEEEERNS_13basic_ostreamIT_T0_EES7_PKS4_m, symObjAddr: 0xA52C, symBinAddr: 0x10000E098, symSize: 0x1F4 }
  - { offsetInCU: 0xCBBB, offset: 0xCBBB, size: 0x8, addend: 0x0, symName: __ZNSt3__1lsB8ue170006INS_11char_traitsIcEEEERNS_13basic_ostreamIcT_EES6_PKc, symObjAddr: 0x4E4, symBinAddr: 0x100004050, symSize: 0x48 }
  - { offsetInCU: 0xCC01, offset: 0xCC01, size: 0x8, addend: 0x0, symName: __ZNSt3__1neB8ue170006IPdEEbRKNS_11__wrap_iterIT_EES6_, symObjAddr: 0x58C, symBinAddr: 0x1000040F8, symSize: 0x34 }
  - { offsetInCU: 0xCC44, offset: 0xCC44, size: 0x8, addend: 0x0, symName: __ZNSt3__14endlB8ue170006IcNS_11char_traitsIcEEEERNS_13basic_ostreamIT_T0_EES7_, symObjAddr: 0x624, symBinAddr: 0x100004190, symSize: 0x58 }
  - { offsetInCU: 0xD301, offset: 0xD301, size: 0x8, addend: 0x0, symName: __ZNSt3__1neB8ue170006IPKdEEbRKNS_11__wrap_iterIT_EES7_, symObjAddr: 0x156C, symBinAddr: 0x1000050D8, symSize: 0x34 }
  - { offsetInCU: 0xD344, offset: 0xD344, size: 0x8, addend: 0x0, symName: __ZNSt3__1neB8ue170006ERKNS_21__hash_const_iteratorIPNS_11__hash_nodeIdPvEEEES7_, symObjAddr: 0x15B8, symBinAddr: 0x100005124, symSize: 0x34 }
  - { offsetInCU: 0xD381, offset: 0xD381, size: 0x8, addend: 0x0, symName: __ZNSt3__122__make_exception_guardB8ue170006INS_6vectorINS1_IdNS_9allocatorIdEEEENS2_IS4_EEE16__destroy_vectorEEENS_28__exception_guard_exceptionsIT_EES9_, symObjAddr: 0x1CC4, symBinAddr: 0x100005830, symSize: 0x40 }
  - { offsetInCU: 0xD3B6, offset: 0xD3B6, size: 0x8, addend: 0x0, symName: __ZNSt3__119__allocate_at_leastB8ue170006INS_9allocatorINS_6vectorIdNS1_IdEEEEEEEENS_19__allocation_resultINS_16allocator_traitsIT_E7pointerEEERS8_m, symObjAddr: 0x20D4, symBinAddr: 0x100005C40, symSize: 0x40 }
  - { offsetInCU: 0xD3F9, offset: 0xD3F9, size: 0x8, addend: 0x0, symName: __ZNSt3__13minB8ue170006ImEERKT_S3_S3_, symObjAddr: 0x222C, symBinAddr: 0x100005D98, symSize: 0x2C }
  - { offsetInCU: 0xD63D, offset: 0xD63D, size: 0x8, addend: 0x0, symName: __ZNSt3__13minB8ue170006ImNS_6__lessIvvEEEERKT_S5_S5_T0_, symObjAddr: 0x22B8, symBinAddr: 0x100005E24, symSize: 0x54 }
  - { offsetInCU: 0xD6DC, offset: 0xD6DC, size: 0x8, addend: 0x0, symName: __ZNSt3__120__throw_length_errorB8ue170006EPKc, symObjAddr: 0x2398, symBinAddr: 0x100005F04, symSize: 0x64 }
  - { offsetInCU: 0xD706, offset: 0xD706, size: 0x8, addend: 0x0, symName: __ZNSt3__130__libcpp_is_constant_evaluatedB8ue170006Ev, symObjAddr: 0x253C, symBinAddr: 0x1000060A8, symSize: 0xC }
  - { offsetInCU: 0xD723, offset: 0xD723, size: 0x8, addend: 0x0, symName: __ZNSt3__117__libcpp_allocateB8ue170006Emm, symObjAddr: 0x2548, symBinAddr: 0x1000060B4, symSize: 0x28 }
  - { offsetInCU: 0xD760, offset: 0xD760, size: 0x8, addend: 0x0, symName: __ZNSt3__121__libcpp_operator_newB8ue170006IJmEEEPvDpT_, symObjAddr: 0x2570, symBinAddr: 0x1000060DC, symSize: 0x24 }
  - { offsetInCU: 0xD799, offset: 0xD799, size: 0x8, addend: 0x0, symName: __ZNSt3__112__to_addressB8ue170006INS_6vectorIdNS_9allocatorIdEEEEEEPT_S6_, symObjAddr: 0x268C, symBinAddr: 0x1000061F8, symSize: 0x14 }
  - { offsetInCU: 0xD7CE, offset: 0xD7CE, size: 0x8, addend: 0x0, symName: __ZNSt3__119__libcpp_deallocateB8ue170006EPvmm, symObjAddr: 0x2BC0, symBinAddr: 0x10000672C, symSize: 0x30 }
  - { offsetInCU: 0xD816, offset: 0xD816, size: 0x8, addend: 0x0, symName: __ZNSt3__127__do_deallocate_handle_sizeB8ue170006IJEEEvPvmDpT_, symObjAddr: 0x2BF0, symBinAddr: 0x10000675C, symSize: 0x28 }
  - { offsetInCU: 0xD854, offset: 0xD854, size: 0x8, addend: 0x0, symName: __ZNSt3__124__libcpp_operator_deleteB8ue170006IJPvEEEvDpT_, symObjAddr: 0x2C18, symBinAddr: 0x100006784, symSize: 0x24 }
  - { offsetInCU: 0xD889, offset: 0xD889, size: 0x8, addend: 0x0, symName: __ZNSt3__122__make_exception_guardB8ue170006INS_6vectorIN16PerfectHashTable6BucketENS_9allocatorIS3_EEE16__destroy_vectorEEENS_28__exception_guard_exceptionsIT_EES9_, symObjAddr: 0x2D54, symBinAddr: 0x1000068C0, symSize: 0x40 }
  - { offsetInCU: 0xD8BE, offset: 0xD8BE, size: 0x8, addend: 0x0, symName: __ZNSt3__119__allocate_at_leastB8ue170006INS_9allocatorIN16PerfectHashTable6BucketEEEEENS_19__allocation_resultINS_16allocator_traitsIT_E7pointerEEERS7_m, symObjAddr: 0x3164, symBinAddr: 0x100006CD0, symSize: 0x40 }
  - { offsetInCU: 0xD901, offset: 0xD901, size: 0x8, addend: 0x0, symName: __ZNSt3__112__to_addressB8ue170006IN16PerfectHashTable6BucketEEEPT_S4_, symObjAddr: 0x34DC, symBinAddr: 0x100007048, symSize: 0x14 }
  - { offsetInCU: 0xD936, offset: 0xD936, size: 0x8, addend: 0x0, symName: __ZNSt3__118__constexpr_strlenB8ue170006EPKc, symObjAddr: 0x3E98, symBinAddr: 0x100007A04, symSize: 0x24 }
  - { offsetInCU: 0xD986, offset: 0xD986, size: 0x8, addend: 0x0, symName: __ZNSt3__113__countl_zeroB8ue170006IyEEiT_, symObjAddr: 0x4280, symBinAddr: 0x100007DEC, symSize: 0x54 }
  - { offsetInCU: 0xD9BB, offset: 0xD9BB, size: 0x8, addend: 0x0, symName: __ZNSt3__112__libcpp_clzB8ue170006Em, symObjAddr: 0x4714, symBinAddr: 0x100008280, symSize: 0x1C }
  - { offsetInCU: 0xD9E7, offset: 0xD9E7, size: 0x8, addend: 0x0, symName: __ZNSt3__1eqB8ue170006IPKdEEbRKNS_11__wrap_iterIT_EES7_, symObjAddr: 0x50D4, symBinAddr: 0x100008C40, symSize: 0x48 }
  - { offsetInCU: 0xDA2A, offset: 0xDA2A, size: 0x8, addend: 0x0, symName: __ZNSt3__1eqB8ue170006ERKNS_21__hash_const_iteratorIPNS_11__hash_nodeIdPvEEEES7_, symObjAddr: 0x5134, symBinAddr: 0x100008CA0, symSize: 0x30 }
  - { offsetInCU: 0xDA67, offset: 0xDA67, size: 0x8, addend: 0x0, symName: __ZNSt3__116__constrain_hashB8ue170006Emm, symObjAddr: 0x53F8, symBinAddr: 0x100008F64, symSize: 0x98 }
  - { offsetInCU: 0xDAD4, offset: 0xDAD4, size: 0x8, addend: 0x0, symName: __ZNSt3__13maxB8ue170006ImEERKT_S3_S3_, symObjAddr: 0x5EAC, symBinAddr: 0x100009A18, symSize: 0x2C }
  - { offsetInCU: 0xDB17, offset: 0xDB17, size: 0x8, addend: 0x0, symName: __ZNSt3__116__is_hash_power2B8ue170006Em, symObjAddr: 0x5ED8, symBinAddr: 0x100009A44, symSize: 0x50 }
  - { offsetInCU: 0xDB61, offset: 0xDB61, size: 0x8, addend: 0x0, symName: __ZNSt3__116__next_hash_pow2B8ue170006Em, symObjAddr: 0x6918, symBinAddr: 0x10000A484, symSize: 0x6C }
  - { offsetInCU: 0xDBA9, offset: 0xDBA9, size: 0x8, addend: 0x0, symName: __ZNSt3__13maxB8ue170006ImNS_6__lessIvvEEEERKT_S5_S5_T0_, symObjAddr: 0x6B08, symBinAddr: 0x10000A674, symSize: 0x54 }
  - { offsetInCU: 0xDC03, offset: 0xDC03, size: 0x8, addend: 0x0, symName: __ZNSt3__112__to_addressB8ue170006IdEEPT_S2_, symObjAddr: 0x7134, symBinAddr: 0x10000ACA0, symSize: 0x14 }
  - { offsetInCU: 0xDC38, offset: 0xDC38, size: 0x8, addend: 0x0, symName: __ZNSt3__119__allocate_at_leastB8ue170006INS_9allocatorIdEEEENS_19__allocation_resultINS_16allocator_traitsIT_E7pointerEEERS5_m, symObjAddr: 0x7744, symBinAddr: 0x10000B2B0, symSize: 0x40 }
  - { offsetInCU: 0xDC7B, offset: 0xDC7B, size: 0x8, addend: 0x0, symName: __ZNSt3__142__uninitialized_allocator_move_if_noexceptB8ue170006INS_9allocatorIdEENS_16reverse_iteratorIPdEES5_dvEET1_RT_T0_S9_S6_, symObjAddr: 0x79F8, symBinAddr: 0x10000B564, symSize: 0xE8 }
  - { offsetInCU: 0xDCF8, offset: 0xDCF8, size: 0x8, addend: 0x0, symName: __ZNSt3__14swapB8ue170006IPdEEvRT_S3_, symObjAddr: 0x7B2C, symBinAddr: 0x10000B698, symSize: 0x3C }
  - { offsetInCU: 0xDD49, offset: 0xDD49, size: 0x8, addend: 0x0, symName: __ZNSt3__1neB8ue170006IPdS1_EEbRKNS_16reverse_iteratorIT_EERKNS2_IT0_EE, symObjAddr: 0x7C5C, symBinAddr: 0x10000B7C8, symSize: 0x48 }
  - { offsetInCU: 0xDDBA, offset: 0xDDBA, size: 0x8, addend: 0x0, symName: __ZNSt3__114__construct_atB8ue170006IdJdEPdEEPT_S3_DpOT0_, symObjAddr: 0x7CA4, symBinAddr: 0x10000B810, symSize: 0x2C }
  - { offsetInCU: 0xDE2A, offset: 0xDE2A, size: 0x8, addend: 0x0, symName: __ZNSt3__112__to_addressB8ue170006INS_16reverse_iteratorIPdEEvEEu7__decayIDTclsr19__to_address_helperIT_EE6__callclsr3stdE7declvalIRKS4_EEEEES6_, symObjAddr: 0x7CD0, symBinAddr: 0x10000B83C, symSize: 0x24 }
  - { offsetInCU: 0xDE60, offset: 0xDE60, size: 0x8, addend: 0x0, symName: __ZNSt3__14moveB8ue170006INS_16reverse_iteratorIPdEES3_EET0_T_S5_S4_, symObjAddr: 0x7D3C, symBinAddr: 0x10000B8A8, symSize: 0x78 }
  - { offsetInCU: 0xDEE3, offset: 0xDEE3, size: 0x8, addend: 0x0, symName: __ZNSt3__16__moveB8ue170006INS_17_ClassicAlgPolicyENS_16reverse_iteratorIPdEES4_S4_EENS_4pairIT0_T2_EES6_T1_S7_, symObjAddr: 0x7E24, symBinAddr: 0x10000B990, symSize: 0x64 }
  - { offsetInCU: 0xDF4F, offset: 0xDF4F, size: 0x8, addend: 0x0, symName: __ZNSt3__123__dispatch_copy_or_moveB8ue170006INS_17_ClassicAlgPolicyENS_11__move_loopIS1_EENS_14__move_trivialENS_16reverse_iteratorIPdEES7_S7_EENS_4pairIT2_T4_EES9_T3_SA_, symObjAddr: 0x7E88, symBinAddr: 0x10000B9F4, symSize: 0x64 }
  - { offsetInCU: 0xDFCD, offset: 0xDFCD, size: 0x8, addend: 0x0, symName: __ZNSt3__121__unwrap_and_dispatchB8ue170006INS_10__overloadINS_11__move_loopINS_17_ClassicAlgPolicyEEENS_14__move_trivialEEENS_16reverse_iteratorIPdEES9_S9_Li0EEENS_4pairIT0_T2_EESB_T1_SC_, symObjAddr: 0x7EEC, symBinAddr: 0x10000BA58, symSize: 0x12C }
  - { offsetInCU: 0xE05D, offset: 0xE05D, size: 0x8, addend: 0x0, symName: __ZNSt3__114__unwrap_rangeB8ue170006INS_16reverse_iteratorIPdEES3_EENS_4pairIT0_S5_EET_S7_, symObjAddr: 0x8018, symBinAddr: 0x10000BB84, symSize: 0x84 }
  - { offsetInCU: 0xE1B1, offset: 0xE1B1, size: 0x8, addend: 0x0, symName: __ZNSt3__113__unwrap_iterB8ue170006INS_16reverse_iteratorIPdEENS_18__unwrap_iter_implIS3_Lb0EEELi0EEEDTclsrT0_8__unwrapclsr3stdE7declvalIT_EEEES7_, symObjAddr: 0x813C, symBinAddr: 0x10000BCA8, symSize: 0x44 }
  - { offsetInCU: 0xE1F5, offset: 0xE1F5, size: 0x8, addend: 0x0, symName: __ZNSt3__19make_pairB8ue170006INS_16reverse_iteratorIPdEES3_EENS_4pairINS_18__unwrap_ref_decayIT_E4typeENS5_IT0_E4typeEEEOS6_OS9_, symObjAddr: 0x8180, symBinAddr: 0x10000BCEC, symSize: 0x38 }
  - { offsetInCU: 0xE244, offset: 0xE244, size: 0x8, addend: 0x0, symName: __ZNSt3__114__rewrap_rangeB8ue170006INS_16reverse_iteratorIPdEES3_EET_S4_T0_, symObjAddr: 0x81B8, symBinAddr: 0x10000BD24, symSize: 0x5C }
  - { offsetInCU: 0xE290, offset: 0xE290, size: 0x8, addend: 0x0, symName: __ZNSt3__113__rewrap_iterB8ue170006INS_16reverse_iteratorIPdEES3_NS_18__unwrap_iter_implIS3_Lb0EEEEET_S6_T0_, symObjAddr: 0x8214, symBinAddr: 0x10000BD80, symSize: 0x88 }
  - { offsetInCU: 0xE397, offset: 0xE397, size: 0x8, addend: 0x0, symName: __ZNSt3__122__make_exception_guardB8ue170006INS_6vectorIdNS_9allocatorIdEEE16__destroy_vectorEEENS_28__exception_guard_exceptionsIT_EES7_, symObjAddr: 0x87A8, symBinAddr: 0x10000C314, symSize: 0x40 }
  - { offsetInCU: 0xE3CC, offset: 0xE3CC, size: 0x8, addend: 0x0, symName: __ZNSt3__119__allocate_at_leastB8ue170006INS_9allocatorImEEEENS_19__allocation_resultINS_16allocator_traitsIT_E7pointerEEERS5_m, symObjAddr: 0x9754, symBinAddr: 0x10000D2C0, symSize: 0x40 }
  - { offsetInCU: 0xE434, offset: 0xE434, size: 0x8, addend: 0x0, symName: __ZNSt3__114__construct_atB8ue170006ImJEPmEEPT_S3_DpOT0_, symObjAddr: 0x9808, symBinAddr: 0x10000D374, symSize: 0x20 }
  - { offsetInCU: 0xE490, offset: 0xE490, size: 0x8, addend: 0x0, symName: __ZNSt3__112__to_addressB8ue170006ImEEPT_S2_, symObjAddr: 0x9828, symBinAddr: 0x10000D394, symSize: 0x14 }
  - { offsetInCU: 0xE4C5, offset: 0xE4C5, size: 0x8, addend: 0x0, symName: __ZNSt3__16fill_nB8ue170006INS_6vectorIbNS_9allocatorIbEEEEEEvNS_14__bit_iteratorIT_Lb0EXLi0EEEENS6_9size_typeEb, symObjAddr: 0x99E8, symBinAddr: 0x10000D554, symSize: 0x94 }
  - { offsetInCU: 0xE517, offset: 0xE517, size: 0x8, addend: 0x0, symName: __ZNSt3__16fill_nB8ue170006IPmmmEET_S2_T0_RKT1_, symObjAddr: 0x9DD0, symBinAddr: 0x10000D93C, symSize: 0x44 }
  - { offsetInCU: 0xE57A, offset: 0xE57A, size: 0x8, addend: 0x0, symName: __ZNSt3__18__fill_nB8ue170006IPmmmEET_S2_T0_RKT1_, symObjAddr: 0x9E14, symBinAddr: 0x10000D980, symSize: 0x64 }
  - { offsetInCU: 0xE5DD, offset: 0xE5DD, size: 0x8, addend: 0x0, symName: __ZNSt3__121__convert_to_integralB8ue170006Em, symObjAddr: 0x9E78, symBinAddr: 0x10000D9E4, symSize: 0x14 }
  - { offsetInCU: 0xE609, offset: 0xE609, size: 0x8, addend: 0x0, symName: __ZNSt3__16fill_nB8ue170006IPmmiEET_S2_T0_RKT1_, symObjAddr: 0x9EBC, symBinAddr: 0x10000DA28, symSize: 0x44 }
  - { offsetInCU: 0xE66C, offset: 0xE66C, size: 0x8, addend: 0x0, symName: __ZNSt3__18__fill_nB8ue170006IPmmiEET_S2_T0_RKT1_, symObjAddr: 0x9F00, symBinAddr: 0x10000DA6C, symSize: 0x64 }
  - { offsetInCU: 0xE6CF, offset: 0xE6CF, size: 0x8, addend: 0x0, symName: __ZNSt3__116__pad_and_outputB8ue170006IcNS_11char_traitsIcEEEENS_19ostreambuf_iteratorIT_T0_EES6_PKS4_S8_S8_RNS_8ios_baseES4_, symObjAddr: 0xA73C, symBinAddr: 0x10000E2A8, symSize: 0x248 }
  - { offsetInCU: 0xE79E, offset: 0xE79E, size: 0x8, addend: 0x0, symName: __ZNSt3__112__to_addressB8ue170006IKcEEPT_S3_, symObjAddr: 0xABB4, symBinAddr: 0x10000E720, symSize: 0x14 }
  - { offsetInCU: 0xE806, offset: 0xE806, size: 0x8, addend: 0x0, symName: __ZNSt3__19use_facetB8ue170006INS_5ctypeIcEEEERKT_RKNS_6localeE, symObjAddr: 0xAE8C, symBinAddr: 0x10000E9F8, symSize: 0x2C }
  - { offsetInCU: 0xECD3, offset: 0xECD3, size: 0x8, addend: 0x0, symName: __ZNSt3__1eqB8ue170006IPdEEbRKNS_11__wrap_iterIT_EES6_, symObjAddr: 0xAFA8, symBinAddr: 0x10000EB14, symSize: 0x48 }
  - { offsetInCU: 0xF06F, offset: 0xF06F, size: 0x8, addend: 0x0, symName: __ZSt28__throw_bad_array_new_lengthB8ue170006v, symObjAddr: 0x2508, symBinAddr: 0x100006074, symSize: 0x34 }
  - { offsetInCU: 0xF8F8, offset: 0xF8F8, size: 0x8, addend: 0x0, symName: __ZNSt3__124uniform_int_distributionIyEclINS_23mersenne_twister_engineIyLm64ELm312ELm156ELm31ELy13043109905998158313ELm29ELy6148914691236517205ELm17ELy8202884508482404352ELm37ELy18444473444759240704ELm43ELy6364136223846793005EEEEEyRT_RKNS1_10param_typeE, symObjAddr: 0x407C, symBinAddr: 0x100007BE8, symSize: 0x174 }
  - { offsetInCU: 0xFE00, offset: 0xFE00, size: 0x8, addend: 0x0, symName: __ZNSt3__16vectorIdNS_9allocatorIdEEE26__swap_out_circular_bufferERNS_14__split_bufferIdRS2_EE, symObjAddr: 0x7330, symBinAddr: 0x10000AE9C, symSize: 0x110 }
  - { offsetInCU: 0x12396, offset: 0x12396, size: 0x8, addend: 0x0, symName: _main, symObjAddr: 0x0, symBinAddr: 0x100003B6C, symSize: 0x44C }
  - { offsetInCU: 0x12486, offset: 0x12486, size: 0x8, addend: 0x0, symName: __ZNSt3__16vectorIdNS_9allocatorIdEEEC1B8ue170006Ev, symObjAddr: 0x44C, symBinAddr: 0x100003FB8, symSize: 0x2C }
  - { offsetInCU: 0x124B0, offset: 0x124B0, size: 0x8, addend: 0x0, symName: __ZNSt3__16vectorIdNS_9allocatorIdEEE9push_backB8ue170006EOd, symObjAddr: 0x478, symBinAddr: 0x100003FE4, symSize: 0x6C }
  - { offsetInCU: 0x124E7, offset: 0x124E7, size: 0x8, addend: 0x0, symName: __ZNSt3__16vectorIdNS_9allocatorIdEEE5beginB8ue170006Ev, symObjAddr: 0x52C, symBinAddr: 0x100004098, symSize: 0x30 }
  - { offsetInCU: 0x1250F, offset: 0x1250F, size: 0x8, addend: 0x0, symName: __ZNSt3__16vectorIdNS_9allocatorIdEEE3endB8ue170006Ev, symObjAddr: 0x55C, symBinAddr: 0x1000040C8, symSize: 0x30 }
  - { offsetInCU: 0x12537, offset: 0x12537, size: 0x8, addend: 0x0, symName: __ZNKSt3__111__wrap_iterIPdEdeB8ue170006Ev, symObjAddr: 0x5C0, symBinAddr: 0x10000412C, symSize: 0x18 }
  - { offsetInCU: 0x1255D, offset: 0x1255D, size: 0x8, addend: 0x0, symName: __ZNSt3__111__wrap_iterIPdEppB8ue170006Ev, symObjAddr: 0x5D8, symBinAddr: 0x100004144, symSize: 0x20 }
  - { offsetInCU: 0x12583, offset: 0x12583, size: 0x8, addend: 0x0, symName: __ZNSt3__113basic_ostreamIcNS_11char_traitsIcEEElsB8ue170006EPFRS3_S4_E, symObjAddr: 0x5F8, symBinAddr: 0x100004164, symSize: 0x2C }
  - { offsetInCU: 0x125B7, offset: 0x125B7, size: 0x8, addend: 0x0, symName: __ZN16PerfectHashTableC1ERKNSt3__16vectorIdNS0_9allocatorIdEEEE, symObjAddr: 0x67C, symBinAddr: 0x1000041E8, symSize: 0x34 }
  - { offsetInCU: 0x125EF, offset: 0x125EF, size: 0x8, addend: 0x0, symName: __ZNK16PerfectHashTable10printStatsEv, symObjAddr: 0x6B0, symBinAddr: 0x10000421C, symSize: 0x168 }
  - { offsetInCU: 0x1265B, offset: 0x1265B, size: 0x8, addend: 0x0, symName: __ZNK16PerfectHashTable6lookupEd, symObjAddr: 0x818, symBinAddr: 0x100004384, symSize: 0x12C }
  - { offsetInCU: 0x126B9, offset: 0x126B9, size: 0x8, addend: 0x0, symName: __ZNSt3__16vectorIdNS_9allocatorIdEEED1B8ue170006Ev, symObjAddr: 0x944, symBinAddr: 0x1000044B0, symSize: 0x2C }
  - { offsetInCU: 0x126E3, offset: 0x126E3, size: 0x8, addend: 0x0, symName: __ZN16PerfectHashTableD1Ev, symObjAddr: 0x97C, symBinAddr: 0x1000044E8, symSize: 0x2C }
  - { offsetInCU: 0x1270D, offset: 0x1270D, size: 0x8, addend: 0x0, symName: __ZN16PerfectHashTableC2ERKNSt3__16vectorIdNS0_9allocatorIdEEEE, symObjAddr: 0x9A8, symBinAddr: 0x100004514, symSize: 0xA74 }
  - { offsetInCU: 0x12958, offset: 0x12958, size: 0x8, addend: 0x0, symName: __ZNKSt3__16vectorIdNS_9allocatorIdEEE4sizeB8ue170006Ev, symObjAddr: 0x141C, symBinAddr: 0x100004F88, symSize: 0x28 }
  - { offsetInCU: 0x1297E, offset: 0x1297E, size: 0x8, addend: 0x0, symName: __ZNSt3__16vectorINS0_IdNS_9allocatorIdEEEENS1_IS3_EEEC1Em, symObjAddr: 0x1444, symBinAddr: 0x100004FB0, symSize: 0x34 }
  - { offsetInCU: 0x129B9, offset: 0x129B9, size: 0x8, addend: 0x0, symName: __ZNSt3__16vectorIN16PerfectHashTable6BucketENS_9allocatorIS2_EEEC1Em, symObjAddr: 0x1478, symBinAddr: 0x100004FE4, symSize: 0x34 }
  - { offsetInCU: 0x129F4, offset: 0x129F4, size: 0x8, addend: 0x0, symName: __ZN16PerfectHashTable12HashFunctionC1Ei, symObjAddr: 0x14AC, symBinAddr: 0x100005018, symSize: 0x34 }
  - { offsetInCU: 0x12A95, offset: 0x12A95, size: 0x8, addend: 0x0, symName: __ZNSt3__113unordered_setIdNS_4hashIdEENS_8equal_toIdEENS_9allocatorIdEEEC1B8ue170006Ev, symObjAddr: 0x14E0, symBinAddr: 0x10000504C, symSize: 0x2C }
  - { offsetInCU: 0x12ABF, offset: 0x12ABF, size: 0x8, addend: 0x0, symName: __ZNKSt3__16vectorIdNS_9allocatorIdEEE5beginB8ue170006Ev, symObjAddr: 0x150C, symBinAddr: 0x100005078, symSize: 0x30 }
  - { offsetInCU: 0x12AE7, offset: 0x12AE7, size: 0x8, addend: 0x0, symName: __ZNKSt3__16vectorIdNS_9allocatorIdEEE3endB8ue170006Ev, symObjAddr: 0x153C, symBinAddr: 0x1000050A8, symSize: 0x30 }
  - { offsetInCU: 0x12B0F, offset: 0x12B0F, size: 0x8, addend: 0x0, symName: __ZNKSt3__111__wrap_iterIPKdEdeB8ue170006Ev, symObjAddr: 0x15A0, symBinAddr: 0x10000510C, symSize: 0x18 }
  - { offsetInCU: 0x12B35, offset: 0x12B35, size: 0x8, addend: 0x0, symName: __ZNSt3__113unordered_setIdNS_4hashIdEENS_8equal_toIdEENS_9allocatorIdEEE4findB8ue170006ERKd, symObjAddr: 0x15EC, symBinAddr: 0x100005158, symSize: 0x40 }
  - { offsetInCU: 0x12B6A, offset: 0x12B6A, size: 0x8, addend: 0x0, symName: __ZNSt3__113unordered_setIdNS_4hashIdEENS_8equal_toIdEENS_9allocatorIdEEE3endB8ue170006Ev, symObjAddr: 0x162C, symBinAddr: 0x100005198, symSize: 0x38 }
  - { offsetInCU: 0x12B90, offset: 0x12B90, size: 0x8, addend: 0x0, symName: __ZNSt3__113unordered_setIdNS_4hashIdEENS_8equal_toIdEENS_9allocatorIdEEE6insertB8ue170006ERKd, symObjAddr: 0x1664, symBinAddr: 0x1000051D0, symSize: 0x4C }
  - { offsetInCU: 0x12BC5, offset: 0x12BC5, size: 0x8, addend: 0x0, symName: __ZNSt3__111__wrap_iterIPKdEppB8ue170006Ev, symObjAddr: 0x16B0, symBinAddr: 0x10000521C, symSize: 0x20 }
  - { offsetInCU: 0x12BEB, offset: 0x12BEB, size: 0x8, addend: 0x0, symName: __ZNSt3__113unordered_setIdNS_4hashIdEENS_8equal_toIdEENS_9allocatorIdEEE5beginB8ue170006Ev, symObjAddr: 0x16D0, symBinAddr: 0x10000523C, symSize: 0x38 }
  - { offsetInCU: 0x12C11, offset: 0x12C11, size: 0x8, addend: 0x0, symName: __ZNKSt3__121__hash_const_iteratorIPNS_11__hash_nodeIdPvEEEdeB8ue170006Ev, symObjAddr: 0x1708, symBinAddr: 0x100005274, symSize: 0x2C }
  - { offsetInCU: 0x12C37, offset: 0x12C37, size: 0x8, addend: 0x0, symName: __ZNK16PerfectHashTable12HashFunctionclEd, symObjAddr: 0x1734, symBinAddr: 0x1000052A0, symSize: 0x84 }
  - { offsetInCU: 0x12C79, offset: 0x12C79, size: 0x8, addend: 0x0, symName: __ZNSt3__16vectorINS0_IdNS_9allocatorIdEEEENS1_IS3_EEEixB8ue170006Em, symObjAddr: 0x17B8, symBinAddr: 0x100005324, symSize: 0x2C }
  - { offsetInCU: 0x12CB0, offset: 0x12CB0, size: 0x8, addend: 0x0, symName: __ZNSt3__16vectorIdNS_9allocatorIdEEE9push_backB8ue170006ERKd, symObjAddr: 0x17E4, symBinAddr: 0x100005350, symSize: 0x6C }
  - { offsetInCU: 0x12CE7, offset: 0x12CE7, size: 0x8, addend: 0x0, symName: __ZNSt3__121__hash_const_iteratorIPNS_11__hash_nodeIdPvEEEppB8ue170006Ev, symObjAddr: 0x1850, symBinAddr: 0x1000053BC, symSize: 0x20 }
  - { offsetInCU: 0x12D0D, offset: 0x12D0D, size: 0x8, addend: 0x0, symName: __ZNKSt3__16vectorIdNS_9allocatorIdEEE5emptyB8ue170006Ev, symObjAddr: 0x1870, symBinAddr: 0x1000053DC, symSize: 0x28 }
  - { offsetInCU: 0x12D33, offset: 0x12D33, size: 0x8, addend: 0x0, symName: __ZNSt3__16vectorIdNS_9allocatorIdEEEixB8ue170006Em, symObjAddr: 0x1898, symBinAddr: 0x100005404, symSize: 0x24 }
  - { offsetInCU: 0x12D6A, offset: 0x12D6A, size: 0x8, addend: 0x0, symName: __ZNSt3__16vectorIdNS_9allocatorIdEEEC1EmRKd, symObjAddr: 0x18BC, symBinAddr: 0x100005428, symSize: 0x3C }
  - { offsetInCU: 0x12DB4, offset: 0x12DB4, size: 0x8, addend: 0x0, symName: __ZNSt3__16vectorIN16PerfectHashTable6BucketENS_9allocatorIS2_EEEixB8ue170006Em, symObjAddr: 0x18F8, symBinAddr: 0x100005464, symSize: 0x2C }
  - { offsetInCU: 0x12DEB, offset: 0x12DEB, size: 0x8, addend: 0x0, symName: __ZNSt3__16vectorIdNS_9allocatorIdEEEaSB8ue170006EOS3_, symObjAddr: 0x1924, symBinAddr: 0x100005490, symSize: 0x34 }
  - { offsetInCU: 0x12E22, offset: 0x12E22, size: 0x8, addend: 0x0, symName: __ZNSt3__16vectorIdNS_9allocatorIdEEE6resizeEm, symObjAddr: 0x1958, symBinAddr: 0x1000054C4, symSize: 0x94 }
  - { offsetInCU: 0x12E68, offset: 0x12E68, size: 0x8, addend: 0x0, symName: __ZNSt3__16vectorIbNS_9allocatorIbEEEC1EmRKb, symObjAddr: 0x19EC, symBinAddr: 0x100005558, symSize: 0x3C }
  - { offsetInCU: 0x12EB2, offset: 0x12EB2, size: 0x8, addend: 0x0, symName: __ZNSt3__16vectorIbNS_9allocatorIbEEEixB8ue170006Em, symObjAddr: 0x1A28, symBinAddr: 0x100005594, symSize: 0x3C }
  - { offsetInCU: 0x12EE7, offset: 0x12EE7, size: 0x8, addend: 0x0, symName: __ZNKSt3__115__bit_referenceINS_6vectorIbNS_9allocatorIbEEEELb1EEcvbB8ue170006Ev, symObjAddr: 0x1A64, symBinAddr: 0x1000055D0, symSize: 0x2C }
  - { offsetInCU: 0x12F0D, offset: 0x12F0D, size: 0x8, addend: 0x0, symName: __ZNSt3__115__bit_referenceINS_6vectorIbNS_9allocatorIbEEEELb1EEaSB8ue170006Eb, symObjAddr: 0x1A90, symBinAddr: 0x1000055FC, symSize: 0x6C }
  - { offsetInCU: 0x12F41, offset: 0x12F41, size: 0x8, addend: 0x0, symName: __ZNSt3__16vectorIbNS_9allocatorIbEEED1B8ue170006Ev, symObjAddr: 0x1AFC, symBinAddr: 0x100005668, symSize: 0x2C }
  - { offsetInCU: 0x12F6B, offset: 0x12F6B, size: 0x8, addend: 0x0, symName: __ZNSt3__113unordered_setIdNS_4hashIdEENS_8equal_toIdEENS_9allocatorIdEEED1B8ue170006Ev, symObjAddr: 0x1B28, symBinAddr: 0x100005694, symSize: 0x2C }
  - { offsetInCU: 0x12F95, offset: 0x12F95, size: 0x8, addend: 0x0, symName: __ZNSt3__16vectorIN16PerfectHashTable6BucketENS_9allocatorIS2_EEED1B8ue170006Ev, symObjAddr: 0x1B54, symBinAddr: 0x1000056C0, symSize: 0x2C }
  - { offsetInCU: 0x12FBF, offset: 0x12FBF, size: 0x8, addend: 0x0, symName: __ZNSt3__16vectorINS0_IdNS_9allocatorIdEEEENS1_IS3_EEED1B8ue170006Ev, symObjAddr: 0x1B80, symBinAddr: 0x1000056EC, symSize: 0x2C }
  - { offsetInCU: 0x12FE9, offset: 0x12FE9, size: 0x8, addend: 0x0, symName: __ZNSt3__16vectorINS0_IdNS_9allocatorIdEEEENS1_IS3_EEEC2Em, symObjAddr: 0x1BAC, symBinAddr: 0x100005718, symSize: 0xDC }
  - { offsetInCU: 0x13043, offset: 0x13043, size: 0x8, addend: 0x0, symName: __ZNSt3__117__compressed_pairIPNS_6vectorIdNS_9allocatorIdEEEENS2_IS4_EEEC1B8ue170006IDnNS_18__default_init_tagEEEOT_OT0_, symObjAddr: 0x1C88, symBinAddr: 0x1000057F4, symSize: 0x3C }
  - { offsetInCU: 0x1309B, offset: 0x1309B, size: 0x8, addend: 0x0, symName: __ZNSt3__16vectorINS0_IdNS_9allocatorIdEEEENS1_IS3_EEE16__destroy_vectorC1B8ue170006ERS5_, symObjAddr: 0x1D04, symBinAddr: 0x100005870, symSize: 0x34 }
  - { offsetInCU: 0x130D4, offset: 0x130D4, size: 0x8, addend: 0x0, symName: __ZNSt3__16vectorINS0_IdNS_9allocatorIdEEEENS1_IS3_EEE11__vallocateB8ue170006Em, symObjAddr: 0x1D38, symBinAddr: 0x1000058A4, symSize: 0xB4 }
  - { offsetInCU: 0x13118, offset: 0x13118, size: 0x8, addend: 0x0, symName: __ZNSt3__16vectorINS0_IdNS_9allocatorIdEEEENS1_IS3_EEE18__construct_at_endEm, symObjAddr: 0x1DEC, symBinAddr: 0x100005958, symSize: 0xD0 }
  - { offsetInCU: 0x1318A, offset: 0x1318A, size: 0x8, addend: 0x0, symName: __ZNSt3__128__exception_guard_exceptionsINS_6vectorINS1_IdNS_9allocatorIdEEEENS2_IS4_EEE16__destroy_vectorEE10__completeB8ue170006Ev, symObjAddr: 0x1EBC, symBinAddr: 0x100005A28, symSize: 0x1C }
  - { offsetInCU: 0x131B0, offset: 0x131B0, size: 0x8, addend: 0x0, symName: __ZNSt3__128__exception_guard_exceptionsINS_6vectorINS1_IdNS_9allocatorIdEEEENS2_IS4_EEE16__destroy_vectorEED1B8ue170006Ev, symObjAddr: 0x1ED8, symBinAddr: 0x100005A44, symSize: 0x2C }
  - { offsetInCU: 0x131DA, offset: 0x131DA, size: 0x8, addend: 0x0, symName: __ZNSt3__117__compressed_pairIPNS_6vectorIdNS_9allocatorIdEEEENS2_IS4_EEEC2B8ue170006IDnNS_18__default_init_tagEEEOT_OT0_, symObjAddr: 0x1F04, symBinAddr: 0x100005A70, symSize: 0x40 }
  - { offsetInCU: 0x13232, offset: 0x13232, size: 0x8, addend: 0x0, symName: __ZNSt3__122__compressed_pair_elemIPNS_6vectorIdNS_9allocatorIdEEEELi0ELb0EEC2B8ue170006IDnvEEOT_, symObjAddr: 0x1F44, symBinAddr: 0x100005AB0, symSize: 0x1C }
  - { offsetInCU: 0x13274, offset: 0x13274, size: 0x8, addend: 0x0, symName: __ZNSt3__122__compressed_pair_elemINS_9allocatorINS_6vectorIdNS1_IdEEEEEELi1ELb1EEC2B8ue170006ENS_18__default_init_tagE, symObjAddr: 0x1F60, symBinAddr: 0x100005ACC, symSize: 0x2C }
  - { offsetInCU: 0x132A9, offset: 0x132A9, size: 0x8, addend: 0x0, symName: __ZNSt3__19allocatorINS_6vectorIdNS0_IdEEEEEC2B8ue170006Ev, symObjAddr: 0x1F8C, symBinAddr: 0x100005AF8, symSize: 0x2C }
  - { offsetInCU: 0x132D3, offset: 0x132D3, size: 0x8, addend: 0x0, symName: __ZNSt3__116__non_trivial_ifILb1ENS_9allocatorINS_6vectorIdNS1_IdEEEEEEEC2B8ue170006Ev, symObjAddr: 0x1FB8, symBinAddr: 0x100005B24, symSize: 0x14 }
  - { offsetInCU: 0x132FD, offset: 0x132FD, size: 0x8, addend: 0x0, symName: __ZNSt3__128__exception_guard_exceptionsINS_6vectorINS1_IdNS_9allocatorIdEEEENS2_IS4_EEE16__destroy_vectorEEC1B8ue170006ES7_, symObjAddr: 0x1FCC, symBinAddr: 0x100005B38, symSize: 0x34 }
  - { offsetInCU: 0x13335, offset: 0x13335, size: 0x8, addend: 0x0, symName: __ZNSt3__128__exception_guard_exceptionsINS_6vectorINS1_IdNS_9allocatorIdEEEENS2_IS4_EEE16__destroy_vectorEEC2B8ue170006ES7_, symObjAddr: 0x2000, symBinAddr: 0x100005B6C, symSize: 0x24 }
  - { offsetInCU: 0x1336D, offset: 0x1336D, size: 0x8, addend: 0x0, symName: __ZNSt3__16vectorINS0_IdNS_9allocatorIdEEEENS1_IS3_EEE16__destroy_vectorC2B8ue170006ERS5_, symObjAddr: 0x2024, symBinAddr: 0x100005B90, symSize: 0x20 }
  - { offsetInCU: 0x133A6, offset: 0x133A6, size: 0x8, addend: 0x0, symName: __ZNKSt3__16vectorINS0_IdNS_9allocatorIdEEEENS1_IS3_EEE8max_sizeEv, symObjAddr: 0x2044, symBinAddr: 0x100005BB0, symSize: 0x74 }
  - { offsetInCU: 0x133CE, offset: 0x133CE, size: 0x8, addend: 0x0, symName: __ZNKSt3__16vectorINS0_IdNS_9allocatorIdEEEENS1_IS3_EEE20__throw_length_errorB8ue170006Ev, symObjAddr: 0x20B8, symBinAddr: 0x100005C24, symSize: 0x1C }
  - { offsetInCU: 0x133F4, offset: 0x133F4, size: 0x8, addend: 0x0, symName: __ZNSt3__16vectorINS0_IdNS_9allocatorIdEEEENS1_IS3_EEE7__allocB8ue170006Ev, symObjAddr: 0x2114, symBinAddr: 0x100005C80, symSize: 0x28 }
  - { offsetInCU: 0x1341A, offset: 0x1341A, size: 0x8, addend: 0x0, symName: __ZNSt3__16vectorINS0_IdNS_9allocatorIdEEEENS1_IS3_EEE9__end_capB8ue170006Ev, symObjAddr: 0x213C, symBinAddr: 0x100005CA8, symSize: 0x28 }
  - { offsetInCU: 0x13440, offset: 0x13440, size: 0x8, addend: 0x0, symName: __ZNKSt3__16vectorINS0_IdNS_9allocatorIdEEEENS1_IS3_EEE14__annotate_newB8ue170006Em, symObjAddr: 0x2164, symBinAddr: 0x100005CD0, symSize: 0xC8 }
  - { offsetInCU: 0x1347F, offset: 0x1347F, size: 0x8, addend: 0x0, symName: __ZNSt3__116allocator_traitsINS_9allocatorINS_6vectorIdNS1_IdEEEEEEE8max_sizeB8ue170006IS5_vEEmRKS5_, symObjAddr: 0x2258, symBinAddr: 0x100005DC4, symSize: 0x24 }
  - { offsetInCU: 0x134AD, offset: 0x134AD, size: 0x8, addend: 0x0, symName: __ZNKSt3__16vectorINS0_IdNS_9allocatorIdEEEENS1_IS3_EEE7__allocB8ue170006Ev, symObjAddr: 0x227C, symBinAddr: 0x100005DE8, symSize: 0x28 }
  - { offsetInCU: 0x134D3, offset: 0x134D3, size: 0x8, addend: 0x0, symName: __ZNSt3__114numeric_limitsIlE3maxB8ue170006Ev, symObjAddr: 0x22A4, symBinAddr: 0x100005E10, symSize: 0x14 }
  - { offsetInCU: 0x134F1, offset: 0x134F1, size: 0x8, addend: 0x0, symName: __ZNKSt3__16__lessIvvEclB8ue170006ImmEEbRKT_RKT0_, symObjAddr: 0x230C, symBinAddr: 0x100005E78, symSize: 0x34 }
  - { offsetInCU: 0x13545, offset: 0x13545, size: 0x8, addend: 0x0, symName: __ZNKSt3__19allocatorINS_6vectorIdNS0_IdEEEEE8max_sizeB8ue170006Ev, symObjAddr: 0x2340, symBinAddr: 0x100005EAC, symSize: 0x18 }
  - { offsetInCU: 0x1356B, offset: 0x1356B, size: 0x8, addend: 0x0, symName: __ZNKSt3__117__compressed_pairIPNS_6vectorIdNS_9allocatorIdEEEENS2_IS4_EEE6secondB8ue170006Ev, symObjAddr: 0x2358, symBinAddr: 0x100005EC4, symSize: 0x24 }
  - { offsetInCU: 0x13591, offset: 0x13591, size: 0x8, addend: 0x0, symName: __ZNKSt3__122__compressed_pair_elemINS_9allocatorINS_6vectorIdNS1_IdEEEEEELi1ELb1EE5__getB8ue170006Ev, symObjAddr: 0x237C, symBinAddr: 0x100005EE8, symSize: 0x14 }
  - { offsetInCU: 0x135B7, offset: 0x135B7, size: 0x8, addend: 0x0, symName: __ZNSt3__123__libcpp_numeric_limitsIlLb1EE3maxB8ue170006Ev, symObjAddr: 0x2390, symBinAddr: 0x100005EFC, symSize: 0x8 }
  - { offsetInCU: 0x135CB, offset: 0x135CB, size: 0x8, addend: 0x0, symName: __ZNSt12length_errorC1B8ue170006EPKc, symObjAddr: 0x23FC, symBinAddr: 0x100005F68, symSize: 0x34 }
  - { offsetInCU: 0x13603, offset: 0x13603, size: 0x8, addend: 0x0, symName: __ZNSt12length_errorC2B8ue170006EPKc, symObjAddr: 0x2430, symBinAddr: 0x100005F9C, symSize: 0x4C }
  - { offsetInCU: 0x1363B, offset: 0x1363B, size: 0x8, addend: 0x0, symName: __ZNSt3__19allocatorINS_6vectorIdNS0_IdEEEEE8allocateB8ue170006Em, symObjAddr: 0x247C, symBinAddr: 0x100005FE8, symSize: 0x8C }
  - { offsetInCU: 0x1366F, offset: 0x1366F, size: 0x8, addend: 0x0, symName: __ZNSt3__117__compressed_pairIPNS_6vectorIdNS_9allocatorIdEEEENS2_IS4_EEE6secondB8ue170006Ev, symObjAddr: 0x2594, symBinAddr: 0x100006100, symSize: 0x24 }
  - { offsetInCU: 0x13695, offset: 0x13695, size: 0x8, addend: 0x0, symName: __ZNSt3__122__compressed_pair_elemINS_9allocatorINS_6vectorIdNS1_IdEEEEEELi1ELb1EE5__getB8ue170006Ev, symObjAddr: 0x25B8, symBinAddr: 0x100006124, symSize: 0x14 }
  - { offsetInCU: 0x136BB, offset: 0x136BB, size: 0x8, addend: 0x0, symName: __ZNSt3__117__compressed_pairIPNS_6vectorIdNS_9allocatorIdEEEENS2_IS4_EEE5firstB8ue170006Ev, symObjAddr: 0x25CC, symBinAddr: 0x100006138, symSize: 0x24 }
  - { offsetInCU: 0x136E1, offset: 0x136E1, size: 0x8, addend: 0x0, symName: __ZNSt3__122__compressed_pair_elemIPNS_6vectorIdNS_9allocatorIdEEEELi0ELb0EE5__getB8ue170006Ev, symObjAddr: 0x25F0, symBinAddr: 0x10000615C, symSize: 0x14 }
  - { offsetInCU: 0x13707, offset: 0x13707, size: 0x8, addend: 0x0, symName: __ZNKSt3__16vectorINS0_IdNS_9allocatorIdEEEENS1_IS3_EEE31__annotate_contiguous_containerB8ue170006EPKvS7_S7_S7_, symObjAddr: 0x2604, symBinAddr: 0x100006170, symSize: 0x20 }
  - { offsetInCU: 0x13759, offset: 0x13759, size: 0x8, addend: 0x0, symName: __ZNKSt3__16vectorINS0_IdNS_9allocatorIdEEEENS1_IS3_EEE4dataB8ue170006Ev, symObjAddr: 0x2624, symBinAddr: 0x100006190, symSize: 0x28 }
  - { offsetInCU: 0x1377F, offset: 0x1377F, size: 0x8, addend: 0x0, symName: __ZNKSt3__16vectorINS0_IdNS_9allocatorIdEEEENS1_IS3_EEE8capacityB8ue170006Ev, symObjAddr: 0x264C, symBinAddr: 0x1000061B8, symSize: 0x40 }
  - { offsetInCU: 0x137A5, offset: 0x137A5, size: 0x8, addend: 0x0, symName: __ZNKSt3__16vectorINS0_IdNS_9allocatorIdEEEENS1_IS3_EEE9__end_capB8ue170006Ev, symObjAddr: 0x26A0, symBinAddr: 0x10000620C, symSize: 0x28 }
  - { offsetInCU: 0x137CB, offset: 0x137CB, size: 0x8, addend: 0x0, symName: __ZNKSt3__117__compressed_pairIPNS_6vectorIdNS_9allocatorIdEEEENS2_IS4_EEE5firstB8ue170006Ev, symObjAddr: 0x26C8, symBinAddr: 0x100006234, symSize: 0x24 }
  - { offsetInCU: 0x137F1, offset: 0x137F1, size: 0x8, addend: 0x0, symName: __ZNKSt3__122__compressed_pair_elemIPNS_6vectorIdNS_9allocatorIdEEEELi0ELb0EE5__getB8ue170006Ev, symObjAddr: 0x26EC, symBinAddr: 0x100006258, symSize: 0x14 }
  - { offsetInCU: 0x13830, offset: 0x13830, size: 0x8, addend: 0x0, symName: __ZNSt3__16vectorINS0_IdNS_9allocatorIdEEEENS1_IS3_EEE21_ConstructTransactionC1B8ue170006ERS5_m, symObjAddr: 0x2700, symBinAddr: 0x10000626C, symSize: 0x3C }
  - { offsetInCU: 0x13878, offset: 0x13878, size: 0x8, addend: 0x0, symName: __ZNSt3__116allocator_traitsINS_9allocatorINS_6vectorIdNS1_IdEEEEEEE9constructB8ue170006IS4_JEvEEvRS5_PT_DpOT0_, symObjAddr: 0x273C, symBinAddr: 0x1000062A8, symSize: 0x2C }
  - { offsetInCU: 0x138BA, offset: 0x138BA, size: 0x8, addend: 0x0, symName: __ZNSt3__16vectorINS0_IdNS_9allocatorIdEEEENS1_IS3_EEE21_ConstructTransactionD1B8ue170006Ev, symObjAddr: 0x2768, symBinAddr: 0x1000062D4, symSize: 0x2C }
  - { offsetInCU: 0x138E4, offset: 0x138E4, size: 0x8, addend: 0x0, symName: __ZNSt3__16vectorINS0_IdNS_9allocatorIdEEEENS1_IS3_EEE21_ConstructTransactionC2B8ue170006ERS5_m, symObjAddr: 0x2794, symBinAddr: 0x100006300, symSize: 0x4C }
  - { offsetInCU: 0x1392C, offset: 0x1392C, size: 0x8, addend: 0x0, symName: __ZNSt3__19allocatorINS_6vectorIdNS0_IdEEEEE9constructB8ue170006IS3_JEEEvPT_DpOT0_, symObjAddr: 0x27E0, symBinAddr: 0x10000634C, symSize: 0x28 }
  - { offsetInCU: 0x1396E, offset: 0x1396E, size: 0x8, addend: 0x0, symName: __ZNSt3__16vectorINS0_IdNS_9allocatorIdEEEENS1_IS3_EEE21_ConstructTransactionD2B8ue170006Ev, symObjAddr: 0x2808, symBinAddr: 0x100006374, symSize: 0x20 }
  - { offsetInCU: 0x13998, offset: 0x13998, size: 0x8, addend: 0x0, symName: __ZNSt3__128__exception_guard_exceptionsINS_6vectorINS1_IdNS_9allocatorIdEEEENS2_IS4_EEE16__destroy_vectorEED2B8ue170006Ev, symObjAddr: 0x2828, symBinAddr: 0x100006394, symSize: 0x48 }
  - { offsetInCU: 0x139C2, offset: 0x139C2, size: 0x8, addend: 0x0, symName: __ZNSt3__16vectorINS0_IdNS_9allocatorIdEEEENS1_IS3_EEE16__destroy_vectorclB8ue170006Ev, symObjAddr: 0x2870, symBinAddr: 0x1000063DC, symSize: 0x90 }
  - { offsetInCU: 0x139E8, offset: 0x139E8, size: 0x8, addend: 0x0, symName: __ZNSt3__16vectorINS0_IdNS_9allocatorIdEEEENS1_IS3_EEE7__clearB8ue170006Ev, symObjAddr: 0x2900, symBinAddr: 0x10000646C, symSize: 0x28 }
  - { offsetInCU: 0x13A0E, offset: 0x13A0E, size: 0x8, addend: 0x0, symName: __ZNKSt3__16vectorINS0_IdNS_9allocatorIdEEEENS1_IS3_EEE17__annotate_deleteB8ue170006Ev, symObjAddr: 0x2928, symBinAddr: 0x100006494, symSize: 0xD4 }
  - { offsetInCU: 0x13A34, offset: 0x13A34, size: 0x8, addend: 0x0, symName: __ZNSt3__116allocator_traitsINS_9allocatorINS_6vectorIdNS1_IdEEEEEEE10deallocateB8ue170006ERS5_PS4_m, symObjAddr: 0x29FC, symBinAddr: 0x100006568, symSize: 0x34 }
  - { offsetInCU: 0x13A76, offset: 0x13A76, size: 0x8, addend: 0x0, symName: __ZNSt3__16vectorINS0_IdNS_9allocatorIdEEEENS1_IS3_EEE22__base_destruct_at_endB8ue170006EPS3_, symObjAddr: 0x2A30, symBinAddr: 0x10000659C, symSize: 0xA0 }
  - { offsetInCU: 0x13ABA, offset: 0x13ABA, size: 0x8, addend: 0x0, symName: __ZNSt3__116allocator_traitsINS_9allocatorINS_6vectorIdNS1_IdEEEEEEE7destroyB8ue170006IS4_vEEvRS5_PT_, symObjAddr: 0x2AD0, symBinAddr: 0x10000663C, symSize: 0x2C }
  - { offsetInCU: 0x13AF7, offset: 0x13AF7, size: 0x8, addend: 0x0, symName: __ZNSt3__19allocatorINS_6vectorIdNS0_IdEEEEE7destroyB8ue170006EPS3_, symObjAddr: 0x2AFC, symBinAddr: 0x100006668, symSize: 0x28 }
  - { offsetInCU: 0x13B2B, offset: 0x13B2B, size: 0x8, addend: 0x0, symName: __ZNKSt3__16vectorINS0_IdNS_9allocatorIdEEEENS1_IS3_EEE4sizeB8ue170006Ev, symObjAddr: 0x2B24, symBinAddr: 0x100006690, symSize: 0x28 }
  - { offsetInCU: 0x13B51, offset: 0x13B51, size: 0x8, addend: 0x0, symName: __ZNSt3__19allocatorINS_6vectorIdNS0_IdEEEEE10deallocateB8ue170006EPS3_m, symObjAddr: 0x2B4C, symBinAddr: 0x1000066B8, symSize: 0x74 }
  - { offsetInCU: 0x13B93, offset: 0x13B93, size: 0x8, addend: 0x0, symName: __ZNSt3__16vectorIN16PerfectHashTable6BucketENS_9allocatorIS2_EEEC2Em, symObjAddr: 0x2C3C, symBinAddr: 0x1000067A8, symSize: 0xDC }
  - { offsetInCU: 0x13BE3, offset: 0x13BE3, size: 0x8, addend: 0x0, symName: __ZNSt3__117__compressed_pairIPN16PerfectHashTable6BucketENS_9allocatorIS2_EEEC1B8ue170006IDnNS_18__default_init_tagEEEOT_OT0_, symObjAddr: 0x2D18, symBinAddr: 0x100006884, symSize: 0x3C }
  - { offsetInCU: 0x13C3B, offset: 0x13C3B, size: 0x8, addend: 0x0, symName: __ZNSt3__16vectorIN16PerfectHashTable6BucketENS_9allocatorIS2_EEE16__destroy_vectorC1B8ue170006ERS5_, symObjAddr: 0x2D94, symBinAddr: 0x100006900, symSize: 0x34 }
  - { offsetInCU: 0x13C74, offset: 0x13C74, size: 0x8, addend: 0x0, symName: __ZNSt3__16vectorIN16PerfectHashTable6BucketENS_9allocatorIS2_EEE11__vallocateB8ue170006Em, symObjAddr: 0x2DC8, symBinAddr: 0x100006934, symSize: 0xB4 }
  - { offsetInCU: 0x13CB8, offset: 0x13CB8, size: 0x8, addend: 0x0, symName: __ZNSt3__16vectorIN16PerfectHashTable6BucketENS_9allocatorIS2_EEE18__construct_at_endEm, symObjAddr: 0x2E7C, symBinAddr: 0x1000069E8, symSize: 0xD0 }
  - { offsetInCU: 0x13D2A, offset: 0x13D2A, size: 0x8, addend: 0x0, symName: __ZNSt3__128__exception_guard_exceptionsINS_6vectorIN16PerfectHashTable6BucketENS_9allocatorIS3_EEE16__destroy_vectorEE10__completeB8ue170006Ev, symObjAddr: 0x2F4C, symBinAddr: 0x100006AB8, symSize: 0x1C }
  - { offsetInCU: 0x13D50, offset: 0x13D50, size: 0x8, addend: 0x0, symName: __ZNSt3__128__exception_guard_exceptionsINS_6vectorIN16PerfectHashTable6BucketENS_9allocatorIS3_EEE16__destroy_vectorEED1B8ue170006Ev, symObjAddr: 0x2F68, symBinAddr: 0x100006AD4, symSize: 0x2C }
  - { offsetInCU: 0x13D7A, offset: 0x13D7A, size: 0x8, addend: 0x0, symName: __ZNSt3__117__compressed_pairIPN16PerfectHashTable6BucketENS_9allocatorIS2_EEEC2B8ue170006IDnNS_18__default_init_tagEEEOT_OT0_, symObjAddr: 0x2F94, symBinAddr: 0x100006B00, symSize: 0x40 }
  - { offsetInCU: 0x13DD2, offset: 0x13DD2, size: 0x8, addend: 0x0, symName: __ZNSt3__122__compressed_pair_elemIPN16PerfectHashTable6BucketELi0ELb0EEC2B8ue170006IDnvEEOT_, symObjAddr: 0x2FD4, symBinAddr: 0x100006B40, symSize: 0x1C }
  - { offsetInCU: 0x13E14, offset: 0x13E14, size: 0x8, addend: 0x0, symName: __ZNSt3__122__compressed_pair_elemINS_9allocatorIN16PerfectHashTable6BucketEEELi1ELb1EEC2B8ue170006ENS_18__default_init_tagE, symObjAddr: 0x2FF0, symBinAddr: 0x100006B5C, symSize: 0x2C }
  - { offsetInCU: 0x13E49, offset: 0x13E49, size: 0x8, addend: 0x0, symName: __ZNSt3__19allocatorIN16PerfectHashTable6BucketEEC2B8ue170006Ev, symObjAddr: 0x301C, symBinAddr: 0x100006B88, symSize: 0x2C }
  - { offsetInCU: 0x13E73, offset: 0x13E73, size: 0x8, addend: 0x0, symName: __ZNSt3__116__non_trivial_ifILb1ENS_9allocatorIN16PerfectHashTable6BucketEEEEC2B8ue170006Ev, symObjAddr: 0x3048, symBinAddr: 0x100006BB4, symSize: 0x14 }
  - { offsetInCU: 0x13E9D, offset: 0x13E9D, size: 0x8, addend: 0x0, symName: __ZNSt3__128__exception_guard_exceptionsINS_6vectorIN16PerfectHashTable6BucketENS_9allocatorIS3_EEE16__destroy_vectorEEC1B8ue170006ES7_, symObjAddr: 0x305C, symBinAddr: 0x100006BC8, symSize: 0x34 }
  - { offsetInCU: 0x13ED5, offset: 0x13ED5, size: 0x8, addend: 0x0, symName: __ZNSt3__128__exception_guard_exceptionsINS_6vectorIN16PerfectHashTable6BucketENS_9allocatorIS3_EEE16__destroy_vectorEEC2B8ue170006ES7_, symObjAddr: 0x3090, symBinAddr: 0x100006BFC, symSize: 0x24 }
  - { offsetInCU: 0x13F0D, offset: 0x13F0D, size: 0x8, addend: 0x0, symName: __ZNSt3__16vectorIN16PerfectHashTable6BucketENS_9allocatorIS2_EEE16__destroy_vectorC2B8ue170006ERS5_, symObjAddr: 0x30B4, symBinAddr: 0x100006C20, symSize: 0x20 }
  - { offsetInCU: 0x13F46, offset: 0x13F46, size: 0x8, addend: 0x0, symName: __ZNKSt3__16vectorIN16PerfectHashTable6BucketENS_9allocatorIS2_EEE8max_sizeEv, symObjAddr: 0x30D4, symBinAddr: 0x100006C40, symSize: 0x74 }
  - { offsetInCU: 0x13F6E, offset: 0x13F6E, size: 0x8, addend: 0x0, symName: __ZNKSt3__16vectorIN16PerfectHashTable6BucketENS_9allocatorIS2_EEE20__throw_length_errorB8ue170006Ev, symObjAddr: 0x3148, symBinAddr: 0x100006CB4, symSize: 0x1C }
  - { offsetInCU: 0x13F94, offset: 0x13F94, size: 0x8, addend: 0x0, symName: __ZNSt3__16vectorIN16PerfectHashTable6BucketENS_9allocatorIS2_EEE7__allocB8ue170006Ev, symObjAddr: 0x31A4, symBinAddr: 0x100006D10, symSize: 0x28 }
  - { offsetInCU: 0x13FBA, offset: 0x13FBA, size: 0x8, addend: 0x0, symName: __ZNSt3__16vectorIN16PerfectHashTable6BucketENS_9allocatorIS2_EEE9__end_capB8ue170006Ev, symObjAddr: 0x31CC, symBinAddr: 0x100006D38, symSize: 0x28 }
  - { offsetInCU: 0x13FE0, offset: 0x13FE0, size: 0x8, addend: 0x0, symName: __ZNKSt3__16vectorIN16PerfectHashTable6BucketENS_9allocatorIS2_EEE14__annotate_newB8ue170006Em, symObjAddr: 0x31F4, symBinAddr: 0x100006D60, symSize: 0xC8 }
  - { offsetInCU: 0x1401F, offset: 0x1401F, size: 0x8, addend: 0x0, symName: __ZNSt3__116allocator_traitsINS_9allocatorIN16PerfectHashTable6BucketEEEE8max_sizeB8ue170006IS4_vEEmRKS4_, symObjAddr: 0x32BC, symBinAddr: 0x100006E28, symSize: 0x24 }
  - { offsetInCU: 0x1404D, offset: 0x1404D, size: 0x8, addend: 0x0, symName: __ZNKSt3__16vectorIN16PerfectHashTable6BucketENS_9allocatorIS2_EEE7__allocB8ue170006Ev, symObjAddr: 0x32E0, symBinAddr: 0x100006E4C, symSize: 0x28 }
  - { offsetInCU: 0x14073, offset: 0x14073, size: 0x8, addend: 0x0, symName: __ZNKSt3__19allocatorIN16PerfectHashTable6BucketEE8max_sizeB8ue170006Ev, symObjAddr: 0x3308, symBinAddr: 0x100006E74, symSize: 0x18 }
  - { offsetInCU: 0x14099, offset: 0x14099, size: 0x8, addend: 0x0, symName: __ZNKSt3__117__compressed_pairIPN16PerfectHashTable6BucketENS_9allocatorIS2_EEE6secondB8ue170006Ev, symObjAddr: 0x3320, symBinAddr: 0x100006E8C, symSize: 0x24 }
  - { offsetInCU: 0x140BF, offset: 0x140BF, size: 0x8, addend: 0x0, symName: __ZNKSt3__122__compressed_pair_elemINS_9allocatorIN16PerfectHashTable6BucketEEELi1ELb1EE5__getB8ue170006Ev, symObjAddr: 0x3344, symBinAddr: 0x100006EB0, symSize: 0x14 }
  - { offsetInCU: 0x140E5, offset: 0x140E5, size: 0x8, addend: 0x0, symName: __ZNSt3__19allocatorIN16PerfectHashTable6BucketEE8allocateB8ue170006Em, symObjAddr: 0x3358, symBinAddr: 0x100006EC4, symSize: 0x8C }
  - { offsetInCU: 0x14119, offset: 0x14119, size: 0x8, addend: 0x0, symName: __ZNSt3__117__compressed_pairIPN16PerfectHashTable6BucketENS_9allocatorIS2_EEE6secondB8ue170006Ev, symObjAddr: 0x33E4, symBinAddr: 0x100006F50, symSize: 0x24 }
  - { offsetInCU: 0x1413F, offset: 0x1413F, size: 0x8, addend: 0x0, symName: __ZNSt3__122__compressed_pair_elemINS_9allocatorIN16PerfectHashTable6BucketEEELi1ELb1EE5__getB8ue170006Ev, symObjAddr: 0x3408, symBinAddr: 0x100006F74, symSize: 0x14 }
  - { offsetInCU: 0x14165, offset: 0x14165, size: 0x8, addend: 0x0, symName: __ZNSt3__117__compressed_pairIPN16PerfectHashTable6BucketENS_9allocatorIS2_EEE5firstB8ue170006Ev, symObjAddr: 0x341C, symBinAddr: 0x100006F88, symSize: 0x24 }
  - { offsetInCU: 0x1418B, offset: 0x1418B, size: 0x8, addend: 0x0, symName: __ZNSt3__122__compressed_pair_elemIPN16PerfectHashTable6BucketELi0ELb0EE5__getB8ue170006Ev, symObjAddr: 0x3440, symBinAddr: 0x100006FAC, symSize: 0x14 }
  - { offsetInCU: 0x141B1, offset: 0x141B1, size: 0x8, addend: 0x0, symName: __ZNKSt3__16vectorIN16PerfectHashTable6BucketENS_9allocatorIS2_EEE31__annotate_contiguous_containerB8ue170006EPKvS7_S7_S7_, symObjAddr: 0x3454, symBinAddr: 0x100006FC0, symSize: 0x20 }
  - { offsetInCU: 0x14203, offset: 0x14203, size: 0x8, addend: 0x0, symName: __ZNKSt3__16vectorIN16PerfectHashTable6BucketENS_9allocatorIS2_EEE4dataB8ue170006Ev, symObjAddr: 0x3474, symBinAddr: 0x100006FE0, symSize: 0x28 }
  - { offsetInCU: 0x14229, offset: 0x14229, size: 0x8, addend: 0x0, symName: __ZNKSt3__16vectorIN16PerfectHashTable6BucketENS_9allocatorIS2_EEE8capacityB8ue170006Ev, symObjAddr: 0x349C, symBinAddr: 0x100007008, symSize: 0x40 }
  - { offsetInCU: 0x1424F, offset: 0x1424F, size: 0x8, addend: 0x0, symName: __ZNKSt3__16vectorIN16PerfectHashTable6BucketENS_9allocatorIS2_EEE9__end_capB8ue170006Ev, symObjAddr: 0x34F0, symBinAddr: 0x10000705C, symSize: 0x28 }
  - { offsetInCU: 0x14275, offset: 0x14275, size: 0x8, addend: 0x0, symName: __ZNKSt3__117__compressed_pairIPN16PerfectHashTable6BucketENS_9allocatorIS2_EEE5firstB8ue170006Ev, symObjAddr: 0x3518, symBinAddr: 0x100007084, symSize: 0x24 }
  - { offsetInCU: 0x1429B, offset: 0x1429B, size: 0x8, addend: 0x0, symName: __ZNKSt3__122__compressed_pair_elemIPN16PerfectHashTable6BucketELi0ELb0EE5__getB8ue170006Ev, symObjAddr: 0x353C, symBinAddr: 0x1000070A8, symSize: 0x14 }
  - { offsetInCU: 0x142DA, offset: 0x142DA, size: 0x8, addend: 0x0, symName: __ZNSt3__16vectorIN16PerfectHashTable6BucketENS_9allocatorIS2_EEE21_ConstructTransactionC1B8ue170006ERS5_m, symObjAddr: 0x3550, symBinAddr: 0x1000070BC, symSize: 0x3C }
  - { offsetInCU: 0x14322, offset: 0x14322, size: 0x8, addend: 0x0, symName: __ZNSt3__116allocator_traitsINS_9allocatorIN16PerfectHashTable6BucketEEEE9constructB8ue170006IS3_JEvEEvRS4_PT_DpOT0_, symObjAddr: 0x358C, symBinAddr: 0x1000070F8, symSize: 0x2C }
  - { offsetInCU: 0x14364, offset: 0x14364, size: 0x8, addend: 0x0, symName: __ZNSt3__16vectorIN16PerfectHashTable6BucketENS_9allocatorIS2_EEE21_ConstructTransactionD1B8ue170006Ev, symObjAddr: 0x35B8, symBinAddr: 0x100007124, symSize: 0x2C }
  - { offsetInCU: 0x1438E, offset: 0x1438E, size: 0x8, addend: 0x0, symName: __ZNSt3__16vectorIN16PerfectHashTable6BucketENS_9allocatorIS2_EEE21_ConstructTransactionC2B8ue170006ERS5_m, symObjAddr: 0x35E4, symBinAddr: 0x100007150, symSize: 0x4C }
  - { offsetInCU: 0x143D6, offset: 0x143D6, size: 0x8, addend: 0x0, symName: __ZNSt3__19allocatorIN16PerfectHashTable6BucketEE9constructB8ue170006IS2_JEEEvPT_DpOT0_, symObjAddr: 0x3630, symBinAddr: 0x10000719C, symSize: 0x28 }
  - { offsetInCU: 0x14418, offset: 0x14418, size: 0x8, addend: 0x0, symName: __ZN16PerfectHashTable6BucketC1Ev, symObjAddr: 0x3658, symBinAddr: 0x1000071C4, symSize: 0x2C }
  - { offsetInCU: 0x14442, offset: 0x14442, size: 0x8, addend: 0x0, symName: __ZN16PerfectHashTable6BucketC2Ev, symObjAddr: 0x3684, symBinAddr: 0x1000071F0, symSize: 0x34 }
  - { offsetInCU: 0x1446C, offset: 0x1446C, size: 0x8, addend: 0x0, symName: __ZNSt3__16vectorIN16PerfectHashTable6BucketENS_9allocatorIS2_EEE21_ConstructTransactionD2B8ue170006Ev, symObjAddr: 0x36B8, symBinAddr: 0x100007224, symSize: 0x20 }
  - { offsetInCU: 0x14496, offset: 0x14496, size: 0x8, addend: 0x0, symName: __ZNSt3__128__exception_guard_exceptionsINS_6vectorIN16PerfectHashTable6BucketENS_9allocatorIS3_EEE16__destroy_vectorEED2B8ue170006Ev, symObjAddr: 0x36D8, symBinAddr: 0x100007244, symSize: 0x48 }
  - { offsetInCU: 0x144C0, offset: 0x144C0, size: 0x8, addend: 0x0, symName: __ZNSt3__16vectorIN16PerfectHashTable6BucketENS_9allocatorIS2_EEE16__destroy_vectorclB8ue170006Ev, symObjAddr: 0x3720, symBinAddr: 0x10000728C, symSize: 0x90 }
  - { offsetInCU: 0x144E6, offset: 0x144E6, size: 0x8, addend: 0x0, symName: __ZNSt3__16vectorIN16PerfectHashTable6BucketENS_9allocatorIS2_EEE7__clearB8ue170006Ev, symObjAddr: 0x37B0, symBinAddr: 0x10000731C, symSize: 0x28 }
  - { offsetInCU: 0x1450C, offset: 0x1450C, size: 0x8, addend: 0x0, symName: __ZNKSt3__16vectorIN16PerfectHashTable6BucketENS_9allocatorIS2_EEE17__annotate_deleteB8ue170006Ev, symObjAddr: 0x37D8, symBinAddr: 0x100007344, symSize: 0xD4 }
  - { offsetInCU: 0x14532, offset: 0x14532, size: 0x8, addend: 0x0, symName: __ZNSt3__116allocator_traitsINS_9allocatorIN16PerfectHashTable6BucketEEEE10deallocateB8ue170006ERS4_PS3_m, symObjAddr: 0x38AC, symBinAddr: 0x100007418, symSize: 0x34 }
  - { offsetInCU: 0x14574, offset: 0x14574, size: 0x8, addend: 0x0, symName: __ZNSt3__16vectorIN16PerfectHashTable6BucketENS_9allocatorIS2_EEE22__base_destruct_at_endB8ue170006EPS2_, symObjAddr: 0x38E0, symBinAddr: 0x10000744C, symSize: 0xA0 }
  - { offsetInCU: 0x145B8, offset: 0x145B8, size: 0x8, addend: 0x0, symName: __ZNSt3__116allocator_traitsINS_9allocatorIN16PerfectHashTable6BucketEEEE7destroyB8ue170006IS3_vEEvRS4_PT_, symObjAddr: 0x3980, symBinAddr: 0x1000074EC, symSize: 0x2C }
  - { offsetInCU: 0x145F5, offset: 0x145F5, size: 0x8, addend: 0x0, symName: __ZNSt3__19allocatorIN16PerfectHashTable6BucketEE7destroyB8ue170006EPS2_, symObjAddr: 0x39AC, symBinAddr: 0x100007518, symSize: 0x28 }
  - { offsetInCU: 0x14629, offset: 0x14629, size: 0x8, addend: 0x0, symName: __ZN16PerfectHashTable6BucketD1Ev, symObjAddr: 0x39D4, symBinAddr: 0x100007540, symSize: 0x2C }
  - { offsetInCU: 0x14653, offset: 0x14653, size: 0x8, addend: 0x0, symName: __ZN16PerfectHashTable6BucketD2Ev, symObjAddr: 0x3A00, symBinAddr: 0x10000756C, symSize: 0x5C }
  - { offsetInCU: 0x1467D, offset: 0x1467D, size: 0x8, addend: 0x0, symName: __ZNKSt3__16vectorIN16PerfectHashTable6BucketENS_9allocatorIS2_EEE4sizeB8ue170006Ev, symObjAddr: 0x3A5C, symBinAddr: 0x1000075C8, symSize: 0x28 }
  - { offsetInCU: 0x146A3, offset: 0x146A3, size: 0x8, addend: 0x0, symName: __ZNSt3__19allocatorIN16PerfectHashTable6BucketEE10deallocateB8ue170006EPS2_m, symObjAddr: 0x3A84, symBinAddr: 0x1000075F0, symSize: 0x74 }
  - { offsetInCU: 0x146E5, offset: 0x146E5, size: 0x8, addend: 0x0, symName: __ZN16PerfectHashTable12HashFunctionC2Ei, symObjAddr: 0x3AF8, symBinAddr: 0x100007664, symSize: 0x134 }
  - { offsetInCU: 0x14753, offset: 0x14753, size: 0x8, addend: 0x0, symName: __ZNSt3__112basic_stringIcNS_11char_traitsIcEENS_9allocatorIcEEEC1B8ue170006ILi0EEEPKc, symObjAddr: 0x3C2C, symBinAddr: 0x100007798, symSize: 0x34 }
  - { offsetInCU: 0x14792, offset: 0x14792, size: 0x8, addend: 0x0, symName: __ZNSt3__123mersenne_twister_engineIyLm64ELm312ELm156ELm31ELy13043109905998158313ELm29ELy6148914691236517205ELm17ELy8202884508482404352ELm37ELy18444473444759240704ELm43ELy6364136223846793005EEC1B8ue170006Ey, symObjAddr: 0x3C60, symBinAddr: 0x1000077CC, symSize: 0x34 }
  - { offsetInCU: 0x147CA, offset: 0x147CA, size: 0x8, addend: 0x0, symName: __ZNSt3__124uniform_int_distributionIyEC1Eyy, symObjAddr: 0x3C94, symBinAddr: 0x100007800, symSize: 0x3C }
  - { offsetInCU: 0x14810, offset: 0x14810, size: 0x8, addend: 0x0, symName: __ZNSt3__124uniform_int_distributionIyEclB8ue170006INS_23mersenne_twister_engineIyLm64ELm312ELm156ELm31ELy13043109905998158313ELm29ELy6148914691236517205ELm17ELy8202884508482404352ELm37ELy18444473444759240704ELm43ELy6364136223846793005EEEEEyRT_, symObjAddr: 0x3CD0, symBinAddr: 0x10000783C, symSize: 0x30 }
  - { offsetInCU: 0x1484D, offset: 0x1484D, size: 0x8, addend: 0x0, symName: __ZNSt3__112basic_stringIcNS_11char_traitsIcEENS_9allocatorIcEEEC2B8ue170006ILi0EEEPKc, symObjAddr: 0x3D00, symBinAddr: 0x10000786C, symSize: 0x58 }
  - { offsetInCU: 0x1488C, offset: 0x1488C, size: 0x8, addend: 0x0, symName: __ZNSt3__117__compressed_pairINS_12basic_stringIcNS_11char_traitsIcEENS_9allocatorIcEEE5__repES5_EC1B8ue170006INS_18__default_init_tagESA_EEOT_OT0_, symObjAddr: 0x3D58, symBinAddr: 0x1000078C4, symSize: 0x3C }
  - { offsetInCU: 0x148E4, offset: 0x148E4, size: 0x8, addend: 0x0, symName: __ZNSt3__111char_traitsIcE6lengthB8ue170006EPKc, symObjAddr: 0x3D94, symBinAddr: 0x100007900, symSize: 0x48 }
  - { offsetInCU: 0x14907, offset: 0x14907, size: 0x8, addend: 0x0, symName: __ZNSt3__117__compressed_pairINS_12basic_stringIcNS_11char_traitsIcEENS_9allocatorIcEEE5__repES5_EC2B8ue170006INS_18__default_init_tagESA_EEOT_OT0_, symObjAddr: 0x3DDC, symBinAddr: 0x100007948, symSize: 0x3C }
  - { offsetInCU: 0x1495F, offset: 0x1495F, size: 0x8, addend: 0x0, symName: __ZNSt3__122__compressed_pair_elemINS_12basic_stringIcNS_11char_traitsIcEENS_9allocatorIcEEE5__repELi0ELb0EEC2B8ue170006ENS_18__default_init_tagE, symObjAddr: 0x3E18, symBinAddr: 0x100007984, symSize: 0x14 }
  - { offsetInCU: 0x14994, offset: 0x14994, size: 0x8, addend: 0x0, symName: __ZNSt3__122__compressed_pair_elemINS_9allocatorIcEELi1ELb1EEC2B8ue170006ENS_18__default_init_tagE, symObjAddr: 0x3E2C, symBinAddr: 0x100007998, symSize: 0x2C }
  - { offsetInCU: 0x149C9, offset: 0x149C9, size: 0x8, addend: 0x0, symName: __ZNSt3__19allocatorIcEC2B8ue170006Ev, symObjAddr: 0x3E58, symBinAddr: 0x1000079C4, symSize: 0x2C }
  - { offsetInCU: 0x149F3, offset: 0x149F3, size: 0x8, addend: 0x0, symName: __ZNSt3__116__non_trivial_ifILb1ENS_9allocatorIcEEEC2B8ue170006Ev, symObjAddr: 0x3E84, symBinAddr: 0x1000079F0, symSize: 0x14 }
  - { offsetInCU: 0x14A1D, offset: 0x14A1D, size: 0x8, addend: 0x0, symName: __ZNSt3__123mersenne_twister_engineIyLm64ELm312ELm156ELm31ELy13043109905998158313ELm29ELy6148914691236517205ELm17ELy8202884508482404352ELm37ELy18444473444759240704ELm43ELy6364136223846793005EEC2B8ue170006Ey, symObjAddr: 0x3EBC, symBinAddr: 0x100007A28, symSize: 0x34 }
  - { offsetInCU: 0x14A55, offset: 0x14A55, size: 0x8, addend: 0x0, symName: __ZNSt3__123mersenne_twister_engineIyLm64ELm312ELm156ELm31ELy13043109905998158313ELm29ELy6148914691236517205ELm17ELy8202884508482404352ELm37ELy18444473444759240704ELm43ELy6364136223846793005EE4seedEy, symObjAddr: 0x3EF0, symBinAddr: 0x100007A5C, symSize: 0xD0 }
  - { offsetInCU: 0x14AA8, offset: 0x14AA8, size: 0x8, addend: 0x0, symName: __ZNSt3__123mersenne_twister_engineIyLm64ELm312ELm156ELm31ELy13043109905998158313ELm29ELy6148914691236517205ELm17ELy8202884508482404352ELm37ELy18444473444759240704ELm43ELy6364136223846793005EE8__rshiftB8ue170006ILm62EEENS_9enable_ifIXltT_L_ZNS1_3_DtEEEyE4typeEy, symObjAddr: 0x3FC0, symBinAddr: 0x100007B2C, symSize: 0x18 }
  - { offsetInCU: 0x14AD5, offset: 0x14AD5, size: 0x8, addend: 0x0, symName: __ZNSt3__124uniform_int_distributionIyEC2Eyy, symObjAddr: 0x3FD8, symBinAddr: 0x100007B44, symSize: 0x3C }
  - { offsetInCU: 0x14B1B, offset: 0x14B1B, size: 0x8, addend: 0x0, symName: __ZNSt3__124uniform_int_distributionIyE10param_typeC1B8ue170006Eyy, symObjAddr: 0x4014, symBinAddr: 0x100007B80, symSize: 0x3C }
  - { offsetInCU: 0x14B61, offset: 0x14B61, size: 0x8, addend: 0x0, symName: __ZNSt3__124uniform_int_distributionIyE10param_typeC2B8ue170006Eyy, symObjAddr: 0x4050, symBinAddr: 0x100007BBC, symSize: 0x2C }
  - { offsetInCU: 0x14BA7, offset: 0x14BA7, size: 0x8, addend: 0x0, symName: __ZNKSt3__124uniform_int_distributionIyE10param_type1bB8ue170006Ev, symObjAddr: 0x41F0, symBinAddr: 0x100007D5C, symSize: 0x18 }
  - { offsetInCU: 0x14BCD, offset: 0x14BCD, size: 0x8, addend: 0x0, symName: __ZNKSt3__124uniform_int_distributionIyE10param_type1aB8ue170006Ev, symObjAddr: 0x4208, symBinAddr: 0x100007D74, symSize: 0x18 }
  - { offsetInCU: 0x14BF3, offset: 0x14BF3, size: 0x8, addend: 0x0, symName: __ZNSt3__125__independent_bits_engineINS_23mersenne_twister_engineIyLm64ELm312ELm156ELm31ELy13043109905998158313ELm29ELy6148914691236517205ELm17ELy8202884508482404352ELm37ELy18444473444759240704ELm43ELy6364136223846793005EEEyEC1ERS2_m, symObjAddr: 0x4220, symBinAddr: 0x100007D8C, symSize: 0x3C }
  - { offsetInCU: 0x14C3A, offset: 0x14C3A, size: 0x8, addend: 0x0, symName: __ZNSt3__125__independent_bits_engineINS_23mersenne_twister_engineIyLm64ELm312ELm156ELm31ELy13043109905998158313ELm29ELy6148914691236517205ELm17ELy8202884508482404352ELm37ELy18444473444759240704ELm43ELy6364136223846793005EEEyEclB8ue170006Ev, symObjAddr: 0x425C, symBinAddr: 0x100007DC8, symSize: 0x24 }
  - { offsetInCU: 0x14C60, offset: 0x14C60, size: 0x8, addend: 0x0, symName: __ZNSt3__114numeric_limitsIyE3maxB8ue170006Ev, symObjAddr: 0x42D4, symBinAddr: 0x100007E40, symSize: 0x14 }
  - { offsetInCU: 0x14C74, offset: 0x14C74, size: 0x8, addend: 0x0, symName: __ZNSt3__125__independent_bits_engineINS_23mersenne_twister_engineIyLm64ELm312ELm156ELm31ELy13043109905998158313ELm29ELy6148914691236517205ELm17ELy8202884508482404352ELm37ELy18444473444759240704ELm43ELy6364136223846793005EEEyEC2ERS2_m, symObjAddr: 0x42E8, symBinAddr: 0x100007E54, symSize: 0x21C }
  - { offsetInCU: 0x14CBB, offset: 0x14CBB, size: 0x8, addend: 0x0, symName: __ZNSt3__125__independent_bits_engineINS_23mersenne_twister_engineIyLm64ELm312ELm156ELm31ELy13043109905998158313ELm29ELy6148914691236517205ELm17ELy8202884508482404352ELm37ELy18444473444759240704ELm43ELy6364136223846793005EEEyE6__evalENS_17integral_constantIbLb0EEE, symObjAddr: 0x4504, symBinAddr: 0x100008070, symSize: 0x38 }
  - { offsetInCU: 0x14CED, offset: 0x14CED, size: 0x8, addend: 0x0, symName: __ZNSt3__123mersenne_twister_engineIyLm64ELm312ELm156ELm31ELy13043109905998158313ELm29ELy6148914691236517205ELm17ELy8202884508482404352ELm37ELy18444473444759240704ELm43ELy6364136223846793005EEclEv, symObjAddr: 0x453C, symBinAddr: 0x1000080A8, symSize: 0x158 }
  - { offsetInCU: 0x14D60, offset: 0x14D60, size: 0x8, addend: 0x0, symName: __ZNSt3__123mersenne_twister_engineIyLm64ELm312ELm156ELm31ELy13043109905998158313ELm29ELy6148914691236517205ELm17ELy8202884508482404352ELm37ELy18444473444759240704ELm43ELy6364136223846793005EE8__rshiftB8ue170006ILm1EEENS_9enable_ifIXltT_L_ZNS1_3_DtEEEyE4typeEy, symObjAddr: 0x4694, symBinAddr: 0x100008200, symSize: 0x18 }
  - { offsetInCU: 0x14D8D, offset: 0x14D8D, size: 0x8, addend: 0x0, symName: __ZNSt3__123mersenne_twister_engineIyLm64ELm312ELm156ELm31ELy13043109905998158313ELm29ELy6148914691236517205ELm17ELy8202884508482404352ELm37ELy18444473444759240704ELm43ELy6364136223846793005EE8__rshiftB8ue170006ILm29EEENS_9enable_ifIXltT_L_ZNS1_3_DtEEEyE4typeEy, symObjAddr: 0x46AC, symBinAddr: 0x100008218, symSize: 0x18 }
  - { offsetInCU: 0x14DBA, offset: 0x14DBA, size: 0x8, addend: 0x0, symName: __ZNSt3__123mersenne_twister_engineIyLm64ELm312ELm156ELm31ELy13043109905998158313ELm29ELy6148914691236517205ELm17ELy8202884508482404352ELm37ELy18444473444759240704ELm43ELy6364136223846793005EE8__lshiftB8ue170006ILm17EEENS_9enable_ifIXltT_Lm64EEyE4typeEy, symObjAddr: 0x46C4, symBinAddr: 0x100008230, symSize: 0x1C }
  - { offsetInCU: 0x14DE7, offset: 0x14DE7, size: 0x8, addend: 0x0, symName: __ZNSt3__123mersenne_twister_engineIyLm64ELm312ELm156ELm31ELy13043109905998158313ELm29ELy6148914691236517205ELm17ELy8202884508482404352ELm37ELy18444473444759240704ELm43ELy6364136223846793005EE8__lshiftB8ue170006ILm37EEENS_9enable_ifIXltT_Lm64EEyE4typeEy, symObjAddr: 0x46E0, symBinAddr: 0x10000824C, symSize: 0x1C }
  - { offsetInCU: 0x14E14, offset: 0x14E14, size: 0x8, addend: 0x0, symName: __ZNSt3__123mersenne_twister_engineIyLm64ELm312ELm156ELm31ELy13043109905998158313ELm29ELy6148914691236517205ELm17ELy8202884508482404352ELm37ELy18444473444759240704ELm43ELy6364136223846793005EE8__rshiftB8ue170006ILm43EEENS_9enable_ifIXltT_L_ZNS1_3_DtEEEyE4typeEy, symObjAddr: 0x46FC, symBinAddr: 0x100008268, symSize: 0x18 }
  - { offsetInCU: 0x14E41, offset: 0x14E41, size: 0x8, addend: 0x0, symName: __ZNSt3__123__libcpp_numeric_limitsIyLb1EE3maxB8ue170006Ev, symObjAddr: 0x4730, symBinAddr: 0x10000829C, symSize: 0x8 }
  - { offsetInCU: 0x14E55, offset: 0x14E55, size: 0x8, addend: 0x0, symName: __ZNSt3__113unordered_setIdNS_4hashIdEENS_8equal_toIdEENS_9allocatorIdEEEC2B8ue170006Ev, symObjAddr: 0x4738, symBinAddr: 0x1000082A4, symSize: 0x2C }
  - { offsetInCU: 0x14E7F, offset: 0x14E7F, size: 0x8, addend: 0x0, symName: __ZNSt3__112__hash_tableIdNS_4hashIdEENS_8equal_toIdEENS_9allocatorIdEEEC1Ev, symObjAddr: 0x4764, symBinAddr: 0x1000082D0, symSize: 0x2C }
  - { offsetInCU: 0x14EAB, offset: 0x14EAB, size: 0x8, addend: 0x0, symName: __ZNSt3__112__hash_tableIdNS_4hashIdEENS_8equal_toIdEENS_9allocatorIdEEEC2Ev, symObjAddr: 0x4790, symBinAddr: 0x1000082FC, symSize: 0xA4 }
  - { offsetInCU: 0x14ED7, offset: 0x14ED7, size: 0x8, addend: 0x0, symName: __ZNSt3__110unique_ptrIA_PNS_16__hash_node_baseIPNS_11__hash_nodeIdPvEEEENS_25__bucket_list_deallocatorINS_9allocatorIS7_EEEEEC1B8ue170006ILb1EvEEv, symObjAddr: 0x4834, symBinAddr: 0x1000083A0, symSize: 0x2C }
  - { offsetInCU: 0x14F0C, offset: 0x14F0C, size: 0x8, addend: 0x0, symName: __ZNSt3__117__compressed_pairINS_16__hash_node_baseIPNS_11__hash_nodeIdPvEEEENS_9allocatorIS4_EEEC1B8ue170006ILb1EvEEv, symObjAddr: 0x4860, symBinAddr: 0x1000083CC, symSize: 0x2C }
  - { offsetInCU: 0x14F46, offset: 0x14F46, size: 0x8, addend: 0x0, symName: __ZNSt3__117__compressed_pairImNS_4hashIdEEEC1B8ue170006IiNS_18__default_init_tagEEEOT_OT0_, symObjAddr: 0x488C, symBinAddr: 0x1000083F8, symSize: 0x3C }
  - { offsetInCU: 0x14FA3, offset: 0x14FA3, size: 0x8, addend: 0x0, symName: __ZNSt3__117__compressed_pairIfNS_8equal_toIdEEEC1B8ue170006IfNS_18__default_init_tagEEEOT_OT0_, symObjAddr: 0x48C8, symBinAddr: 0x100008434, symSize: 0x3C }
  - { offsetInCU: 0x14FFB, offset: 0x14FFB, size: 0x8, addend: 0x0, symName: __ZNSt3__110unique_ptrIA_PNS_16__hash_node_baseIPNS_11__hash_nodeIdPvEEEENS_25__bucket_list_deallocatorINS_9allocatorIS7_EEEEED1B8ue170006Ev, symObjAddr: 0x4904, symBinAddr: 0x100008470, symSize: 0x2C }
  - { offsetInCU: 0x15025, offset: 0x15025, size: 0x8, addend: 0x0, symName: __ZNSt3__110unique_ptrIA_PNS_16__hash_node_baseIPNS_11__hash_nodeIdPvEEEENS_25__bucket_list_deallocatorINS_9allocatorIS7_EEEEEC2B8ue170006ILb1EvEEv, symObjAddr: 0x4930, symBinAddr: 0x10000849C, symSize: 0x50 }
  - { offsetInCU: 0x1505F, offset: 0x1505F, size: 0x8, addend: 0x0, symName: __ZNSt3__117__compressed_pairIPPNS_16__hash_node_baseIPNS_11__hash_nodeIdPvEEEENS_25__bucket_list_deallocatorINS_9allocatorIS7_EEEEEC1B8ue170006INS_16__value_init_tagESF_EEOT_OT0_, symObjAddr: 0x4980, symBinAddr: 0x1000084EC, symSize: 0x3C }
  - { offsetInCU: 0x150B7, offset: 0x150B7, size: 0x8, addend: 0x0, symName: __ZNSt3__117__compressed_pairIPPNS_16__hash_node_baseIPNS_11__hash_nodeIdPvEEEENS_25__bucket_list_deallocatorINS_9allocatorIS7_EEEEEC2B8ue170006INS_16__value_init_tagESF_EEOT_OT0_, symObjAddr: 0x49BC, symBinAddr: 0x100008528, symSize: 0x40 }
  - { offsetInCU: 0x1510F, offset: 0x1510F, size: 0x8, addend: 0x0, symName: __ZNSt3__122__compressed_pair_elemIPPNS_16__hash_node_baseIPNS_11__hash_nodeIdPvEEEELi0ELb0EEC2B8ue170006ENS_16__value_init_tagE, symObjAddr: 0x49FC, symBinAddr: 0x100008568, symSize: 0x18 }
  - { offsetInCU: 0x15144, offset: 0x15144, size: 0x8, addend: 0x0, symName: __ZNSt3__122__compressed_pair_elemINS_25__bucket_list_deallocatorINS_9allocatorIPNS_16__hash_node_baseIPNS_11__hash_nodeIdPvEEEEEEEELi1ELb0EEC2B8ue170006ENS_16__value_init_tagE, symObjAddr: 0x4A14, symBinAddr: 0x100008580, symSize: 0x2C }
  - { offsetInCU: 0x15179, offset: 0x15179, size: 0x8, addend: 0x0, symName: __ZNSt3__125__bucket_list_deallocatorINS_9allocatorIPNS_16__hash_node_baseIPNS_11__hash_nodeIdPvEEEEEEEC1B8ue170006Ev, symObjAddr: 0x4A40, symBinAddr: 0x1000085AC, symSize: 0x2C }
  - { offsetInCU: 0x151A3, offset: 0x151A3, size: 0x8, addend: 0x0, symName: __ZNSt3__125__bucket_list_deallocatorINS_9allocatorIPNS_16__hash_node_baseIPNS_11__hash_nodeIdPvEEEEEEEC2B8ue170006Ev, symObjAddr: 0x4A6C, symBinAddr: 0x1000085D8, symSize: 0x38 }
  - { offsetInCU: 0x151CD, offset: 0x151CD, size: 0x8, addend: 0x0, symName: __ZNSt3__117__compressed_pairImNS_9allocatorIPNS_16__hash_node_baseIPNS_11__hash_nodeIdPvEEEEEEEC1B8ue170006IiNS_18__default_init_tagEEEOT_OT0_, symObjAddr: 0x4AA4, symBinAddr: 0x100008610, symSize: 0x3C }
  - { offsetInCU: 0x15225, offset: 0x15225, size: 0x8, addend: 0x0, symName: __ZNSt3__117__compressed_pairImNS_9allocatorIPNS_16__hash_node_baseIPNS_11__hash_nodeIdPvEEEEEEEC2B8ue170006IiNS_18__default_init_tagEEEOT_OT0_, symObjAddr: 0x4AE0, symBinAddr: 0x10000864C, symSize: 0x40 }
  - { offsetInCU: 0x1527D, offset: 0x1527D, size: 0x8, addend: 0x0, symName: __ZNSt3__122__compressed_pair_elemImLi0ELb0EEC2B8ue170006IivEEOT_, symObjAddr: 0x4B20, symBinAddr: 0x10000868C, symSize: 0x24 }
  - { offsetInCU: 0x152BF, offset: 0x152BF, size: 0x8, addend: 0x0, symName: __ZNSt3__122__compressed_pair_elemINS_9allocatorIPNS_16__hash_node_baseIPNS_11__hash_nodeIdPvEEEEEELi1ELb1EEC2B8ue170006ENS_18__default_init_tagE, symObjAddr: 0x4B44, symBinAddr: 0x1000086B0, symSize: 0x2C }
  - { offsetInCU: 0x152F4, offset: 0x152F4, size: 0x8, addend: 0x0, symName: __ZNSt3__19allocatorIPNS_16__hash_node_baseIPNS_11__hash_nodeIdPvEEEEEC2B8ue170006Ev, symObjAddr: 0x4B70, symBinAddr: 0x1000086DC, symSize: 0x2C }
  - { offsetInCU: 0x1531E, offset: 0x1531E, size: 0x8, addend: 0x0, symName: __ZNSt3__116__non_trivial_ifILb1ENS_9allocatorIPNS_16__hash_node_baseIPNS_11__hash_nodeIdPvEEEEEEEC2B8ue170006Ev, symObjAddr: 0x4B9C, symBinAddr: 0x100008708, symSize: 0x14 }
  - { offsetInCU: 0x15348, offset: 0x15348, size: 0x8, addend: 0x0, symName: __ZNSt3__117__compressed_pairINS_16__hash_node_baseIPNS_11__hash_nodeIdPvEEEENS_9allocatorIS4_EEEC2B8ue170006ILb1EvEEv, symObjAddr: 0x4BB0, symBinAddr: 0x10000871C, symSize: 0x34 }
  - { offsetInCU: 0x1537D, offset: 0x1537D, size: 0x8, addend: 0x0, symName: __ZNSt3__122__compressed_pair_elemINS_16__hash_node_baseIPNS_11__hash_nodeIdPvEEEELi0ELb0EEC2B8ue170006ENS_16__value_init_tagE, symObjAddr: 0x4BE4, symBinAddr: 0x100008750, symSize: 0x2C }
  - { offsetInCU: 0x153B2, offset: 0x153B2, size: 0x8, addend: 0x0, symName: __ZNSt3__122__compressed_pair_elemINS_9allocatorINS_11__hash_nodeIdPvEEEELi1ELb1EEC2B8ue170006ENS_16__value_init_tagE, symObjAddr: 0x4C10, symBinAddr: 0x10000877C, symSize: 0x2C }
  - { offsetInCU: 0x153E7, offset: 0x153E7, size: 0x8, addend: 0x0, symName: __ZNSt3__116__hash_node_baseIPNS_11__hash_nodeIdPvEEEC1B8ue170006Ev, symObjAddr: 0x4C3C, symBinAddr: 0x1000087A8, symSize: 0x2C }
  - { offsetInCU: 0x15411, offset: 0x15411, size: 0x8, addend: 0x0, symName: __ZNSt3__116__hash_node_baseIPNS_11__hash_nodeIdPvEEEC2B8ue170006Ev, symObjAddr: 0x4C68, symBinAddr: 0x1000087D4, symSize: 0x18 }
  - { offsetInCU: 0x1543B, offset: 0x1543B, size: 0x8, addend: 0x0, symName: __ZNSt3__19allocatorINS_11__hash_nodeIdPvEEEC2B8ue170006Ev, symObjAddr: 0x4C80, symBinAddr: 0x1000087EC, symSize: 0x2C }
  - { offsetInCU: 0x15465, offset: 0x15465, size: 0x8, addend: 0x0, symName: __ZNSt3__116__non_trivial_ifILb1ENS_9allocatorINS_11__hash_nodeIdPvEEEEEC2B8ue170006Ev, symObjAddr: 0x4CAC, symBinAddr: 0x100008818, symSize: 0x14 }
  - { offsetInCU: 0x1548F, offset: 0x1548F, size: 0x8, addend: 0x0, symName: __ZNSt3__117__compressed_pairImNS_4hashIdEEEC2B8ue170006IiNS_18__default_init_tagEEEOT_OT0_, symObjAddr: 0x4CC0, symBinAddr: 0x10000882C, symSize: 0x40 }
  - { offsetInCU: 0x154E7, offset: 0x154E7, size: 0x8, addend: 0x0, symName: __ZNSt3__122__compressed_pair_elemINS_4hashIdEELi1ELb1EEC2B8ue170006ENS_18__default_init_tagE, symObjAddr: 0x4D00, symBinAddr: 0x10000886C, symSize: 0x14 }
  - { offsetInCU: 0x1551C, offset: 0x1551C, size: 0x8, addend: 0x0, symName: __ZNSt3__117__compressed_pairIfNS_8equal_toIdEEEC2B8ue170006IfNS_18__default_init_tagEEEOT_OT0_, symObjAddr: 0x4D14, symBinAddr: 0x100008880, symSize: 0x40 }
  - { offsetInCU: 0x15574, offset: 0x15574, size: 0x8, addend: 0x0, symName: __ZNSt3__122__compressed_pair_elemIfLi0ELb0EEC2B8ue170006IfvEEOT_, symObjAddr: 0x4D54, symBinAddr: 0x1000088C0, symSize: 0x24 }
  - { offsetInCU: 0x155B6, offset: 0x155B6, size: 0x8, addend: 0x0, symName: __ZNSt3__122__compressed_pair_elemINS_8equal_toIdEELi1ELb1EEC2B8ue170006ENS_18__default_init_tagE, symObjAddr: 0x4D78, symBinAddr: 0x1000088E4, symSize: 0x14 }
  - { offsetInCU: 0x155EB, offset: 0x155EB, size: 0x8, addend: 0x0, symName: __ZNSt3__110unique_ptrIA_PNS_16__hash_node_baseIPNS_11__hash_nodeIdPvEEEENS_25__bucket_list_deallocatorINS_9allocatorIS7_EEEEED2B8ue170006Ev, symObjAddr: 0x4D8C, symBinAddr: 0x1000088F8, symSize: 0x30 }
  - { offsetInCU: 0x15615, offset: 0x15615, size: 0x8, addend: 0x0, symName: __ZNSt3__110unique_ptrIA_PNS_16__hash_node_baseIPNS_11__hash_nodeIdPvEEEENS_25__bucket_list_deallocatorINS_9allocatorIS7_EEEEE5resetB8ue170006EDn, symObjAddr: 0x4DBC, symBinAddr: 0x100008928, symSize: 0x6C }
  - { offsetInCU: 0x15655, offset: 0x15655, size: 0x8, addend: 0x0, symName: __ZNSt3__117__compressed_pairIPPNS_16__hash_node_baseIPNS_11__hash_nodeIdPvEEEENS_25__bucket_list_deallocatorINS_9allocatorIS7_EEEEE5firstB8ue170006Ev, symObjAddr: 0x4E28, symBinAddr: 0x100008994, symSize: 0x24 }
  - { offsetInCU: 0x1567B, offset: 0x1567B, size: 0x8, addend: 0x0, symName: __ZNSt3__117__compressed_pairIPPNS_16__hash_node_baseIPNS_11__hash_nodeIdPvEEEENS_25__bucket_list_deallocatorINS_9allocatorIS7_EEEEE6secondB8ue170006Ev, symObjAddr: 0x4E4C, symBinAddr: 0x1000089B8, symSize: 0x28 }
  - { offsetInCU: 0x156A1, offset: 0x156A1, size: 0x8, addend: 0x0, symName: __ZNSt3__125__bucket_list_deallocatorINS_9allocatorIPNS_16__hash_node_baseIPNS_11__hash_nodeIdPvEEEEEEEclB8ue170006EPS8_, symObjAddr: 0x4E74, symBinAddr: 0x1000089E0, symSize: 0x58 }
  - { offsetInCU: 0x156D6, offset: 0x156D6, size: 0x8, addend: 0x0, symName: __ZNSt3__122__compressed_pair_elemIPPNS_16__hash_node_baseIPNS_11__hash_nodeIdPvEEEELi0ELb0EE5__getB8ue170006Ev, symObjAddr: 0x4ECC, symBinAddr: 0x100008A38, symSize: 0x14 }
  - { offsetInCU: 0x156FC, offset: 0x156FC, size: 0x8, addend: 0x0, symName: __ZNSt3__122__compressed_pair_elemINS_25__bucket_list_deallocatorINS_9allocatorIPNS_16__hash_node_baseIPNS_11__hash_nodeIdPvEEEEEEEELi1ELb0EE5__getB8ue170006Ev, symObjAddr: 0x4EE0, symBinAddr: 0x100008A4C, symSize: 0x14 }
  - { offsetInCU: 0x15722, offset: 0x15722, size: 0x8, addend: 0x0, symName: __ZNSt3__116allocator_traitsINS_9allocatorIPNS_16__hash_node_baseIPNS_11__hash_nodeIdPvEEEEEEE10deallocateB8ue170006ERS9_PS8_m, symObjAddr: 0x4EF4, symBinAddr: 0x100008A60, symSize: 0x34 }
  - { offsetInCU: 0x15764, offset: 0x15764, size: 0x8, addend: 0x0, symName: __ZNSt3__125__bucket_list_deallocatorINS_9allocatorIPNS_16__hash_node_baseIPNS_11__hash_nodeIdPvEEEEEEE7__allocB8ue170006Ev, symObjAddr: 0x4F28, symBinAddr: 0x100008A94, symSize: 0x24 }
  - { offsetInCU: 0x1578A, offset: 0x1578A, size: 0x8, addend: 0x0, symName: __ZNSt3__125__bucket_list_deallocatorINS_9allocatorIPNS_16__hash_node_baseIPNS_11__hash_nodeIdPvEEEEEEE4sizeB8ue170006Ev, symObjAddr: 0x4F4C, symBinAddr: 0x100008AB8, symSize: 0x24 }
  - { offsetInCU: 0x157B0, offset: 0x157B0, size: 0x8, addend: 0x0, symName: __ZNSt3__19allocatorIPNS_16__hash_node_baseIPNS_11__hash_nodeIdPvEEEEE10deallocateB8ue170006EPS7_m, symObjAddr: 0x4F70, symBinAddr: 0x100008ADC, symSize: 0x70 }
  - { offsetInCU: 0x157F2, offset: 0x157F2, size: 0x8, addend: 0x0, symName: __ZNSt3__117__compressed_pairImNS_9allocatorIPNS_16__hash_node_baseIPNS_11__hash_nodeIdPvEEEEEEE6secondB8ue170006Ev, symObjAddr: 0x4FE0, symBinAddr: 0x100008B4C, symSize: 0x24 }
  - { offsetInCU: 0x15818, offset: 0x15818, size: 0x8, addend: 0x0, symName: __ZNSt3__122__compressed_pair_elemINS_9allocatorIPNS_16__hash_node_baseIPNS_11__hash_nodeIdPvEEEEEELi1ELb1EE5__getB8ue170006Ev, symObjAddr: 0x5004, symBinAddr: 0x100008B70, symSize: 0x14 }
  - { offsetInCU: 0x1583E, offset: 0x1583E, size: 0x8, addend: 0x0, symName: __ZNSt3__117__compressed_pairImNS_9allocatorIPNS_16__hash_node_baseIPNS_11__hash_nodeIdPvEEEEEEE5firstB8ue170006Ev, symObjAddr: 0x5018, symBinAddr: 0x100008B84, symSize: 0x24 }
  - { offsetInCU: 0x15864, offset: 0x15864, size: 0x8, addend: 0x0, symName: __ZNSt3__122__compressed_pair_elemImLi0ELb0EE5__getB8ue170006Ev, symObjAddr: 0x503C, symBinAddr: 0x100008BA8, symSize: 0x14 }
  - { offsetInCU: 0x1588A, offset: 0x1588A, size: 0x8, addend: 0x0, symName: __ZNKSt3__16vectorIdNS_9allocatorIdEEE11__make_iterB8ue170006EPKd, symObjAddr: 0x5050, symBinAddr: 0x100008BBC, symSize: 0x30 }
  - { offsetInCU: 0x158BF, offset: 0x158BF, size: 0x8, addend: 0x0, symName: __ZNSt3__111__wrap_iterIPKdEC1B8ue170006ES2_, symObjAddr: 0x5080, symBinAddr: 0x100008BEC, symSize: 0x34 }
  - { offsetInCU: 0x158F7, offset: 0x158F7, size: 0x8, addend: 0x0, symName: __ZNSt3__111__wrap_iterIPKdEC2B8ue170006ES2_, symObjAddr: 0x50B4, symBinAddr: 0x100008C20, symSize: 0x20 }
  - { offsetInCU: 0x1592F, offset: 0x1592F, size: 0x8, addend: 0x0, symName: __ZNKSt3__111__wrap_iterIPKdE4baseB8ue170006Ev, symObjAddr: 0x511C, symBinAddr: 0x100008C88, symSize: 0x18 }
  - { offsetInCU: 0x15955, offset: 0x15955, size: 0x8, addend: 0x0, symName: __ZNSt3__112__hash_tableIdNS_4hashIdEENS_8equal_toIdEENS_9allocatorIdEEE4findIdEENS_15__hash_iteratorIPNS_11__hash_nodeIdPvEEEERKT_, symObjAddr: 0x5164, symBinAddr: 0x100008CD0, symSize: 0x1B4 }
  - { offsetInCU: 0x159DF, offset: 0x159DF, size: 0x8, addend: 0x0, symName: __ZNSt3__121__hash_const_iteratorIPNS_11__hash_nodeIdPvEEEC1B8ue170006ERKNS_15__hash_iteratorIS4_EE, symObjAddr: 0x5318, symBinAddr: 0x100008E84, symSize: 0x34 }
  - { offsetInCU: 0x15A18, offset: 0x15A18, size: 0x8, addend: 0x0, symName: __ZNSt3__112__hash_tableIdNS_4hashIdEENS_8equal_toIdEENS_9allocatorIdEEE13hash_functionB8ue170006Ev, symObjAddr: 0x534C, symBinAddr: 0x100008EB8, symSize: 0x28 }
  - { offsetInCU: 0x15A3E, offset: 0x15A3E, size: 0x8, addend: 0x0, symName: __ZNKSt3__14hashIdEclB8ue170006Ed, symObjAddr: 0x5374, symBinAddr: 0x100008EE0, symSize: 0x5C }
  - { offsetInCU: 0x15A73, offset: 0x15A73, size: 0x8, addend: 0x0, symName: __ZNKSt3__112__hash_tableIdNS_4hashIdEENS_8equal_toIdEENS_9allocatorIdEEE12bucket_countB8ue170006Ev, symObjAddr: 0x53D0, symBinAddr: 0x100008F3C, symSize: 0x28 }
  - { offsetInCU: 0x15A99, offset: 0x15A99, size: 0x8, addend: 0x0, symName: __ZNKSt3__110unique_ptrIA_PNS_16__hash_node_baseIPNS_11__hash_nodeIdPvEEEENS_25__bucket_list_deallocatorINS_9allocatorIS7_EEEEEixB8ue170006Em, symObjAddr: 0x5490, symBinAddr: 0x100008FFC, symSize: 0x34 }
  - { offsetInCU: 0x15ACE, offset: 0x15ACE, size: 0x8, addend: 0x0, symName: __ZNKSt3__116__hash_node_baseIPNS_11__hash_nodeIdPvEEE6__hashB8ue170006Ev, symObjAddr: 0x54C4, symBinAddr: 0x100009030, symSize: 0x18 }
  - { offsetInCU: 0x15AF4, offset: 0x15AF4, size: 0x8, addend: 0x0, symName: __ZNSt3__112__hash_tableIdNS_4hashIdEENS_8equal_toIdEENS_9allocatorIdEEE6key_eqB8ue170006Ev, symObjAddr: 0x54DC, symBinAddr: 0x100009048, symSize: 0x28 }
  - { offsetInCU: 0x15B1A, offset: 0x15B1A, size: 0x8, addend: 0x0, symName: __ZNKSt3__18equal_toIdEclB8ue170006ERKdS3_, symObjAddr: 0x5504, symBinAddr: 0x100009070, symSize: 0x34 }
  - { offsetInCU: 0x15B5E, offset: 0x15B5E, size: 0x8, addend: 0x0, symName: __ZNSt3__116__hash_node_baseIPNS_11__hash_nodeIdPvEEE8__upcastB8ue170006Ev, symObjAddr: 0x5538, symBinAddr: 0x1000090A4, symSize: 0x24 }
  - { offsetInCU: 0x15B84, offset: 0x15B84, size: 0x8, addend: 0x0, symName: __ZNSt3__115__hash_iteratorIPNS_11__hash_nodeIdPvEEEC1B8ue170006EPNS_16__hash_node_baseIS4_EE, symObjAddr: 0x555C, symBinAddr: 0x1000090C8, symSize: 0x34 }
  - { offsetInCU: 0x15BBD, offset: 0x15BBD, size: 0x8, addend: 0x0, symName: __ZNSt3__112__hash_tableIdNS_4hashIdEENS_8equal_toIdEENS_9allocatorIdEEE3endEv, symObjAddr: 0x5590, symBinAddr: 0x1000090FC, symSize: 0x2C }
  - { offsetInCU: 0x15BE5, offset: 0x15BE5, size: 0x8, addend: 0x0, symName: __ZNSt3__117__compressed_pairImNS_4hashIdEEE6secondB8ue170006Ev, symObjAddr: 0x55BC, symBinAddr: 0x100009128, symSize: 0x24 }
  - { offsetInCU: 0x15C0B, offset: 0x15C0B, size: 0x8, addend: 0x0, symName: __ZNSt3__122__compressed_pair_elemINS_4hashIdEELi1ELb1EE5__getB8ue170006Ev, symObjAddr: 0x55E0, symBinAddr: 0x10000914C, symSize: 0x14 }
  - { offsetInCU: 0x15C31, offset: 0x15C31, size: 0x8, addend: 0x0, symName: __ZNKSt3__113__scalar_hashIdLm1EEclB8ue170006Ed, symObjAddr: 0x55F4, symBinAddr: 0x100009160, symSize: 0x20 }
  - { offsetInCU: 0x15C97, offset: 0x15C97, size: 0x8, addend: 0x0, symName: __ZNKSt3__110unique_ptrIA_PNS_16__hash_node_baseIPNS_11__hash_nodeIdPvEEEENS_25__bucket_list_deallocatorINS_9allocatorIS7_EEEEE11get_deleterB8ue170006Ev, symObjAddr: 0x5614, symBinAddr: 0x100009180, symSize: 0x24 }
  - { offsetInCU: 0x15CBD, offset: 0x15CBD, size: 0x8, addend: 0x0, symName: __ZNKSt3__125__bucket_list_deallocatorINS_9allocatorIPNS_16__hash_node_baseIPNS_11__hash_nodeIdPvEEEEEEE4sizeB8ue170006Ev, symObjAddr: 0x5638, symBinAddr: 0x1000091A4, symSize: 0x28 }
  - { offsetInCU: 0x15CE3, offset: 0x15CE3, size: 0x8, addend: 0x0, symName: __ZNKSt3__117__compressed_pairIPPNS_16__hash_node_baseIPNS_11__hash_nodeIdPvEEEENS_25__bucket_list_deallocatorINS_9allocatorIS7_EEEEE6secondB8ue170006Ev, symObjAddr: 0x5660, symBinAddr: 0x1000091CC, symSize: 0x28 }
  - { offsetInCU: 0x15D09, offset: 0x15D09, size: 0x8, addend: 0x0, symName: __ZNKSt3__122__compressed_pair_elemINS_25__bucket_list_deallocatorINS_9allocatorIPNS_16__hash_node_baseIPNS_11__hash_nodeIdPvEEEEEEEELi1ELb0EE5__getB8ue170006Ev, symObjAddr: 0x5688, symBinAddr: 0x1000091F4, symSize: 0x14 }
  - { offsetInCU: 0x15D2F, offset: 0x15D2F, size: 0x8, addend: 0x0, symName: __ZNKSt3__117__compressed_pairImNS_9allocatorIPNS_16__hash_node_baseIPNS_11__hash_nodeIdPvEEEEEEE5firstB8ue170006Ev, symObjAddr: 0x569C, symBinAddr: 0x100009208, symSize: 0x24 }
  - { offsetInCU: 0x15D55, offset: 0x15D55, size: 0x8, addend: 0x0, symName: __ZNKSt3__122__compressed_pair_elemImLi0ELb0EE5__getB8ue170006Ev, symObjAddr: 0x56C0, symBinAddr: 0x10000922C, symSize: 0x14 }
  - { offsetInCU: 0x15D7B, offset: 0x15D7B, size: 0x8, addend: 0x0, symName: __ZNKSt3__117__compressed_pairIPPNS_16__hash_node_baseIPNS_11__hash_nodeIdPvEEEENS_25__bucket_list_deallocatorINS_9allocatorIS7_EEEEE5firstB8ue170006Ev, symObjAddr: 0x56D4, symBinAddr: 0x100009240, symSize: 0x24 }
  - { offsetInCU: 0x15DA1, offset: 0x15DA1, size: 0x8, addend: 0x0, symName: __ZNKSt3__122__compressed_pair_elemIPPNS_16__hash_node_baseIPNS_11__hash_nodeIdPvEEEELi0ELb0EE5__getB8ue170006Ev, symObjAddr: 0x56F8, symBinAddr: 0x100009264, symSize: 0x14 }
  - { offsetInCU: 0x15DC7, offset: 0x15DC7, size: 0x8, addend: 0x0, symName: __ZNSt3__117__compressed_pairIfNS_8equal_toIdEEE6secondB8ue170006Ev, symObjAddr: 0x570C, symBinAddr: 0x100009278, symSize: 0x24 }
  - { offsetInCU: 0x15DED, offset: 0x15DED, size: 0x8, addend: 0x0, symName: __ZNSt3__122__compressed_pair_elemINS_8equal_toIdEELi1ELb1EE5__getB8ue170006Ev, symObjAddr: 0x5730, symBinAddr: 0x10000929C, symSize: 0x14 }
  - { offsetInCU: 0x15E13, offset: 0x15E13, size: 0x8, addend: 0x0, symName: __ZNSt3__114pointer_traitsIPNS_16__hash_node_baseIPNS_11__hash_nodeIdPvEEEEE10pointer_toB8ue170006ERS6_, symObjAddr: 0x5744, symBinAddr: 0x1000092B0, symSize: 0x14 }
  - { offsetInCU: 0x15E36, offset: 0x15E36, size: 0x8, addend: 0x0, symName: __ZNSt3__115__hash_iteratorIPNS_11__hash_nodeIdPvEEEC2B8ue170006EPNS_16__hash_node_baseIS4_EE, symObjAddr: 0x5758, symBinAddr: 0x1000092C4, symSize: 0x20 }
  - { offsetInCU: 0x15E6F, offset: 0x15E6F, size: 0x8, addend: 0x0, symName: __ZNSt3__121__hash_const_iteratorIPNS_11__hash_nodeIdPvEEEC2B8ue170006ERKNS_15__hash_iteratorIS4_EE, symObjAddr: 0x5778, symBinAddr: 0x1000092E4, symSize: 0x24 }
  - { offsetInCU: 0x15EA8, offset: 0x15EA8, size: 0x8, addend: 0x0, symName: __ZNSt3__112__hash_tableIdNS_4hashIdEENS_8equal_toIdEENS_9allocatorIdEEE15__insert_uniqueB8ue170006ERKd, symObjAddr: 0x579C, symBinAddr: 0x100009308, symSize: 0x50 }
  - { offsetInCU: 0x15EDD, offset: 0x15EDD, size: 0x8, addend: 0x0, symName: __ZNSt3__14pairINS_21__hash_const_iteratorIPNS_11__hash_nodeIdPvEEEEbEC1B8ue170006INS_15__hash_iteratorIS5_EEbEERKNS0_IT_T0_EE, symObjAddr: 0x57EC, symBinAddr: 0x100009358, symSize: 0x34 }
  - { offsetInCU: 0x15F27, offset: 0x15F27, size: 0x8, addend: 0x0, symName: __ZNSt3__112__hash_tableIdNS_4hashIdEENS_8equal_toIdEENS_9allocatorIdEEE25__emplace_unique_key_argsIdJRKdEEENS_4pairINS_15__hash_iteratorIPNS_11__hash_nodeIdPvEEEEbEERKT_DpOT0_, symObjAddr: 0x5820, symBinAddr: 0x10000938C, symSize: 0x4B4 }
  - { offsetInCU: 0x16007, offset: 0x16007, size: 0x8, addend: 0x0, symName: __ZNSt3__122__hash_key_value_typesIdE9__get_keyB8ue170006ERKd, symObjAddr: 0x5CD4, symBinAddr: 0x100009840, symSize: 0x14 }
  - { offsetInCU: 0x1602A, offset: 0x1602A, size: 0x8, addend: 0x0, symName: __ZNSt3__112__hash_tableIdNS_4hashIdEENS_8equal_toIdEENS_9allocatorIdEEE21__construct_node_hashIRKdJEEENS_10unique_ptrINS_11__hash_nodeIdPvEENS_22__hash_node_destructorINS5_ISE_EEEEEEmOT_DpOT0_, symObjAddr: 0x5CE8, symBinAddr: 0x100009854, symSize: 0x148 }
  - { offsetInCU: 0x1609D, offset: 0x1609D, size: 0x8, addend: 0x0, symName: __ZNSt3__112__hash_tableIdNS_4hashIdEENS_8equal_toIdEENS_9allocatorIdEEE4sizeB8ue170006Ev, symObjAddr: 0x5E30, symBinAddr: 0x10000999C, symSize: 0x28 }
  - { offsetInCU: 0x160C3, offset: 0x160C3, size: 0x8, addend: 0x0, symName: __ZNSt3__112__hash_tableIdNS_4hashIdEENS_8equal_toIdEENS_9allocatorIdEEE15max_load_factorB8ue170006Ev, symObjAddr: 0x5E58, symBinAddr: 0x1000099C4, symSize: 0x28 }
  - { offsetInCU: 0x160E9, offset: 0x160E9, size: 0x8, addend: 0x0, symName: __ZNSt3__112__hash_tableIdNS_4hashIdEENS_8equal_toIdEENS_9allocatorIdEEE15__rehash_uniqueB8ue170006Em, symObjAddr: 0x5E80, symBinAddr: 0x1000099EC, symSize: 0x2C }
  - { offsetInCU: 0x1611D, offset: 0x1611D, size: 0x8, addend: 0x0, symName: __Z4ceilB8ue170006f, symObjAddr: 0x5F28, symBinAddr: 0x100009A94, symSize: 0x18 }
  - { offsetInCU: 0x1614C, offset: 0x1614C, size: 0x8, addend: 0x0, symName: __ZNSt3__117__compressed_pairINS_16__hash_node_baseIPNS_11__hash_nodeIdPvEEEENS_9allocatorIS4_EEE5firstB8ue170006Ev, symObjAddr: 0x5F40, symBinAddr: 0x100009AAC, symSize: 0x24 }
  - { offsetInCU: 0x16172, offset: 0x16172, size: 0x8, addend: 0x0, symName: __ZNSt3__116__hash_node_baseIPNS_11__hash_nodeIdPvEEE5__ptrB8ue170006Ev, symObjAddr: 0x5F64, symBinAddr: 0x100009AD0, symSize: 0x24 }
  - { offsetInCU: 0x16198, offset: 0x16198, size: 0x8, addend: 0x0, symName: __ZNKSt3__110unique_ptrINS_11__hash_nodeIdPvEENS_22__hash_node_destructorINS_9allocatorIS3_EEEEEptB8ue170006Ev, symObjAddr: 0x5F88, symBinAddr: 0x100009AF4, symSize: 0x28 }
  - { offsetInCU: 0x161BE, offset: 0x161BE, size: 0x8, addend: 0x0, symName: __ZNKSt3__110unique_ptrINS_11__hash_nodeIdPvEENS_22__hash_node_destructorINS_9allocatorIS3_EEEEE3getB8ue170006Ev, symObjAddr: 0x5FB0, symBinAddr: 0x100009B1C, symSize: 0x28 }
  - { offsetInCU: 0x161E4, offset: 0x161E4, size: 0x8, addend: 0x0, symName: __ZNSt3__110unique_ptrINS_11__hash_nodeIdPvEENS_22__hash_node_destructorINS_9allocatorIS3_EEEEE7releaseB8ue170006Ev, symObjAddr: 0x5FD8, symBinAddr: 0x100009B44, symSize: 0x44 }
  - { offsetInCU: 0x16219, offset: 0x16219, size: 0x8, addend: 0x0, symName: __ZNSt3__110unique_ptrINS_11__hash_nodeIdPvEENS_22__hash_node_destructorINS_9allocatorIS3_EEEEED1B8ue170006Ev, symObjAddr: 0x601C, symBinAddr: 0x100009B88, symSize: 0x2C }
  - { offsetInCU: 0x16243, offset: 0x16243, size: 0x8, addend: 0x0, symName: __ZNSt3__14pairINS_15__hash_iteratorIPNS_11__hash_nodeIdPvEEEEbEC1B8ue170006ERKS6_RKb, symObjAddr: 0x6048, symBinAddr: 0x100009BB4, symSize: 0x3C }
  - { offsetInCU: 0x16289, offset: 0x16289, size: 0x8, addend: 0x0, symName: __ZNSt3__112__hash_tableIdNS_4hashIdEENS_8equal_toIdEENS_9allocatorIdEEE12__node_allocB8ue170006Ev, symObjAddr: 0x6084, symBinAddr: 0x100009BF0, symSize: 0x28 }
  - { offsetInCU: 0x162AF, offset: 0x162AF, size: 0x8, addend: 0x0, symName: __ZNSt3__116allocator_traitsINS_9allocatorINS_11__hash_nodeIdPvEEEEE8allocateB8ue170006ERS5_m, symObjAddr: 0x60AC, symBinAddr: 0x100009C18, symSize: 0x2C }
  - { offsetInCU: 0x162E2, offset: 0x162E2, size: 0x8, addend: 0x0, symName: __ZNSt3__122__hash_node_destructorINS_9allocatorINS_11__hash_nodeIdPvEEEEEC1B8ue170006ERS5_b, symObjAddr: 0x60D8, symBinAddr: 0x100009C44, symSize: 0x48 }
  - { offsetInCU: 0x1632F, offset: 0x1632F, size: 0x8, addend: 0x0, symName: __ZNSt3__110unique_ptrINS_11__hash_nodeIdPvEENS_22__hash_node_destructorINS_9allocatorIS3_EEEEEC1B8ue170006ILb1EvEEPS3_NS_16__dependent_typeINS_27__unique_ptr_deleter_sfinaeIS7_EEXT_EE20__good_rval_ref_typeE, symObjAddr: 0x6120, symBinAddr: 0x100009C8C, symSize: 0x3C }
  - { offsetInCU: 0x16380, offset: 0x16380, size: 0x8, addend: 0x0, symName: __ZNSt3__116allocator_traitsINS_9allocatorINS_11__hash_nodeIdPvEEEEE9constructB8ue170006IdJRKdEvEEvRS5_PT_DpOT0_, symObjAddr: 0x615C, symBinAddr: 0x100009CC8, symSize: 0x34 }
  - { offsetInCU: 0x163D7, offset: 0x163D7, size: 0x8, addend: 0x0, symName: __ZNSt3__122__hash_key_value_typesIdE9__get_ptrB8ue170006ERd, symObjAddr: 0x6190, symBinAddr: 0x100009CFC, symSize: 0x14 }
  - { offsetInCU: 0x163FA, offset: 0x163FA, size: 0x8, addend: 0x0, symName: __ZNSt3__110unique_ptrINS_11__hash_nodeIdPvEENS_22__hash_node_destructorINS_9allocatorIS3_EEEEE11get_deleterB8ue170006Ev, symObjAddr: 0x61A4, symBinAddr: 0x100009D10, symSize: 0x24 }
  - { offsetInCU: 0x16420, offset: 0x16420, size: 0x8, addend: 0x0, symName: __ZNSt3__117__compressed_pairINS_16__hash_node_baseIPNS_11__hash_nodeIdPvEEEENS_9allocatorIS4_EEE6secondB8ue170006Ev, symObjAddr: 0x61C8, symBinAddr: 0x100009D34, symSize: 0x24 }
  - { offsetInCU: 0x16446, offset: 0x16446, size: 0x8, addend: 0x0, symName: __ZNSt3__122__compressed_pair_elemINS_9allocatorINS_11__hash_nodeIdPvEEEELi1ELb1EE5__getB8ue170006Ev, symObjAddr: 0x61EC, symBinAddr: 0x100009D58, symSize: 0x14 }
  - { offsetInCU: 0x1646C, offset: 0x1646C, size: 0x8, addend: 0x0, symName: __ZNSt3__19allocatorINS_11__hash_nodeIdPvEEE8allocateB8ue170006Em, symObjAddr: 0x6200, symBinAddr: 0x100009D6C, symSize: 0x8C }
  - { offsetInCU: 0x164AA, offset: 0x164AA, size: 0x8, addend: 0x0, symName: __ZNSt3__116allocator_traitsINS_9allocatorINS_11__hash_nodeIdPvEEEEE8max_sizeB8ue170006IS5_vEEmRKS5_, symObjAddr: 0x628C, symBinAddr: 0x100009DF8, symSize: 0x24 }
  - { offsetInCU: 0x164D8, offset: 0x164D8, size: 0x8, addend: 0x0, symName: __ZNKSt3__19allocatorINS_11__hash_nodeIdPvEEE8max_sizeB8ue170006Ev, symObjAddr: 0x62B0, symBinAddr: 0x100009E1C, symSize: 0x18 }
  - { offsetInCU: 0x164FE, offset: 0x164FE, size: 0x8, addend: 0x0, symName: __ZNSt3__122__hash_node_destructorINS_9allocatorINS_11__hash_nodeIdPvEEEEEC2B8ue170006ERS5_b, symObjAddr: 0x62C8, symBinAddr: 0x100009E34, symSize: 0x38 }
  - { offsetInCU: 0x16546, offset: 0x16546, size: 0x8, addend: 0x0, symName: __ZNSt3__110unique_ptrINS_11__hash_nodeIdPvEENS_22__hash_node_destructorINS_9allocatorIS3_EEEEEC2B8ue170006ILb1EvEEPS3_NS_16__dependent_typeINS_27__unique_ptr_deleter_sfinaeIS7_EEXT_EE20__good_rval_ref_typeE, symObjAddr: 0x6300, symBinAddr: 0x100009E6C, symSize: 0x5C }
  - { offsetInCU: 0x16597, offset: 0x16597, size: 0x8, addend: 0x0, symName: __ZNSt3__117__compressed_pairIPNS_11__hash_nodeIdPvEENS_22__hash_node_destructorINS_9allocatorIS3_EEEEEC1B8ue170006IRS4_S8_EEOT_OT0_, symObjAddr: 0x635C, symBinAddr: 0x100009EC8, symSize: 0x3C }
  - { offsetInCU: 0x165EF, offset: 0x165EF, size: 0x8, addend: 0x0, symName: __ZNSt3__117__compressed_pairIPNS_11__hash_nodeIdPvEENS_22__hash_node_destructorINS_9allocatorIS3_EEEEEC2B8ue170006IRS4_S8_EEOT_OT0_, symObjAddr: 0x6398, symBinAddr: 0x100009F04, symSize: 0x48 }
  - { offsetInCU: 0x16647, offset: 0x16647, size: 0x8, addend: 0x0, symName: __ZNSt3__122__compressed_pair_elemIPNS_11__hash_nodeIdPvEELi0ELb0EEC2B8ue170006IRS4_vEEOT_, symObjAddr: 0x63E0, symBinAddr: 0x100009F4C, symSize: 0x24 }
  - { offsetInCU: 0x16689, offset: 0x16689, size: 0x8, addend: 0x0, symName: __ZNSt3__122__compressed_pair_elemINS_22__hash_node_destructorINS_9allocatorINS_11__hash_nodeIdPvEEEEEELi1ELb0EEC2B8ue170006IS7_vEEOT_, symObjAddr: 0x6404, symBinAddr: 0x100009F70, symSize: 0x24 }
  - { offsetInCU: 0x166CB, offset: 0x166CB, size: 0x8, addend: 0x0, symName: __ZNSt3__19allocatorINS_11__hash_nodeIdPvEEE9constructB8ue170006IdJRKdEEEvPT_DpOT0_, symObjAddr: 0x6428, symBinAddr: 0x100009F94, symSize: 0x28 }
  - { offsetInCU: 0x16721, offset: 0x16721, size: 0x8, addend: 0x0, symName: __ZNSt3__117__compressed_pairIPNS_11__hash_nodeIdPvEENS_22__hash_node_destructorINS_9allocatorIS3_EEEEE6secondB8ue170006Ev, symObjAddr: 0x6450, symBinAddr: 0x100009FBC, symSize: 0x28 }
  - { offsetInCU: 0x16747, offset: 0x16747, size: 0x8, addend: 0x0, symName: __ZNSt3__122__compressed_pair_elemINS_22__hash_node_destructorINS_9allocatorINS_11__hash_nodeIdPvEEEEEELi1ELb0EE5__getB8ue170006Ev, symObjAddr: 0x6478, symBinAddr: 0x100009FE4, symSize: 0x14 }
  - { offsetInCU: 0x1676D, offset: 0x1676D, size: 0x8, addend: 0x0, symName: __ZNSt3__117__compressed_pairImNS_4hashIdEEE5firstB8ue170006Ev, symObjAddr: 0x648C, symBinAddr: 0x100009FF8, symSize: 0x24 }
  - { offsetInCU: 0x16793, offset: 0x16793, size: 0x8, addend: 0x0, symName: __ZNSt3__117__compressed_pairIfNS_8equal_toIdEEE5firstB8ue170006Ev, symObjAddr: 0x64B0, symBinAddr: 0x10000A01C, symSize: 0x24 }
  - { offsetInCU: 0x167B9, offset: 0x167B9, size: 0x8, addend: 0x0, symName: __ZNSt3__122__compressed_pair_elemIfLi0ELb0EE5__getB8ue170006Ev, symObjAddr: 0x64D4, symBinAddr: 0x10000A040, symSize: 0x14 }
  - { offsetInCU: 0x167DF, offset: 0x167DF, size: 0x8, addend: 0x0, symName: __ZNSt3__112__hash_tableIdNS_4hashIdEENS_8equal_toIdEENS_9allocatorIdEEE8__rehashILb1EEEvm, symObjAddr: 0x64E8, symBinAddr: 0x10000A054, symSize: 0x1A8 }
  - { offsetInCU: 0x1682F, offset: 0x1682F, size: 0x8, addend: 0x0, symName: __ZNSt3__112__hash_tableIdNS_4hashIdEENS_8equal_toIdEENS_9allocatorIdEEE11__do_rehashILb1EEEvm, symObjAddr: 0x6690, symBinAddr: 0x10000A1FC, symSize: 0x288 }
  - { offsetInCU: 0x16912, offset: 0x16912, size: 0x8, addend: 0x0, symName: __ZNSt3__110unique_ptrIA_PNS_16__hash_node_baseIPNS_11__hash_nodeIdPvEEEENS_25__bucket_list_deallocatorINS_9allocatorIS7_EEEEE11get_deleterB8ue170006Ev, symObjAddr: 0x6984, symBinAddr: 0x10000A4F0, symSize: 0x24 }
  - { offsetInCU: 0x16938, offset: 0x16938, size: 0x8, addend: 0x0, symName: __ZNSt3__110unique_ptrIA_PNS_16__hash_node_baseIPNS_11__hash_nodeIdPvEEEENS_25__bucket_list_deallocatorINS_9allocatorIS7_EEEEE5resetB8ue170006IPS7_EENS_9enable_ifIXsr28_CheckArrayPointerConversionIT_EE5valueEvE4typeESH_, symObjAddr: 0x69A8, symBinAddr: 0x10000A514, symSize: 0x78 }
  - { offsetInCU: 0x16985, offset: 0x16985, size: 0x8, addend: 0x0, symName: __ZNSt3__116allocator_traitsINS_9allocatorIPNS_16__hash_node_baseIPNS_11__hash_nodeIdPvEEEEEEE8allocateB8ue170006ERS9_m, symObjAddr: 0x6A20, symBinAddr: 0x10000A58C, symSize: 0x2C }
  - { offsetInCU: 0x169B8, offset: 0x169B8, size: 0x8, addend: 0x0, symName: __ZNSt3__19allocatorIPNS_16__hash_node_baseIPNS_11__hash_nodeIdPvEEEEE8allocateB8ue170006Em, symObjAddr: 0x6A4C, symBinAddr: 0x10000A5B8, symSize: 0x84 }
  - { offsetInCU: 0x169F6, offset: 0x169F6, size: 0x8, addend: 0x0, symName: __ZNSt3__116allocator_traitsINS_9allocatorIPNS_16__hash_node_baseIPNS_11__hash_nodeIdPvEEEEEEE8max_sizeB8ue170006IS9_vEEmRKS9_, symObjAddr: 0x6AD0, symBinAddr: 0x10000A63C, symSize: 0x24 }
  - { offsetInCU: 0x16A24, offset: 0x16A24, size: 0x8, addend: 0x0, symName: __ZNKSt3__19allocatorIPNS_16__hash_node_baseIPNS_11__hash_nodeIdPvEEEEE8max_sizeB8ue170006Ev, symObjAddr: 0x6AF4, symBinAddr: 0x10000A660, symSize: 0x14 }
  - { offsetInCU: 0x16A4A, offset: 0x16A4A, size: 0x8, addend: 0x0, symName: __ZNSt3__122__compressed_pair_elemINS_16__hash_node_baseIPNS_11__hash_nodeIdPvEEEELi0ELb0EE5__getB8ue170006Ev, symObjAddr: 0x6B5C, symBinAddr: 0x10000A6C8, symSize: 0x14 }
  - { offsetInCU: 0x16A70, offset: 0x16A70, size: 0x8, addend: 0x0, symName: __ZNKSt3__117__compressed_pairIPNS_11__hash_nodeIdPvEENS_22__hash_node_destructorINS_9allocatorIS3_EEEEE5firstB8ue170006Ev, symObjAddr: 0x6B70, symBinAddr: 0x10000A6DC, symSize: 0x24 }
  - { offsetInCU: 0x16A96, offset: 0x16A96, size: 0x8, addend: 0x0, symName: __ZNKSt3__122__compressed_pair_elemIPNS_11__hash_nodeIdPvEELi0ELb0EE5__getB8ue170006Ev, symObjAddr: 0x6B94, symBinAddr: 0x10000A700, symSize: 0x14 }
  - { offsetInCU: 0x16ABC, offset: 0x16ABC, size: 0x8, addend: 0x0, symName: __ZNSt3__117__compressed_pairIPNS_11__hash_nodeIdPvEENS_22__hash_node_destructorINS_9allocatorIS3_EEEEE5firstB8ue170006Ev, symObjAddr: 0x6BA8, symBinAddr: 0x10000A714, symSize: 0x24 }
  - { offsetInCU: 0x16AE2, offset: 0x16AE2, size: 0x8, addend: 0x0, symName: __ZNSt3__122__compressed_pair_elemIPNS_11__hash_nodeIdPvEELi0ELb0EE5__getB8ue170006Ev, symObjAddr: 0x6BCC, symBinAddr: 0x10000A738, symSize: 0x14 }
  - { offsetInCU: 0x16B08, offset: 0x16B08, size: 0x8, addend: 0x0, symName: __ZNSt3__110unique_ptrINS_11__hash_nodeIdPvEENS_22__hash_node_destructorINS_9allocatorIS3_EEEEED2B8ue170006Ev, symObjAddr: 0x6BE0, symBinAddr: 0x10000A74C, symSize: 0x30 }
  - { offsetInCU: 0x16B32, offset: 0x16B32, size: 0x8, addend: 0x0, symName: __ZNSt3__110unique_ptrINS_11__hash_nodeIdPvEENS_22__hash_node_destructorINS_9allocatorIS3_EEEEE5resetB8ue170006EPS3_, symObjAddr: 0x6C10, symBinAddr: 0x10000A77C, symSize: 0x78 }
  - { offsetInCU: 0x16B76, offset: 0x16B76, size: 0x8, addend: 0x0, symName: __ZNSt3__122__hash_node_destructorINS_9allocatorINS_11__hash_nodeIdPvEEEEEclB8ue170006EPS4_, symObjAddr: 0x6C88, symBinAddr: 0x10000A7F4, symSize: 0xA4 }
  - { offsetInCU: 0x16BAB, offset: 0x16BAB, size: 0x8, addend: 0x0, symName: __ZNSt3__116allocator_traitsINS_9allocatorINS_11__hash_nodeIdPvEEEEE7destroyB8ue170006IdvvEEvRS5_PT_, symObjAddr: 0x6D2C, symBinAddr: 0x10000A898, symSize: 0x14 }
  - { offsetInCU: 0x16BE5, offset: 0x16BE5, size: 0x8, addend: 0x0, symName: __ZNSt3__116allocator_traitsINS_9allocatorINS_11__hash_nodeIdPvEEEEE10deallocateB8ue170006ERS5_PS4_m, symObjAddr: 0x6D40, symBinAddr: 0x10000A8AC, symSize: 0x34 }
  - { offsetInCU: 0x16C27, offset: 0x16C27, size: 0x8, addend: 0x0, symName: __ZNSt3__19allocatorINS_11__hash_nodeIdPvEEE10deallocateB8ue170006EPS3_m, symObjAddr: 0x6D74, symBinAddr: 0x10000A8E0, symSize: 0x74 }
  - { offsetInCU: 0x16C69, offset: 0x16C69, size: 0x8, addend: 0x0, symName: __ZNSt3__14pairINS_15__hash_iteratorIPNS_11__hash_nodeIdPvEEEEbEC2B8ue170006ERKS6_RKb, symObjAddr: 0x6DE8, symBinAddr: 0x10000A954, symSize: 0x38 }
  - { offsetInCU: 0x16CAF, offset: 0x16CAF, size: 0x8, addend: 0x0, symName: __ZNSt3__14pairINS_21__hash_const_iteratorIPNS_11__hash_nodeIdPvEEEEbEC2B8ue170006INS_15__hash_iteratorIS5_EEbEERKNS0_IT_T0_EE, symObjAddr: 0x6E20, symBinAddr: 0x10000A98C, symSize: 0x44 }
  - { offsetInCU: 0x16CF9, offset: 0x16CF9, size: 0x8, addend: 0x0, symName: __ZNSt3__112__hash_tableIdNS_4hashIdEENS_8equal_toIdEENS_9allocatorIdEEE5beginEv, symObjAddr: 0x6E64, symBinAddr: 0x10000A9D0, symSize: 0x38 }
  - { offsetInCU: 0x16D20, offset: 0x16D20, size: 0x8, addend: 0x0, symName: __Z3absB8ue170006x, symObjAddr: 0x6E9C, symBinAddr: 0x10000AA08, symSize: 0x28 }
  - { offsetInCU: 0x16D4D, offset: 0x16D4D, size: 0x8, addend: 0x0, symName: __ZNSt3__16vectorIdNS_9allocatorIdEEE9__end_capB8ue170006Ev, symObjAddr: 0x6EC4, symBinAddr: 0x10000AA30, symSize: 0x28 }
  - { offsetInCU: 0x16D73, offset: 0x16D73, size: 0x8, addend: 0x0, symName: __ZNSt3__16vectorIdNS_9allocatorIdEEE22__construct_one_at_endB8ue170006IJRKdEEEvDpOT_, symObjAddr: 0x6EEC, symBinAddr: 0x10000AA58, symSize: 0x98 }
  - { offsetInCU: 0x16DC2, offset: 0x16DC2, size: 0x8, addend: 0x0, symName: __ZNSt3__16vectorIdNS_9allocatorIdEEE21__push_back_slow_pathIRKdEEvOT_, symObjAddr: 0x6F84, symBinAddr: 0x10000AAF0, symSize: 0xE0 }
  - { offsetInCU: 0x16E20, offset: 0x16E20, size: 0x8, addend: 0x0, symName: __ZNSt3__117__compressed_pairIPdNS_9allocatorIdEEE5firstB8ue170006Ev, symObjAddr: 0x7064, symBinAddr: 0x10000ABD0, symSize: 0x24 }
  - { offsetInCU: 0x16E46, offset: 0x16E46, size: 0x8, addend: 0x0, symName: __ZNSt3__122__compressed_pair_elemIPdLi0ELb0EE5__getB8ue170006Ev, symObjAddr: 0x7088, symBinAddr: 0x10000ABF4, symSize: 0x14 }
  - { offsetInCU: 0x16E85, offset: 0x16E85, size: 0x8, addend: 0x0, symName: __ZNSt3__16vectorIdNS_9allocatorIdEEE21_ConstructTransactionC1B8ue170006ERS3_m, symObjAddr: 0x709C, symBinAddr: 0x10000AC08, symSize: 0x3C }
  - { offsetInCU: 0x16ECD, offset: 0x16ECD, size: 0x8, addend: 0x0, symName: __ZNSt3__116allocator_traitsINS_9allocatorIdEEE9constructB8ue170006IdJRKdEvEEvRS2_PT_DpOT0_, symObjAddr: 0x70D8, symBinAddr: 0x10000AC44, symSize: 0x34 }
  - { offsetInCU: 0x16F24, offset: 0x16F24, size: 0x8, addend: 0x0, symName: __ZNSt3__16vectorIdNS_9allocatorIdEEE7__allocB8ue170006Ev, symObjAddr: 0x710C, symBinAddr: 0x10000AC78, symSize: 0x28 }
  - { offsetInCU: 0x16F4A, offset: 0x16F4A, size: 0x8, addend: 0x0, symName: __ZNSt3__16vectorIdNS_9allocatorIdEEE21_ConstructTransactionD1B8ue170006Ev, symObjAddr: 0x7148, symBinAddr: 0x10000ACB4, symSize: 0x2C }
  - { offsetInCU: 0x16F74, offset: 0x16F74, size: 0x8, addend: 0x0, symName: __ZNSt3__16vectorIdNS_9allocatorIdEEE21_ConstructTransactionC2B8ue170006ERS3_m, symObjAddr: 0x7174, symBinAddr: 0x10000ACE0, symSize: 0x44 }
  - { offsetInCU: 0x16FBC, offset: 0x16FBC, size: 0x8, addend: 0x0, symName: __ZNSt3__19allocatorIdE9constructB8ue170006IdJRKdEEEvPT_DpOT0_, symObjAddr: 0x71B8, symBinAddr: 0x10000AD24, symSize: 0x28 }
  - { offsetInCU: 0x17012, offset: 0x17012, size: 0x8, addend: 0x0, symName: __ZNSt3__117__compressed_pairIPdNS_9allocatorIdEEE6secondB8ue170006Ev, symObjAddr: 0x71E0, symBinAddr: 0x10000AD4C, symSize: 0x24 }
  - { offsetInCU: 0x17038, offset: 0x17038, size: 0x8, addend: 0x0, symName: __ZNSt3__122__compressed_pair_elemINS_9allocatorIdEELi1ELb1EE5__getB8ue170006Ev, symObjAddr: 0x7204, symBinAddr: 0x10000AD70, symSize: 0x14 }
  - { offsetInCU: 0x1705E, offset: 0x1705E, size: 0x8, addend: 0x0, symName: __ZNSt3__16vectorIdNS_9allocatorIdEEE21_ConstructTransactionD2B8ue170006Ev, symObjAddr: 0x7218, symBinAddr: 0x10000AD84, symSize: 0x20 }
  - { offsetInCU: 0x17088, offset: 0x17088, size: 0x8, addend: 0x0, symName: __ZNKSt3__16vectorIdNS_9allocatorIdEEE11__recommendB8ue170006Em, symObjAddr: 0x7238, symBinAddr: 0x10000ADA4, symSize: 0xB4 }
  - { offsetInCU: 0x170DD, offset: 0x170DD, size: 0x8, addend: 0x0, symName: __ZNSt3__114__split_bufferIdRNS_9allocatorIdEEEC1EmmS3_, symObjAddr: 0x72EC, symBinAddr: 0x10000AE58, symSize: 0x44 }
  - { offsetInCU: 0x17133, offset: 0x17133, size: 0x8, addend: 0x0, symName: __ZNSt3__114__split_bufferIdRNS_9allocatorIdEEED1Ev, symObjAddr: 0x7440, symBinAddr: 0x10000AFAC, symSize: 0x2C }
  - { offsetInCU: 0x1715F, offset: 0x1715F, size: 0x8, addend: 0x0, symName: __ZNKSt3__16vectorIdNS_9allocatorIdEEE8max_sizeEv, symObjAddr: 0x746C, symBinAddr: 0x10000AFD8, symSize: 0x74 }
  - { offsetInCU: 0x17187, offset: 0x17187, size: 0x8, addend: 0x0, symName: __ZNKSt3__16vectorIdNS_9allocatorIdEEE20__throw_length_errorB8ue170006Ev, symObjAddr: 0x74E0, symBinAddr: 0x10000B04C, symSize: 0x1C }
  - { offsetInCU: 0x171AD, offset: 0x171AD, size: 0x8, addend: 0x0, symName: __ZNKSt3__16vectorIdNS_9allocatorIdEEE8capacityB8ue170006Ev, symObjAddr: 0x74FC, symBinAddr: 0x10000B068, symSize: 0x40 }
  - { offsetInCU: 0x171DD, offset: 0x171DD, size: 0x8, addend: 0x0, symName: __ZNSt3__116allocator_traitsINS_9allocatorIdEEE8max_sizeB8ue170006IS2_vEEmRKS2_, symObjAddr: 0x753C, symBinAddr: 0x10000B0A8, symSize: 0x24 }
  - { offsetInCU: 0x1720B, offset: 0x1720B, size: 0x8, addend: 0x0, symName: __ZNKSt3__16vectorIdNS_9allocatorIdEEE7__allocB8ue170006Ev, symObjAddr: 0x7560, symBinAddr: 0x10000B0CC, symSize: 0x28 }
  - { offsetInCU: 0x17231, offset: 0x17231, size: 0x8, addend: 0x0, symName: __ZNKSt3__19allocatorIdE8max_sizeB8ue170006Ev, symObjAddr: 0x7588, symBinAddr: 0x10000B0F4, symSize: 0x14 }
  - { offsetInCU: 0x17257, offset: 0x17257, size: 0x8, addend: 0x0, symName: __ZNKSt3__117__compressed_pairIPdNS_9allocatorIdEEE6secondB8ue170006Ev, symObjAddr: 0x759C, symBinAddr: 0x10000B108, symSize: 0x24 }
  - { offsetInCU: 0x1727D, offset: 0x1727D, size: 0x8, addend: 0x0, symName: __ZNKSt3__122__compressed_pair_elemINS_9allocatorIdEELi1ELb1EE5__getB8ue170006Ev, symObjAddr: 0x75C0, symBinAddr: 0x10000B12C, symSize: 0x14 }
  - { offsetInCU: 0x172A3, offset: 0x172A3, size: 0x8, addend: 0x0, symName: __ZNKSt3__16vectorIdNS_9allocatorIdEEE9__end_capB8ue170006Ev, symObjAddr: 0x75D4, symBinAddr: 0x10000B140, symSize: 0x28 }
  - { offsetInCU: 0x172C9, offset: 0x172C9, size: 0x8, addend: 0x0, symName: __ZNKSt3__117__compressed_pairIPdNS_9allocatorIdEEE5firstB8ue170006Ev, symObjAddr: 0x75FC, symBinAddr: 0x10000B168, symSize: 0x24 }
  - { offsetInCU: 0x172EF, offset: 0x172EF, size: 0x8, addend: 0x0, symName: __ZNKSt3__122__compressed_pair_elemIPdLi0ELb0EE5__getB8ue170006Ev, symObjAddr: 0x7620, symBinAddr: 0x10000B18C, symSize: 0x14 }
  - { offsetInCU: 0x17315, offset: 0x17315, size: 0x8, addend: 0x0, symName: __ZNSt3__114__split_bufferIdRNS_9allocatorIdEEEC2EmmS3_, symObjAddr: 0x7634, symBinAddr: 0x10000B1A0, symSize: 0xD4 }
  - { offsetInCU: 0x17388, offset: 0x17388, size: 0x8, addend: 0x0, symName: __ZNSt3__117__compressed_pairIPdRNS_9allocatorIdEEEC1B8ue170006IDnS4_EEOT_OT0_, symObjAddr: 0x7708, symBinAddr: 0x10000B274, symSize: 0x3C }
  - { offsetInCU: 0x173E0, offset: 0x173E0, size: 0x8, addend: 0x0, symName: __ZNSt3__114__split_bufferIdRNS_9allocatorIdEEE7__allocB8ue170006Ev, symObjAddr: 0x7784, symBinAddr: 0x10000B2F0, symSize: 0x28 }
  - { offsetInCU: 0x17406, offset: 0x17406, size: 0x8, addend: 0x0, symName: __ZNSt3__114__split_bufferIdRNS_9allocatorIdEEE9__end_capB8ue170006Ev, symObjAddr: 0x77AC, symBinAddr: 0x10000B318, symSize: 0x28 }
  - { offsetInCU: 0x1742C, offset: 0x1742C, size: 0x8, addend: 0x0, symName: __ZNSt3__117__compressed_pairIPdRNS_9allocatorIdEEEC2B8ue170006IDnS4_EEOT_OT0_, symObjAddr: 0x77D4, symBinAddr: 0x10000B340, symSize: 0x48 }
  - { offsetInCU: 0x17484, offset: 0x17484, size: 0x8, addend: 0x0, symName: __ZNSt3__122__compressed_pair_elemIPdLi0ELb0EEC2B8ue170006IDnvEEOT_, symObjAddr: 0x781C, symBinAddr: 0x10000B388, symSize: 0x1C }
  - { offsetInCU: 0x174C6, offset: 0x174C6, size: 0x8, addend: 0x0, symName: __ZNSt3__122__compressed_pair_elemIRNS_9allocatorIdEELi1ELb0EEC2B8ue170006IS3_vEEOT_, symObjAddr: 0x7838, symBinAddr: 0x10000B3A4, symSize: 0x20 }
  - { offsetInCU: 0x17508, offset: 0x17508, size: 0x8, addend: 0x0, symName: __ZNSt3__19allocatorIdE8allocateB8ue170006Em, symObjAddr: 0x7858, symBinAddr: 0x10000B3C4, symSize: 0x84 }
  - { offsetInCU: 0x1753C, offset: 0x1753C, size: 0x8, addend: 0x0, symName: __ZNSt3__117__compressed_pairIPdRNS_9allocatorIdEEE6secondB8ue170006Ev, symObjAddr: 0x78DC, symBinAddr: 0x10000B448, symSize: 0x28 }
  - { offsetInCU: 0x17562, offset: 0x17562, size: 0x8, addend: 0x0, symName: __ZNSt3__122__compressed_pair_elemIRNS_9allocatorIdEELi1ELb0EE5__getB8ue170006Ev, symObjAddr: 0x7904, symBinAddr: 0x10000B470, symSize: 0x18 }
  - { offsetInCU: 0x17588, offset: 0x17588, size: 0x8, addend: 0x0, symName: __ZNSt3__117__compressed_pairIPdRNS_9allocatorIdEEE5firstB8ue170006Ev, symObjAddr: 0x791C, symBinAddr: 0x10000B488, symSize: 0x24 }
  - { offsetInCU: 0x175AE, offset: 0x175AE, size: 0x8, addend: 0x0, symName: __ZNKSt3__16vectorIdNS_9allocatorIdEEE17__annotate_deleteB8ue170006Ev, symObjAddr: 0x7940, symBinAddr: 0x10000B4AC, symSize: 0xB8 }
  - { offsetInCU: 0x175D4, offset: 0x175D4, size: 0x8, addend: 0x0, symName: __ZNSt3__116reverse_iteratorIPdEC1B8ue170006ES1_, symObjAddr: 0x7AE0, symBinAddr: 0x10000B64C, symSize: 0x34 }
  - { offsetInCU: 0x1760C, offset: 0x1760C, size: 0x8, addend: 0x0, symName: __ZNKSt3__116reverse_iteratorIPdE4baseB8ue170006Ev, symObjAddr: 0x7B14, symBinAddr: 0x10000B680, symSize: 0x18 }
  - { offsetInCU: 0x17632, offset: 0x17632, size: 0x8, addend: 0x0, symName: __ZNKSt3__16vectorIdNS_9allocatorIdEEE14__annotate_newB8ue170006Em, symObjAddr: 0x7B68, symBinAddr: 0x10000B6D4, symSize: 0xAC }
  - { offsetInCU: 0x17667, offset: 0x17667, size: 0x8, addend: 0x0, symName: __ZNKSt3__16vectorIdNS_9allocatorIdEEE31__annotate_contiguous_containerB8ue170006EPKvS5_S5_S5_, symObjAddr: 0x7C14, symBinAddr: 0x10000B780, symSize: 0x20 }
  - { offsetInCU: 0x176B9, offset: 0x176B9, size: 0x8, addend: 0x0, symName: __ZNKSt3__16vectorIdNS_9allocatorIdEEE4dataB8ue170006Ev, symObjAddr: 0x7C34, symBinAddr: 0x10000B7A0, symSize: 0x28 }
  - { offsetInCU: 0x176DF, offset: 0x176DF, size: 0x8, addend: 0x0, symName: __ZNKSt3__116reverse_iteratorIPdEdeB8ue170006Ev, symObjAddr: 0x7CF4, symBinAddr: 0x10000B860, symSize: 0x28 }
  - { offsetInCU: 0x17713, offset: 0x17713, size: 0x8, addend: 0x0, symName: __ZNSt3__116reverse_iteratorIPdEppB8ue170006Ev, symObjAddr: 0x7D1C, symBinAddr: 0x10000B888, symSize: 0x20 }
  - { offsetInCU: 0x1773E, offset: 0x1773E, size: 0x8, addend: 0x0, symName: __ZNSt3__119__to_address_helperINS_16reverse_iteratorIPdEEvE6__callB8ue170006ERKS3_, symObjAddr: 0x7DB4, symBinAddr: 0x10000B920, symSize: 0x4C }
  - { offsetInCU: 0x17761, offset: 0x17761, size: 0x8, addend: 0x0, symName: __ZNKSt3__116reverse_iteratorIPdEptB8ue170006Ev, symObjAddr: 0x7E00, symBinAddr: 0x10000B96C, symSize: 0x24 }
  - { offsetInCU: 0x177AA, offset: 0x177AA, size: 0x8, addend: 0x0, symName: __ZNKSt3__111__move_loopINS_17_ClassicAlgPolicyEEclB8ue170006INS_16reverse_iteratorIPdEES6_S6_EENS_4pairIT_T1_EES8_T0_S9_, symObjAddr: 0x809C, symBinAddr: 0x10000BC08, symSize: 0xA0 }
  - { offsetInCU: 0x1781A, offset: 0x1781A, size: 0x8, addend: 0x0, symName: __ZNSt3__18_IterOpsINS_17_ClassicAlgPolicyEE11__iter_moveB8ue170006IRNS_16reverse_iteratorIPdEEEENS_9enable_ifIXsr12is_referenceIDTdeclsr3stdE7declvalIRT_EEEEE5valueEDTclsr3stdE4movedeclsr3stdE7declvalISA_EEEEE4typeEOS9_, symObjAddr: 0x829C, symBinAddr: 0x10000BE08, symSize: 0x28 }
  - { offsetInCU: 0x17846, offset: 0x17846, size: 0x8, addend: 0x0, symName: __ZNSt3__18_IterOpsINS_17_ClassicAlgPolicyEE25__validate_iter_referenceB8ue170006IRNS_16reverse_iteratorIPdEEEEvv, symObjAddr: 0x82C4, symBinAddr: 0x10000BE30, symSize: 0x4 }
  - { offsetInCU: 0x17864, offset: 0x17864, size: 0x8, addend: 0x0, symName: __ZNSt3__118__unwrap_iter_implINS_16reverse_iteratorIPdEELb0EE8__unwrapB8ue170006ES3_, symObjAddr: 0x82C8, symBinAddr: 0x10000BE34, symSize: 0x24 }
  - { offsetInCU: 0x17887, offset: 0x17887, size: 0x8, addend: 0x0, symName: __ZNSt3__14pairINS_16reverse_iteratorIPdEES3_EC1B8ue170006ERKS3_S6_, symObjAddr: 0x82EC, symBinAddr: 0x10000BE58, symSize: 0x3C }
  - { offsetInCU: 0x178CD, offset: 0x178CD, size: 0x8, addend: 0x0, symName: __ZNSt3__14pairINS_16reverse_iteratorIPdEES3_EC2B8ue170006ERKS3_S6_, symObjAddr: 0x8328, symBinAddr: 0x10000BE94, symSize: 0x34 }
  - { offsetInCU: 0x17913, offset: 0x17913, size: 0x8, addend: 0x0, symName: __ZNSt3__118__unwrap_iter_implINS_16reverse_iteratorIPdEELb0EE8__rewrapB8ue170006ES3_S3_, symObjAddr: 0x835C, symBinAddr: 0x10000BEC8, symSize: 0x2C }
  - { offsetInCU: 0x17941, offset: 0x17941, size: 0x8, addend: 0x0, symName: __ZNSt3__116reverse_iteratorIPdEC2B8ue170006ES1_, symObjAddr: 0x8388, symBinAddr: 0x10000BEF4, symSize: 0x28 }
  - { offsetInCU: 0x17979, offset: 0x17979, size: 0x8, addend: 0x0, symName: __ZNSt3__114__split_bufferIdRNS_9allocatorIdEEED2Ev, symObjAddr: 0x83B0, symBinAddr: 0x10000BF1C, symSize: 0x80 }
  - { offsetInCU: 0x179A5, offset: 0x179A5, size: 0x8, addend: 0x0, symName: __ZNSt3__114__split_bufferIdRNS_9allocatorIdEEE5clearB8ue170006Ev, symObjAddr: 0x8430, symBinAddr: 0x10000BF9C, symSize: 0x28 }
  - { offsetInCU: 0x179CB, offset: 0x179CB, size: 0x8, addend: 0x0, symName: __ZNSt3__116allocator_traitsINS_9allocatorIdEEE10deallocateB8ue170006ERS2_Pdm, symObjAddr: 0x8458, symBinAddr: 0x10000BFC4, symSize: 0x34 }
  - { offsetInCU: 0x17A0D, offset: 0x17A0D, size: 0x8, addend: 0x0, symName: __ZNKSt3__114__split_bufferIdRNS_9allocatorIdEEE8capacityB8ue170006Ev, symObjAddr: 0x848C, symBinAddr: 0x10000BFF8, symSize: 0x40 }
  - { offsetInCU: 0x17A33, offset: 0x17A33, size: 0x8, addend: 0x0, symName: __ZNSt3__114__split_bufferIdRNS_9allocatorIdEEE17__destruct_at_endB8ue170006EPd, symObjAddr: 0x84CC, symBinAddr: 0x10000C038, symSize: 0x2C }
  - { offsetInCU: 0x17A67, offset: 0x17A67, size: 0x8, addend: 0x0, symName: __ZNSt3__114__split_bufferIdRNS_9allocatorIdEEE17__destruct_at_endB8ue170006EPdNS_17integral_constantIbLb0EEE, symObjAddr: 0x84F8, symBinAddr: 0x10000C064, symSize: 0x94 }
  - { offsetInCU: 0x17AA8, offset: 0x17AA8, size: 0x8, addend: 0x0, symName: __ZNSt3__116allocator_traitsINS_9allocatorIdEEE7destroyB8ue170006IdvEEvRS2_PT_, symObjAddr: 0x858C, symBinAddr: 0x10000C0F8, symSize: 0x2C }
  - { offsetInCU: 0x17AE5, offset: 0x17AE5, size: 0x8, addend: 0x0, symName: __ZNSt3__19allocatorIdE7destroyB8ue170006EPd, symObjAddr: 0x85B8, symBinAddr: 0x10000C124, symSize: 0x14 }
  - { offsetInCU: 0x17B19, offset: 0x17B19, size: 0x8, addend: 0x0, symName: __ZNSt3__19allocatorIdE10deallocateB8ue170006EPdm, symObjAddr: 0x85CC, symBinAddr: 0x10000C138, symSize: 0x70 }
  - { offsetInCU: 0x17B5B, offset: 0x17B5B, size: 0x8, addend: 0x0, symName: __ZNKSt3__114__split_bufferIdRNS_9allocatorIdEEE9__end_capB8ue170006Ev, symObjAddr: 0x863C, symBinAddr: 0x10000C1A8, symSize: 0x28 }
  - { offsetInCU: 0x17B81, offset: 0x17B81, size: 0x8, addend: 0x0, symName: __ZNKSt3__117__compressed_pairIPdRNS_9allocatorIdEEE5firstB8ue170006Ev, symObjAddr: 0x8664, symBinAddr: 0x10000C1D0, symSize: 0x24 }
  - { offsetInCU: 0x17BA7, offset: 0x17BA7, size: 0x8, addend: 0x0, symName: __ZNSt3__16vectorIdNS_9allocatorIdEEEC2EmRKd, symObjAddr: 0x8688, symBinAddr: 0x10000C1F4, symSize: 0xE4 }
  - { offsetInCU: 0x17C06, offset: 0x17C06, size: 0x8, addend: 0x0, symName: __ZNSt3__117__compressed_pairIPdNS_9allocatorIdEEEC1B8ue170006IDnNS_18__default_init_tagEEEOT_OT0_, symObjAddr: 0x876C, symBinAddr: 0x10000C2D8, symSize: 0x3C }
  - { offsetInCU: 0x17C5E, offset: 0x17C5E, size: 0x8, addend: 0x0, symName: __ZNSt3__16vectorIdNS_9allocatorIdEEE16__destroy_vectorC1B8ue170006ERS3_, symObjAddr: 0x87E8, symBinAddr: 0x10000C354, symSize: 0x34 }
  - { offsetInCU: 0x17C97, offset: 0x17C97, size: 0x8, addend: 0x0, symName: __ZNSt3__16vectorIdNS_9allocatorIdEEE11__vallocateB8ue170006Em, symObjAddr: 0x881C, symBinAddr: 0x10000C388, symSize: 0xAC }
  - { offsetInCU: 0x17CDB, offset: 0x17CDB, size: 0x8, addend: 0x0, symName: __ZNSt3__16vectorIdNS_9allocatorIdEEE18__construct_at_endEmRKd, symObjAddr: 0x88C8, symBinAddr: 0x10000C434, symSize: 0xD8 }
  - { offsetInCU: 0x17D5C, offset: 0x17D5C, size: 0x8, addend: 0x0, symName: __ZNSt3__128__exception_guard_exceptionsINS_6vectorIdNS_9allocatorIdEEE16__destroy_vectorEE10__completeB8ue170006Ev, symObjAddr: 0x89A0, symBinAddr: 0x10000C50C, symSize: 0x1C }
  - { offsetInCU: 0x17D82, offset: 0x17D82, size: 0x8, addend: 0x0, symName: __ZNSt3__128__exception_guard_exceptionsINS_6vectorIdNS_9allocatorIdEEE16__destroy_vectorEED1B8ue170006Ev, symObjAddr: 0x89BC, symBinAddr: 0x10000C528, symSize: 0x2C }
  - { offsetInCU: 0x17DAC, offset: 0x17DAC, size: 0x8, addend: 0x0, symName: __ZNSt3__117__compressed_pairIPdNS_9allocatorIdEEEC2B8ue170006IDnNS_18__default_init_tagEEEOT_OT0_, symObjAddr: 0x89E8, symBinAddr: 0x10000C554, symSize: 0x40 }
  - { offsetInCU: 0x17E04, offset: 0x17E04, size: 0x8, addend: 0x0, symName: __ZNSt3__122__compressed_pair_elemINS_9allocatorIdEELi1ELb1EEC2B8ue170006ENS_18__default_init_tagE, symObjAddr: 0x8A28, symBinAddr: 0x10000C594, symSize: 0x2C }
  - { offsetInCU: 0x17E39, offset: 0x17E39, size: 0x8, addend: 0x0, symName: __ZNSt3__19allocatorIdEC2B8ue170006Ev, symObjAddr: 0x8A54, symBinAddr: 0x10000C5C0, symSize: 0x2C }
  - { offsetInCU: 0x17E63, offset: 0x17E63, size: 0x8, addend: 0x0, symName: __ZNSt3__116__non_trivial_ifILb1ENS_9allocatorIdEEEC2B8ue170006Ev, symObjAddr: 0x8A80, symBinAddr: 0x10000C5EC, symSize: 0x14 }
  - { offsetInCU: 0x17E8D, offset: 0x17E8D, size: 0x8, addend: 0x0, symName: __ZNSt3__128__exception_guard_exceptionsINS_6vectorIdNS_9allocatorIdEEE16__destroy_vectorEEC1B8ue170006ES5_, symObjAddr: 0x8A94, symBinAddr: 0x10000C600, symSize: 0x34 }
  - { offsetInCU: 0x17EC5, offset: 0x17EC5, size: 0x8, addend: 0x0, symName: __ZNSt3__128__exception_guard_exceptionsINS_6vectorIdNS_9allocatorIdEEE16__destroy_vectorEEC2B8ue170006ES5_, symObjAddr: 0x8AC8, symBinAddr: 0x10000C634, symSize: 0x24 }
  - { offsetInCU: 0x17EFD, offset: 0x17EFD, size: 0x8, addend: 0x0, symName: __ZNSt3__16vectorIdNS_9allocatorIdEEE16__destroy_vectorC2B8ue170006ERS3_, symObjAddr: 0x8AEC, symBinAddr: 0x10000C658, symSize: 0x20 }
  - { offsetInCU: 0x17F36, offset: 0x17F36, size: 0x8, addend: 0x0, symName: __ZNSt3__128__exception_guard_exceptionsINS_6vectorIdNS_9allocatorIdEEE16__destroy_vectorEED2B8ue170006Ev, symObjAddr: 0x8B0C, symBinAddr: 0x10000C678, symSize: 0x48 }
  - { offsetInCU: 0x17F60, offset: 0x17F60, size: 0x8, addend: 0x0, symName: __ZNSt3__16vectorIdNS_9allocatorIdEEE16__destroy_vectorclB8ue170006Ev, symObjAddr: 0x8B54, symBinAddr: 0x10000C6C0, symSize: 0x90 }
  - { offsetInCU: 0x17F86, offset: 0x17F86, size: 0x8, addend: 0x0, symName: __ZNSt3__16vectorIdNS_9allocatorIdEEE7__clearB8ue170006Ev, symObjAddr: 0x8BE4, symBinAddr: 0x10000C750, symSize: 0x28 }
  - { offsetInCU: 0x17FAC, offset: 0x17FAC, size: 0x8, addend: 0x0, symName: __ZNSt3__16vectorIdNS_9allocatorIdEEE22__base_destruct_at_endB8ue170006EPd, symObjAddr: 0x8C0C, symBinAddr: 0x10000C778, symSize: 0xA0 }
  - { offsetInCU: 0x17FF0, offset: 0x17FF0, size: 0x8, addend: 0x0, symName: __ZNSt3__16vectorIdNS_9allocatorIdEEE13__move_assignERS3_NS_17integral_constantIbLb1EEE, symObjAddr: 0x8CAC, symBinAddr: 0x10000C818, symSize: 0x94 }
  - { offsetInCU: 0x18032, offset: 0x18032, size: 0x8, addend: 0x0, symName: __ZNSt3__16vectorIdNS_9allocatorIdEEE13__vdeallocateEv, symObjAddr: 0x8D40, symBinAddr: 0x10000C8AC, symSize: 0x94 }
  - { offsetInCU: 0x1805A, offset: 0x1805A, size: 0x8, addend: 0x0, symName: __ZNSt3__16vectorIdNS_9allocatorIdEEE19__move_assign_allocB8ue170006ERS3_, symObjAddr: 0x8DD4, symBinAddr: 0x10000C940, symSize: 0x2C }
  - { offsetInCU: 0x1808F, offset: 0x1808F, size: 0x8, addend: 0x0, symName: __ZNSt3__16vectorIdNS_9allocatorIdEEE5clearB8ue170006Ev, symObjAddr: 0x8E00, symBinAddr: 0x10000C96C, symSize: 0x44 }
  - { offsetInCU: 0x180C4, offset: 0x180C4, size: 0x8, addend: 0x0, symName: __ZNKSt3__16vectorIdNS_9allocatorIdEEE17__annotate_shrinkB8ue170006Em, symObjAddr: 0x8E44, symBinAddr: 0x10000C9B0, symSize: 0xB4 }
  - { offsetInCU: 0x180F9, offset: 0x180F9, size: 0x8, addend: 0x0, symName: __ZNSt3__16vectorIdNS_9allocatorIdEEE19__move_assign_allocB8ue170006ERS3_NS_17integral_constantIbLb1EEE, symObjAddr: 0x8EF8, symBinAddr: 0x10000CA64, symSize: 0x38 }
  - { offsetInCU: 0x18139, offset: 0x18139, size: 0x8, addend: 0x0, symName: __ZNSt3__16vectorIdNS_9allocatorIdEEE8__appendEm, symObjAddr: 0x8F30, symBinAddr: 0x10000CA9C, symSize: 0x110 }
  - { offsetInCU: 0x18194, offset: 0x18194, size: 0x8, addend: 0x0, symName: __ZNSt3__16vectorIdNS_9allocatorIdEEE17__destruct_at_endB8ue170006EPd, symObjAddr: 0x9040, symBinAddr: 0x10000CBAC, symSize: 0x4C }
  - { offsetInCU: 0x181D8, offset: 0x181D8, size: 0x8, addend: 0x0, symName: __ZNSt3__16vectorIdNS_9allocatorIdEEE18__construct_at_endEm, symObjAddr: 0x908C, symBinAddr: 0x10000CBF8, symSize: 0xD0 }
  - { offsetInCU: 0x1824A, offset: 0x1824A, size: 0x8, addend: 0x0, symName: __ZNSt3__114__split_bufferIdRNS_9allocatorIdEEE18__construct_at_endEm, symObjAddr: 0x915C, symBinAddr: 0x10000CCC8, symSize: 0xBC }
  - { offsetInCU: 0x1828F, offset: 0x1828F, size: 0x8, addend: 0x0, symName: __ZNSt3__116allocator_traitsINS_9allocatorIdEEE9constructB8ue170006IdJEvEEvRS2_PT_DpOT0_, symObjAddr: 0x9218, symBinAddr: 0x10000CD84, symSize: 0x2C }
  - { offsetInCU: 0x182D1, offset: 0x182D1, size: 0x8, addend: 0x0, symName: __ZNSt3__19allocatorIdE9constructB8ue170006IdJEEEvPT_DpOT0_, symObjAddr: 0x9244, symBinAddr: 0x10000CDB0, symSize: 0x20 }
  - { offsetInCU: 0x1831D, offset: 0x1831D, size: 0x8, addend: 0x0, symName: __ZNSt3__114__split_bufferIdRNS_9allocatorIdEEE21_ConstructTransactionC1B8ue170006EPPdm, symObjAddr: 0x9264, symBinAddr: 0x10000CDD0, symSize: 0x3C }
  - { offsetInCU: 0x18363, offset: 0x18363, size: 0x8, addend: 0x0, symName: __ZNSt3__114__split_bufferIdRNS_9allocatorIdEEE21_ConstructTransactionD1B8ue170006Ev, symObjAddr: 0x92A0, symBinAddr: 0x10000CE0C, symSize: 0x2C }
  - { offsetInCU: 0x1838D, offset: 0x1838D, size: 0x8, addend: 0x0, symName: __ZNSt3__114__split_bufferIdRNS_9allocatorIdEEE21_ConstructTransactionC2B8ue170006EPPdm, symObjAddr: 0x92CC, symBinAddr: 0x10000CE38, symSize: 0x44 }
  - { offsetInCU: 0x183D3, offset: 0x183D3, size: 0x8, addend: 0x0, symName: __ZNSt3__114__split_bufferIdRNS_9allocatorIdEEE21_ConstructTransactionD2B8ue170006Ev, symObjAddr: 0x9310, symBinAddr: 0x10000CE7C, symSize: 0x20 }
  - { offsetInCU: 0x183FD, offset: 0x183FD, size: 0x8, addend: 0x0, symName: __ZNSt3__16vectorIbNS_9allocatorIbEEEC2EmRKb, symObjAddr: 0x9330, symBinAddr: 0x10000CE9C, symSize: 0x90 }
  - { offsetInCU: 0x18447, offset: 0x18447, size: 0x8, addend: 0x0, symName: __ZNSt3__117__compressed_pairImNS_9allocatorImEEEC1B8ue170006IiNS_18__default_init_tagEEEOT_OT0_, symObjAddr: 0x93C0, symBinAddr: 0x10000CF2C, symSize: 0x3C }
  - { offsetInCU: 0x1849F, offset: 0x1849F, size: 0x8, addend: 0x0, symName: __ZNSt3__16vectorIbNS_9allocatorIbEEE11__vallocateB8ue170006Em, symObjAddr: 0x93FC, symBinAddr: 0x10000CF68, symSize: 0x10C }
  - { offsetInCU: 0x18500, offset: 0x18500, size: 0x8, addend: 0x0, symName: __ZNSt3__16vectorIbNS_9allocatorIbEEE18__construct_at_endB8ue170006Emb, symObjAddr: 0x9508, symBinAddr: 0x10000D074, symSize: 0x108 }
  - { offsetInCU: 0x18555, offset: 0x18555, size: 0x8, addend: 0x0, symName: __ZNSt3__117__compressed_pairImNS_9allocatorImEEEC2B8ue170006IiNS_18__default_init_tagEEEOT_OT0_, symObjAddr: 0x9610, symBinAddr: 0x10000D17C, symSize: 0x40 }
  - { offsetInCU: 0x185AD, offset: 0x185AD, size: 0x8, addend: 0x0, symName: __ZNSt3__122__compressed_pair_elemINS_9allocatorImEELi1ELb1EEC2B8ue170006ENS_18__default_init_tagE, symObjAddr: 0x9650, symBinAddr: 0x10000D1BC, symSize: 0x2C }
  - { offsetInCU: 0x185E2, offset: 0x185E2, size: 0x8, addend: 0x0, symName: __ZNSt3__19allocatorImEC2B8ue170006Ev, symObjAddr: 0x967C, symBinAddr: 0x10000D1E8, symSize: 0x2C }
  - { offsetInCU: 0x1860C, offset: 0x1860C, size: 0x8, addend: 0x0, symName: __ZNSt3__116__non_trivial_ifILb1ENS_9allocatorImEEEC2B8ue170006Ev, symObjAddr: 0x96A8, symBinAddr: 0x10000D214, symSize: 0x14 }
  - { offsetInCU: 0x18636, offset: 0x18636, size: 0x8, addend: 0x0, symName: __ZNKSt3__16vectorIbNS_9allocatorIbEEE8max_sizeEv, symObjAddr: 0x96BC, symBinAddr: 0x10000D228, symSize: 0x7C }
  - { offsetInCU: 0x1867C, offset: 0x1867C, size: 0x8, addend: 0x0, symName: __ZNKSt3__16vectorIbNS_9allocatorIbEEE20__throw_length_errorB8ue170006Ev, symObjAddr: 0x9738, symBinAddr: 0x10000D2A4, symSize: 0x1C }
  - { offsetInCU: 0x186A2, offset: 0x186A2, size: 0x8, addend: 0x0, symName: __ZNSt3__16vectorIbNS_9allocatorIbEEE7__allocB8ue170006Ev, symObjAddr: 0x9794, symBinAddr: 0x10000D300, symSize: 0x28 }
  - { offsetInCU: 0x186C8, offset: 0x186C8, size: 0x8, addend: 0x0, symName: __ZNSt3__16vectorIbNS_9allocatorIbEEE26__external_cap_to_internalB8ue170006Em, symObjAddr: 0x97BC, symBinAddr: 0x10000D328, symSize: 0x24 }
  - { offsetInCU: 0x186EC, offset: 0x186EC, size: 0x8, addend: 0x0, symName: __ZNSt3__16vectorIbNS_9allocatorIbEEE5__capB8ue170006Ev, symObjAddr: 0x97E0, symBinAddr: 0x10000D34C, symSize: 0x28 }
  - { offsetInCU: 0x1871C, offset: 0x1871C, size: 0x8, addend: 0x0, symName: __ZNSt3__116allocator_traitsINS_9allocatorImEEE8max_sizeB8ue170006IS2_vEEmRKS2_, symObjAddr: 0x983C, symBinAddr: 0x10000D3A8, symSize: 0x24 }
  - { offsetInCU: 0x1874A, offset: 0x1874A, size: 0x8, addend: 0x0, symName: __ZNKSt3__16vectorIbNS_9allocatorIbEEE7__allocB8ue170006Ev, symObjAddr: 0x9860, symBinAddr: 0x10000D3CC, symSize: 0x28 }
  - { offsetInCU: 0x18770, offset: 0x18770, size: 0x8, addend: 0x0, symName: __ZNSt3__114numeric_limitsImE3maxB8ue170006Ev, symObjAddr: 0x9888, symBinAddr: 0x10000D3F4, symSize: 0x14 }
  - { offsetInCU: 0x18784, offset: 0x18784, size: 0x8, addend: 0x0, symName: __ZNSt3__16vectorIbNS_9allocatorIbEEE26__internal_cap_to_externalB8ue170006Em, symObjAddr: 0x989C, symBinAddr: 0x10000D408, symSize: 0x18 }
  - { offsetInCU: 0x187A8, offset: 0x187A8, size: 0x8, addend: 0x0, symName: __ZNKSt3__19allocatorImE8max_sizeB8ue170006Ev, symObjAddr: 0x98B4, symBinAddr: 0x10000D420, symSize: 0x14 }
  - { offsetInCU: 0x187CE, offset: 0x187CE, size: 0x8, addend: 0x0, symName: __ZNKSt3__117__compressed_pairImNS_9allocatorImEEE6secondB8ue170006Ev, symObjAddr: 0x98C8, symBinAddr: 0x10000D434, symSize: 0x24 }
  - { offsetInCU: 0x187F4, offset: 0x187F4, size: 0x8, addend: 0x0, symName: __ZNKSt3__122__compressed_pair_elemINS_9allocatorImEELi1ELb1EE5__getB8ue170006Ev, symObjAddr: 0x98EC, symBinAddr: 0x10000D458, symSize: 0x14 }
  - { offsetInCU: 0x1881A, offset: 0x1881A, size: 0x8, addend: 0x0, symName: __ZNSt3__123__libcpp_numeric_limitsImLb1EE3maxB8ue170006Ev, symObjAddr: 0x9900, symBinAddr: 0x10000D46C, symSize: 0x8 }
  - { offsetInCU: 0x1882E, offset: 0x1882E, size: 0x8, addend: 0x0, symName: __ZNSt3__19allocatorImE8allocateB8ue170006Em, symObjAddr: 0x9908, symBinAddr: 0x10000D474, symSize: 0x84 }
  - { offsetInCU: 0x18862, offset: 0x18862, size: 0x8, addend: 0x0, symName: __ZNSt3__117__compressed_pairImNS_9allocatorImEEE6secondB8ue170006Ev, symObjAddr: 0x998C, symBinAddr: 0x10000D4F8, symSize: 0x24 }
  - { offsetInCU: 0x18888, offset: 0x18888, size: 0x8, addend: 0x0, symName: __ZNSt3__122__compressed_pair_elemINS_9allocatorImEELi1ELb1EE5__getB8ue170006Ev, symObjAddr: 0x99B0, symBinAddr: 0x10000D51C, symSize: 0x14 }
  - { offsetInCU: 0x188AE, offset: 0x188AE, size: 0x8, addend: 0x0, symName: __ZNSt3__117__compressed_pairImNS_9allocatorImEEE5firstB8ue170006Ev, symObjAddr: 0x99C4, symBinAddr: 0x10000D530, symSize: 0x24 }
  - { offsetInCU: 0x188D4, offset: 0x188D4, size: 0x8, addend: 0x0, symName: __ZNSt3__16vectorIbNS_9allocatorIbEEE11__make_iterB8ue170006Em, symObjAddr: 0x9A7C, symBinAddr: 0x10000D5E8, symSize: 0x64 }
  - { offsetInCU: 0x18909, offset: 0x18909, size: 0x8, addend: 0x0, symName: __ZNSt3__114__bit_iteratorINS_6vectorIbNS_9allocatorIbEEEELb0ELm0EEC1B8ue170006ERKS5_, symObjAddr: 0x9C40, symBinAddr: 0x10000D7AC, symSize: 0x34 }
  - { offsetInCU: 0x18942, offset: 0x18942, size: 0x8, addend: 0x0, symName: __ZNSt3__114__bit_iteratorINS_6vectorIbNS_9allocatorIbEEEELb0ELm0EEC2B8ue170006ERKS5_, symObjAddr: 0x9E8C, symBinAddr: 0x10000D9F8, symSize: 0x30 }
  - { offsetInCU: 0x1897B, offset: 0x1897B, size: 0x8, addend: 0x0, symName: __ZNSt3__114__bit_iteratorINS_6vectorIbNS_9allocatorIbEEEELb0ELm0EEC1B8ue170006EPmj, symObjAddr: 0x9F64, symBinAddr: 0x10000DAD0, symSize: 0x3C }
  - { offsetInCU: 0x189C3, offset: 0x189C3, size: 0x8, addend: 0x0, symName: __ZNSt3__114__bit_iteratorINS_6vectorIbNS_9allocatorIbEEEELb0ELm0EEC2B8ue170006EPmj, symObjAddr: 0x9FA0, symBinAddr: 0x10000DB0C, symSize: 0x2C }
  - { offsetInCU: 0x18A0B, offset: 0x18A0B, size: 0x8, addend: 0x0, symName: __ZNSt3__16vectorIbNS_9allocatorIbEEE10__make_refB8ue170006Em, symObjAddr: 0x9FCC, symBinAddr: 0x10000DB38, symSize: 0x60 }
  - { offsetInCU: 0x18A40, offset: 0x18A40, size: 0x8, addend: 0x0, symName: __ZNSt3__115__bit_referenceINS_6vectorIbNS_9allocatorIbEEEELb1EEC1B8ue170006EPmm, symObjAddr: 0xA02C, symBinAddr: 0x10000DB98, symSize: 0x3C }
  - { offsetInCU: 0x18A86, offset: 0x18A86, size: 0x8, addend: 0x0, symName: __ZNSt3__115__bit_referenceINS_6vectorIbNS_9allocatorIbEEEELb1EEC2B8ue170006EPmm, symObjAddr: 0xA068, symBinAddr: 0x10000DBD4, symSize: 0x2C }
  - { offsetInCU: 0x18ACC, offset: 0x18ACC, size: 0x8, addend: 0x0, symName: __ZNSt3__16vectorIbNS_9allocatorIbEEED2B8ue170006Ev, symObjAddr: 0xA094, symBinAddr: 0x10000DC00, symSize: 0x3C }
  - { offsetInCU: 0x18AF6, offset: 0x18AF6, size: 0x8, addend: 0x0, symName: __ZNSt3__16vectorIbNS_9allocatorIbEEE16__destroy_vectorC1B8ue170006ERS3_, symObjAddr: 0xA0D0, symBinAddr: 0x10000DC3C, symSize: 0x34 }
  - { offsetInCU: 0x18B2F, offset: 0x18B2F, size: 0x8, addend: 0x0, symName: __ZNSt3__16vectorIbNS_9allocatorIbEEE16__destroy_vectorclB8ue170006Ev, symObjAddr: 0xA104, symBinAddr: 0x10000DC70, symSize: 0x7C }
  - { offsetInCU: 0x18B55, offset: 0x18B55, size: 0x8, addend: 0x0, symName: __ZNSt3__16vectorIbNS_9allocatorIbEEE16__destroy_vectorC2B8ue170006ERS3_, symObjAddr: 0xA180, symBinAddr: 0x10000DCEC, symSize: 0x20 }
  - { offsetInCU: 0x18B8E, offset: 0x18B8E, size: 0x8, addend: 0x0, symName: __ZNSt3__116allocator_traitsINS_9allocatorImEEE10deallocateB8ue170006ERS2_Pmm, symObjAddr: 0xA1A0, symBinAddr: 0x10000DD0C, symSize: 0x34 }
  - { offsetInCU: 0x18BD0, offset: 0x18BD0, size: 0x8, addend: 0x0, symName: __ZNSt3__19allocatorImE10deallocateB8ue170006EPmm, symObjAddr: 0xA1D4, symBinAddr: 0x10000DD40, symSize: 0x70 }
  - { offsetInCU: 0x18C12, offset: 0x18C12, size: 0x8, addend: 0x0, symName: __ZNSt3__113unordered_setIdNS_4hashIdEENS_8equal_toIdEENS_9allocatorIdEEED2B8ue170006Ev, symObjAddr: 0xA244, symBinAddr: 0x10000DDB0, symSize: 0x2C }
  - { offsetInCU: 0x18C3C, offset: 0x18C3C, size: 0x8, addend: 0x0, symName: __ZNSt3__112__hash_tableIdNS_4hashIdEENS_8equal_toIdEENS_9allocatorIdEEED1Ev, symObjAddr: 0xA270, symBinAddr: 0x10000DDDC, symSize: 0x2C }
  - { offsetInCU: 0x18C68, offset: 0x18C68, size: 0x8, addend: 0x0, symName: __ZNSt3__112__hash_tableIdNS_4hashIdEENS_8equal_toIdEENS_9allocatorIdEEED2Ev, symObjAddr: 0xA29C, symBinAddr: 0x10000DE08, symSize: 0x48 }
  - { offsetInCU: 0x18C94, offset: 0x18C94, size: 0x8, addend: 0x0, symName: __ZNSt3__112__hash_tableIdNS_4hashIdEENS_8equal_toIdEENS_9allocatorIdEEE17__deallocate_nodeEPNS_16__hash_node_baseIPNS_11__hash_nodeIdPvEEEE, symObjAddr: 0xA2E4, symBinAddr: 0x10000DE50, symSize: 0x98 }
  - { offsetInCU: 0x18D06, offset: 0x18D06, size: 0x8, addend: 0x0, symName: __ZNSt3__16vectorIN16PerfectHashTable6BucketENS_9allocatorIS2_EEED2B8ue170006Ev, symObjAddr: 0xA37C, symBinAddr: 0x10000DEE8, symSize: 0x3C }
  - { offsetInCU: 0x18D30, offset: 0x18D30, size: 0x8, addend: 0x0, symName: __ZNSt3__16vectorINS0_IdNS_9allocatorIdEEEENS1_IS3_EEED2B8ue170006Ev, symObjAddr: 0xA3B8, symBinAddr: 0x10000DF24, symSize: 0x3C }
  - { offsetInCU: 0x18D5A, offset: 0x18D5A, size: 0x8, addend: 0x0, symName: __ZNKSt3__16vectorIN16PerfectHashTable6BucketENS_9allocatorIS2_EEEixB8ue170006Em, symObjAddr: 0xA3F4, symBinAddr: 0x10000DF60, symSize: 0x2C }
  - { offsetInCU: 0x18D91, offset: 0x18D91, size: 0x8, addend: 0x0, symName: __ZNKSt3__16vectorIdNS_9allocatorIdEEEixB8ue170006Em, symObjAddr: 0xA420, symBinAddr: 0x10000DF8C, symSize: 0x24 }
  - { offsetInCU: 0x18DC8, offset: 0x18DC8, size: 0x8, addend: 0x0, symName: __ZN16PerfectHashTableD2Ev, symObjAddr: 0xA444, symBinAddr: 0x10000DFB0, symSize: 0x68 }
  - { offsetInCU: 0x18DF2, offset: 0x18DF2, size: 0x8, addend: 0x0, symName: __ZNSt3__16vectorIdNS_9allocatorIdEEEC2B8ue170006Ev, symObjAddr: 0xA4AC, symBinAddr: 0x10000E018, symSize: 0x44 }
  - { offsetInCU: 0x18E1C, offset: 0x18E1C, size: 0x8, addend: 0x0, symName: __ZNSt3__16vectorIdNS_9allocatorIdEEED2B8ue170006Ev, symObjAddr: 0xA4F0, symBinAddr: 0x10000E05C, symSize: 0x3C }
  - { offsetInCU: 0x18E64, offset: 0x18E64, size: 0x8, addend: 0x0, symName: __ZNKSt3__113basic_ostreamIcNS_11char_traitsIcEEE6sentrycvbB8ue170006Ev, symObjAddr: 0xA720, symBinAddr: 0x10000E28C, symSize: 0x1C }
  - { offsetInCU: 0x18E8A, offset: 0x18E8A, size: 0x8, addend: 0x0, symName: __ZNSt3__119ostreambuf_iteratorIcNS_11char_traitsIcEEEC1B8ue170006ERNS_13basic_ostreamIcS2_EE, symObjAddr: 0xA984, symBinAddr: 0x10000E4F0, symSize: 0x34 }
  - { offsetInCU: 0x18EC2, offset: 0x18EC2, size: 0x8, addend: 0x0, symName: __ZNKSt3__18ios_base5flagsB8ue170006Ev, symObjAddr: 0xA9B8, symBinAddr: 0x10000E524, symSize: 0x18 }
  - { offsetInCU: 0x18EEA, offset: 0x18EEA, size: 0x8, addend: 0x0, symName: __ZNKSt3__19basic_iosIcNS_11char_traitsIcEEE4fillB8ue170006Ev, symObjAddr: 0xA9D0, symBinAddr: 0x10000E53C, symSize: 0x64 }
  - { offsetInCU: 0x18F12, offset: 0x18F12, size: 0x8, addend: 0x0, symName: __ZNKSt3__119ostreambuf_iteratorIcNS_11char_traitsIcEEE6failedB8ue170006Ev, symObjAddr: 0xAA34, symBinAddr: 0x10000E5A0, symSize: 0x24 }
  - { offsetInCU: 0x18F38, offset: 0x18F38, size: 0x8, addend: 0x0, symName: __ZNSt3__19basic_iosIcNS_11char_traitsIcEEE8setstateB8ue170006Ej, symObjAddr: 0xAA58, symBinAddr: 0x10000E5C4, symSize: 0x2C }
  - { offsetInCU: 0x18F6D, offset: 0x18F6D, size: 0x8, addend: 0x0, symName: __ZNKSt3__18ios_base5widthB8ue170006Ev, symObjAddr: 0xAA84, symBinAddr: 0x10000E5F0, symSize: 0x18 }
  - { offsetInCU: 0x18F95, offset: 0x18F95, size: 0x8, addend: 0x0, symName: __ZNSt3__115basic_streambufIcNS_11char_traitsIcEEE5sputnB8ue170006EPKcl, symObjAddr: 0xAA9C, symBinAddr: 0x10000E608, symSize: 0x3C }
  - { offsetInCU: 0x18FD7, offset: 0x18FD7, size: 0x8, addend: 0x0, symName: __ZNSt3__112basic_stringIcNS_11char_traitsIcEENS_9allocatorIcEEEC1B8ue170006Emc, symObjAddr: 0xAAD8, symBinAddr: 0x10000E644, symSize: 0x3C }
  - { offsetInCU: 0x1901F, offset: 0x1901F, size: 0x8, addend: 0x0, symName: __ZNKSt3__112basic_stringIcNS_11char_traitsIcEENS_9allocatorIcEEE4dataB8ue170006Ev, symObjAddr: 0xAB14, symBinAddr: 0x10000E680, symSize: 0x28 }
  - { offsetInCU: 0x19045, offset: 0x19045, size: 0x8, addend: 0x0, symName: __ZNSt3__18ios_base5widthB8ue170006El, symObjAddr: 0xAB3C, symBinAddr: 0x10000E6A8, symSize: 0x2C }
  - { offsetInCU: 0x1908B, offset: 0x1908B, size: 0x8, addend: 0x0, symName: __ZNSt3__112basic_stringIcNS_11char_traitsIcEENS_9allocatorIcEEEC2B8ue170006Emc, symObjAddr: 0xAB68, symBinAddr: 0x10000E6D4, symSize: 0x4C }
  - { offsetInCU: 0x190D3, offset: 0x190D3, size: 0x8, addend: 0x0, symName: __ZNKSt3__112basic_stringIcNS_11char_traitsIcEENS_9allocatorIcEEE13__get_pointerB8ue170006Ev, symObjAddr: 0xABC8, symBinAddr: 0x10000E734, symSize: 0x54 }
  - { offsetInCU: 0x190F9, offset: 0x190F9, size: 0x8, addend: 0x0, symName: __ZNKSt3__112basic_stringIcNS_11char_traitsIcEENS_9allocatorIcEEE9__is_longB8ue170006Ev, symObjAddr: 0xAC1C, symBinAddr: 0x10000E788, symSize: 0x74 }
  - { offsetInCU: 0x1911F, offset: 0x1911F, size: 0x8, addend: 0x0, symName: __ZNKSt3__112basic_stringIcNS_11char_traitsIcEENS_9allocatorIcEEE18__get_long_pointerB8ue170006Ev, symObjAddr: 0xAC90, symBinAddr: 0x10000E7FC, symSize: 0x28 }
  - { offsetInCU: 0x19145, offset: 0x19145, size: 0x8, addend: 0x0, symName: __ZNKSt3__112basic_stringIcNS_11char_traitsIcEENS_9allocatorIcEEE19__get_short_pointerB8ue170006Ev, symObjAddr: 0xACB8, symBinAddr: 0x10000E824, symSize: 0x28 }
  - { offsetInCU: 0x1916B, offset: 0x1916B, size: 0x8, addend: 0x0, symName: __ZNKSt3__117__compressed_pairINS_12basic_stringIcNS_11char_traitsIcEENS_9allocatorIcEEE5__repES5_E5firstB8ue170006Ev, symObjAddr: 0xACE0, symBinAddr: 0x10000E84C, symSize: 0x24 }
  - { offsetInCU: 0x19191, offset: 0x19191, size: 0x8, addend: 0x0, symName: __ZNKSt3__122__compressed_pair_elemINS_12basic_stringIcNS_11char_traitsIcEENS_9allocatorIcEEE5__repELi0ELb0EE5__getB8ue170006Ev, symObjAddr: 0xAD04, symBinAddr: 0x10000E870, symSize: 0x14 }
  - { offsetInCU: 0x191B7, offset: 0x191B7, size: 0x8, addend: 0x0, symName: __ZNSt3__114pointer_traitsIPKcE10pointer_toB8ue170006ERS1_, symObjAddr: 0xAD18, symBinAddr: 0x10000E884, symSize: 0x14 }
  - { offsetInCU: 0x191DA, offset: 0x191DA, size: 0x8, addend: 0x0, symName: __ZNSt3__119ostreambuf_iteratorIcNS_11char_traitsIcEEEC2B8ue170006ERNS_13basic_ostreamIcS2_EE, symObjAddr: 0xAD2C, symBinAddr: 0x10000E898, symSize: 0x68 }
  - { offsetInCU: 0x19212, offset: 0x19212, size: 0x8, addend: 0x0, symName: __ZNKSt3__19basic_iosIcNS_11char_traitsIcEEE5rdbufB8ue170006Ev, symObjAddr: 0xAD94, symBinAddr: 0x10000E900, symSize: 0x24 }
  - { offsetInCU: 0x1923A, offset: 0x1923A, size: 0x8, addend: 0x0, symName: __ZNKSt3__18ios_base5rdbufB8ue170006Ev, symObjAddr: 0xADB8, symBinAddr: 0x10000E924, symSize: 0x18 }
  - { offsetInCU: 0x19260, offset: 0x19260, size: 0x8, addend: 0x0, symName: __ZNSt3__111char_traitsIcE11eq_int_typeB8ue170006Eii, symObjAddr: 0xADD0, symBinAddr: 0x10000E93C, symSize: 0x28 }
  - { offsetInCU: 0x19293, offset: 0x19293, size: 0x8, addend: 0x0, symName: __ZNSt3__111char_traitsIcE3eofB8ue170006Ev, symObjAddr: 0xADF8, symBinAddr: 0x10000E964, symSize: 0x8 }
  - { offsetInCU: 0x192A7, offset: 0x192A7, size: 0x8, addend: 0x0, symName: __ZNKSt3__19basic_iosIcNS_11char_traitsIcEEE5widenB8ue170006Ec, symObjAddr: 0xAE00, symBinAddr: 0x10000E96C, symSize: 0x8C }
  - { offsetInCU: 0x19310, offset: 0x19310, size: 0x8, addend: 0x0, symName: __ZNKSt3__15ctypeIcE5widenB8ue170006Ec, symObjAddr: 0xAEB8, symBinAddr: 0x10000EA24, symSize: 0x38 }
  - { offsetInCU: 0x19345, offset: 0x19345, size: 0x8, addend: 0x0, symName: __ZNSt3__18ios_base8setstateB8ue170006Ej, symObjAddr: 0xAEF0, symBinAddr: 0x10000EA5C, symSize: 0x34 }
  - { offsetInCU: 0x1937C, offset: 0x1937C, size: 0x8, addend: 0x0, symName: __ZNSt3__16vectorIdNS_9allocatorIdEEE11__make_iterB8ue170006EPd, symObjAddr: 0xAF24, symBinAddr: 0x10000EA90, symSize: 0x30 }
  - { offsetInCU: 0x193B1, offset: 0x193B1, size: 0x8, addend: 0x0, symName: __ZNSt3__111__wrap_iterIPdEC1B8ue170006ES1_, symObjAddr: 0xAF54, symBinAddr: 0x10000EAC0, symSize: 0x34 }
  - { offsetInCU: 0x193E9, offset: 0x193E9, size: 0x8, addend: 0x0, symName: __ZNSt3__111__wrap_iterIPdEC2B8ue170006ES1_, symObjAddr: 0xAF88, symBinAddr: 0x10000EAF4, symSize: 0x20 }
  - { offsetInCU: 0x19421, offset: 0x19421, size: 0x8, addend: 0x0, symName: __ZNKSt3__111__wrap_iterIPdE4baseB8ue170006Ev, symObjAddr: 0xAFF0, symBinAddr: 0x10000EB5C, symSize: 0x18 }
  - { offsetInCU: 0x19447, offset: 0x19447, size: 0x8, addend: 0x0, symName: __ZNSt3__16vectorIdNS_9allocatorIdEEE22__construct_one_at_endB8ue170006IJdEEEvDpOT_, symObjAddr: 0xB008, symBinAddr: 0x10000EB74, symSize: 0x98 }
  - { offsetInCU: 0x19496, offset: 0x19496, size: 0x8, addend: 0x0, symName: __ZNSt3__16vectorIdNS_9allocatorIdEEE21__push_back_slow_pathIdEEvOT_, symObjAddr: 0xB0A0, symBinAddr: 0x10000EC0C, symSize: 0xE0 }
  - { offsetInCU: 0x194F4, offset: 0x194F4, size: 0x8, addend: 0x0, symName: __ZNSt3__116allocator_traitsINS_9allocatorIdEEE9constructB8ue170006IdJdEvEEvRS2_PT_DpOT0_, symObjAddr: 0xB180, symBinAddr: 0x10000ECEC, symSize: 0x34 }
  - { offsetInCU: 0x1954B, offset: 0x1954B, size: 0x8, addend: 0x0, symName: __ZNSt3__19allocatorIdE9constructB8ue170006IdJdEEEvPT_DpOT0_, symObjAddr: 0xB1B4, symBinAddr: 0x10000ED20, symSize: 0x28 }
...
