---
triple:          'arm64-apple-darwin'
binary-path:     '/Users/dunnaya/projects/uni/sem4/Algorithms/lab1/ideal_hash'
relocations:
  - { offsetInCU: 0x9836, offset: 0x9836, size: 0x8, addend: 0x0, symName: __ZNSt3__124__put_character_sequenceB8ue170006IcNS_11char_traitsIcEEEERNS_13basic_ostreamIT_T0_EES7_PKS4_m, symObjAddr: 0x9AD8, symBinAddr: 0x10000DF04, symSize: 0x1F4 }
  - { offsetInCU: 0xB78E, offset: 0xB78E, size: 0x8, addend: 0x0, symName: __ZNSt3__1lsB8ue170006INS_11char_traitsIcEEEERNS_13basic_ostreamIcT_EES6_PKc, symObjAddr: 0x608, symBinAddr: 0x100004A34, symSize: 0x48 }
  - { offsetInCU: 0xB7D4, offset: 0xB7D4, size: 0x8, addend: 0x0, symName: __ZNSt3__1neB8ue170006IPdEEbRKNS_11__wrap_iterIT_EES6_, symObjAddr: 0x6B0, symBinAddr: 0x100004ADC, symSize: 0x34 }
  - { offsetInCU: 0xB817, offset: 0xB817, size: 0x8, addend: 0x0, symName: __ZNSt3__14endlB8ue170006IcNS_11char_traitsIcEEEERNS_13basic_ostreamIT_T0_EES7_, symObjAddr: 0x7FC, symBinAddr: 0x100004C28, symSize: 0x58 }
  - { offsetInCU: 0xB857, offset: 0xB857, size: 0x8, addend: 0x0, symName: __ZNSt3__13maxB8ue170006IiEERKT_S3_S3_, symObjAddr: 0xDA0, symBinAddr: 0x1000051CC, symSize: 0x2C }
  - { offsetInCU: 0xB89A, offset: 0xB89A, size: 0x8, addend: 0x0, symName: __ZNSt3__13maxB8ue170006IiNS_6__lessIvvEEEERKT_S5_S5_T0_, symObjAddr: 0x17D0, symBinAddr: 0x100005BFC, symSize: 0x54 }
  - { offsetInCU: 0xB96A, offset: 0xB96A, size: 0x8, addend: 0x0, symName: __ZNSt3__112__to_addressB8ue170006IN16PerfectHash4Real14SecondaryTableEEEPT_S4_, symObjAddr: 0x1E8C, symBinAddr: 0x1000062B8, symSize: 0x14 }
  - { offsetInCU: 0xB99F, offset: 0xB99F, size: 0x8, addend: 0x0, symName: __ZNSt3__13maxB8ue170006ImEERKT_S3_S3_, symObjAddr: 0x2248, symBinAddr: 0x100006674, symSize: 0x2C }
  - { offsetInCU: 0xB9E2, offset: 0xB9E2, size: 0x8, addend: 0x0, symName: __ZNSt3__13minB8ue170006ImEERKT_S3_S3_, symObjAddr: 0x2274, symBinAddr: 0x1000066A0, symSize: 0x2C }
  - { offsetInCU: 0xBC26, offset: 0xBC26, size: 0x8, addend: 0x0, symName: __ZNSt3__13minB8ue170006ImNS_6__lessIvvEEEERKT_S5_S5_T0_, symObjAddr: 0x2300, symBinAddr: 0x10000672C, symSize: 0x54 }
  - { offsetInCU: 0xBC80, offset: 0xBC80, size: 0x8, addend: 0x0, symName: __ZNSt3__120__throw_length_errorB8ue170006EPKc, symObjAddr: 0x23E0, symBinAddr: 0x10000680C, symSize: 0x64 }
  - { offsetInCU: 0xBCAA, offset: 0xBCAA, size: 0x8, addend: 0x0, symName: __ZNSt3__13maxB8ue170006ImNS_6__lessIvvEEEERKT_S5_S5_T0_, symObjAddr: 0x2524, symBinAddr: 0x100006950, symSize: 0x54 }
  - { offsetInCU: 0xBD04, offset: 0xBD04, size: 0x8, addend: 0x0, symName: __ZNSt3__119__allocate_at_leastB8ue170006INS_9allocatorIN16PerfectHash4Real14SecondaryTableEEEEENS_19__allocation_resultINS_16allocator_traitsIT_E7pointerEEERS7_m, symObjAddr: 0x2694, symBinAddr: 0x100006AC0, symSize: 0x40 }
  - { offsetInCU: 0xBD47, offset: 0xBD47, size: 0x8, addend: 0x0, symName: __ZNSt3__130__libcpp_is_constant_evaluatedB8ue170006Ev, symObjAddr: 0x284C, symBinAddr: 0x100006C78, symSize: 0xC }
  - { offsetInCU: 0xBD64, offset: 0xBD64, size: 0x8, addend: 0x0, symName: __ZNSt3__117__libcpp_allocateB8ue170006Emm, symObjAddr: 0x2858, symBinAddr: 0x100006C84, symSize: 0x28 }
  - { offsetInCU: 0xBDA1, offset: 0xBDA1, size: 0x8, addend: 0x0, symName: __ZNSt3__121__libcpp_operator_newB8ue170006IJmEEEPvDpT_, symObjAddr: 0x2880, symBinAddr: 0x100006CAC, symSize: 0x24 }
  - { offsetInCU: 0xBDDA, offset: 0xBDDA, size: 0x8, addend: 0x0, symName: __ZNSt3__142__uninitialized_allocator_move_if_noexceptB8ue170006INS_9allocatorIN16PerfectHash4Real14SecondaryTableEEENS_16reverse_iteratorIPS3_EES7_S7_EET2_RT_T0_T1_S8_, symObjAddr: 0x2AB0, symBinAddr: 0x100006EDC, symSize: 0x134 }
  - { offsetInCU: 0xBE7A, offset: 0xBE7A, size: 0x8, addend: 0x0, symName: __ZNSt3__14swapB8ue170006IPN16PerfectHash4Real14SecondaryTableEEEvRT_S5_, symObjAddr: 0x2C30, symBinAddr: 0x10000705C, symSize: 0x3C }
  - { offsetInCU: 0xBECB, offset: 0xBECB, size: 0x8, addend: 0x0, symName: __ZNSt3__122__make_exception_guardB8ue170006INS_29_AllocatorDestroyRangeReverseINS_9allocatorIN16PerfectHash4Real14SecondaryTableEEENS_16reverse_iteratorIPS4_EEEEEENS_28__exception_guard_exceptionsIT_EESB_, symObjAddr: 0x2D7C, symBinAddr: 0x1000071A8, symSize: 0x4C }
  - { offsetInCU: 0xBF01, offset: 0xBF01, size: 0x8, addend: 0x0, symName: __ZNSt3__1neB8ue170006IPN16PerfectHash4Real14SecondaryTableES3_EEbRKNS_16reverse_iteratorIT_EERKNS4_IT0_EE, symObjAddr: 0x2E0C, symBinAddr: 0x100007238, symSize: 0x48 }
  - { offsetInCU: 0xBF4D, offset: 0xBF4D, size: 0x8, addend: 0x0, symName: __ZNSt3__112__to_addressB8ue170006INS_16reverse_iteratorIPN16PerfectHash4Real14SecondaryTableEEEvEEu7__decayIDTclsr19__to_address_helperIT_EE6__callclsr3stdE7declvalIRKS6_EEEEES8_, symObjAddr: 0x2E88, symBinAddr: 0x1000072B4, symSize: 0x24 }
  - { offsetInCU: 0xBF83, offset: 0xBF83, size: 0x8, addend: 0x0, symName: __ZNSt3__122__make_exception_guardB8ue170006INS_6vectorINS_4pairIdiEENS_9allocatorIS3_EEE16__destroy_vectorEEENS_28__exception_guard_exceptionsIT_EES9_, symObjAddr: 0x333C, symBinAddr: 0x100007768, symSize: 0x40 }
  - { offsetInCU: 0xBFB8, offset: 0xBFB8, size: 0x8, addend: 0x0, symName: __ZNSt3__119__allocate_at_leastB8ue170006INS_9allocatorINS_4pairIdiEEEEEENS_19__allocation_resultINS_16allocator_traitsIT_E7pointerEEERS7_m, symObjAddr: 0x3640, symBinAddr: 0x100007A6C, symSize: 0x40 }
  - { offsetInCU: 0xBFFB, offset: 0xBFFB, size: 0x8, addend: 0x0, symName: __ZNSt3__112__to_addressB8ue170006INS_4pairIdiEEEEPT_S4_, symObjAddr: 0x3930, symBinAddr: 0x100007D5C, symSize: 0x14 }
  - { offsetInCU: 0xC030, offset: 0xC030, size: 0x8, addend: 0x0, symName: __ZNSt3__130__uninitialized_allocator_copyB8ue170006INS_9allocatorINS_4pairIdiEEEEPS3_S5_S5_EET2_RT_T0_T1_S6_, symObjAddr: 0x39E0, symBinAddr: 0x100007E0C, symSize: 0x80 }
  - { offsetInCU: 0xC0CD, offset: 0xC0CD, size: 0x8, addend: 0x0, symName: __ZNSt3__114__unwrap_rangeB8ue170006IPNS_4pairIdiEES3_EENS1_IT0_S4_EET_S6_, symObjAddr: 0x3AD0, symBinAddr: 0x100007EFC, symSize: 0x60 }
  - { offsetInCU: 0xC119, offset: 0xC119, size: 0x8, addend: 0x0, symName: __ZNSt3__135__uninitialized_allocator_copy_implB8ue170006INS_9allocatorINS_4pairIdiEEEEPS3_S5_S5_EET2_RT_T0_T1_S6_, symObjAddr: 0x3B30, symBinAddr: 0x100007F5C, symSize: 0xFC }
  - { offsetInCU: 0xC1B7, offset: 0xC1B7, size: 0x8, addend: 0x0, symName: __ZNSt3__113__unwrap_iterB8ue170006IPNS_4pairIdiEENS_18__unwrap_iter_implIS3_Lb1EEELi0EEEDTclsrT0_8__unwrapclsr3stdE7declvalIT_EEEES7_, symObjAddr: 0x3C2C, symBinAddr: 0x100008058, symSize: 0x24 }
  - { offsetInCU: 0xC1FB, offset: 0xC1FB, size: 0x8, addend: 0x0, symName: __ZNSt3__113__rewrap_iterB8ue170006IPNS_4pairIdiEES3_NS_18__unwrap_iter_implIS3_Lb1EEEEET_S6_T0_, symObjAddr: 0x3C50, symBinAddr: 0x10000807C, symSize: 0x50 }
  - { offsetInCU: 0xC250, offset: 0xC250, size: 0x8, addend: 0x0, symName: __ZNSt3__19make_pairB8ue170006IPNS_4pairIdiEES3_EENS1_INS_18__unwrap_ref_decayIT_E4typeENS4_IT0_E4typeEEEOS5_OS8_, symObjAddr: 0x3CA0, symBinAddr: 0x1000080CC, symSize: 0x38 }
  - { offsetInCU: 0xC34C, offset: 0xC34C, size: 0x8, addend: 0x0, symName: __ZNSt3__122__make_exception_guardB8ue170006INS_29_AllocatorDestroyRangeReverseINS_9allocatorINS_4pairIdiEEEEPS4_EEEENS_28__exception_guard_exceptionsIT_EES9_, symObjAddr: 0x3D48, symBinAddr: 0x100008174, symSize: 0x4C }
  - { offsetInCU: 0xC382, offset: 0xC382, size: 0x8, addend: 0x0, symName: __ZNSt3__119__allocator_destroyB8ue170006INS_9allocatorINS_4pairIdiEEEENS_16reverse_iteratorIPS3_EES7_EEvRT_T0_T1_, symObjAddr: 0x3FC8, symBinAddr: 0x1000083F4, symSize: 0x70 }
  - { offsetInCU: 0xC3E5, offset: 0xC3E5, size: 0x8, addend: 0x0, symName: __ZNSt3__1neB8ue170006IPNS_4pairIdiEES3_EEbRKNS_16reverse_iteratorIT_EERKNS4_IT0_EE, symObjAddr: 0x406C, symBinAddr: 0x100008498, symSize: 0x48 }
  - { offsetInCU: 0xC431, offset: 0xC431, size: 0x8, addend: 0x0, symName: __ZNSt3__112__to_addressB8ue170006INS_16reverse_iteratorIPNS_4pairIdiEEEEvEEu7__decayIDTclsr19__to_address_helperIT_EE6__callclsr3stdE7declvalIRKS6_EEEEES8_, symObjAddr: 0x40E0, symBinAddr: 0x10000850C, symSize: 0x24 }
  - { offsetInCU: 0xC4E3, offset: 0xC4E3, size: 0x8, addend: 0x0, symName: __ZNSt3__119__libcpp_deallocateB8ue170006EPvmm, symObjAddr: 0x45A0, symBinAddr: 0x1000089CC, symSize: 0x30 }
  - { offsetInCU: 0xC52B, offset: 0xC52B, size: 0x8, addend: 0x0, symName: __ZNSt3__127__do_deallocate_handle_sizeB8ue170006IJEEEvPvmDpT_, symObjAddr: 0x45D0, symBinAddr: 0x1000089FC, symSize: 0x28 }
  - { offsetInCU: 0xC569, offset: 0xC569, size: 0x8, addend: 0x0, symName: __ZNSt3__124__libcpp_operator_deleteB8ue170006IJPvEEEvDpT_, symObjAddr: 0x45F8, symBinAddr: 0x100008A24, symSize: 0x24 }
  - { offsetInCU: 0xC5C7, offset: 0xC5C7, size: 0x8, addend: 0x0, symName: __ZNSt3__119__allocator_destroyB8ue170006INS_9allocatorIN16PerfectHash4Real14SecondaryTableEEENS_16reverse_iteratorINS5_IPS3_EEEES8_EEvRT_T0_T1_, symObjAddr: 0x4788, symBinAddr: 0x100008BB4, symSize: 0x70 }
  - { offsetInCU: 0xC62C, offset: 0xC62C, size: 0x8, addend: 0x0, symName: __ZNSt3__1neB8ue170006INS_16reverse_iteratorIPN16PerfectHash4Real14SecondaryTableEEES5_EEbRKNS1_IT_EERKNS1_IT0_EE, symObjAddr: 0x4834, symBinAddr: 0x100008C60, symSize: 0x60 }
  - { offsetInCU: 0xC678, offset: 0xC678, size: 0x8, addend: 0x0, symName: __ZNSt3__112__to_addressB8ue170006INS_16reverse_iteratorINS1_IPN16PerfectHash4Real14SecondaryTableEEEEEvEEu7__decayIDTclsr19__to_address_helperIT_EE6__callclsr3stdE7declvalIRKS7_EEEEES9_, symObjAddr: 0x48C0, symBinAddr: 0x100008CEC, symSize: 0x24 }
  - { offsetInCU: 0xC6D7, offset: 0xC6D7, size: 0x8, addend: 0x0, symName: __ZNSt3__118__constexpr_strlenB8ue170006EPKc, symObjAddr: 0x50DC, symBinAddr: 0x100009508, symSize: 0x24 }
  - { offsetInCU: 0xC727, offset: 0xC727, size: 0x8, addend: 0x0, symName: __ZNSt3__113__countl_zeroB8ue170006IjEEiT_, symObjAddr: 0x54CC, symBinAddr: 0x1000098F8, symSize: 0x54 }
  - { offsetInCU: 0xC75C, offset: 0xC75C, size: 0x8, addend: 0x0, symName: __ZNSt3__112__libcpp_clzB8ue170006Ej, symObjAddr: 0x5964, symBinAddr: 0x100009D90, symSize: 0x18 }
  - { offsetInCU: 0xC788, offset: 0xC788, size: 0x8, addend: 0x0, symName: __ZNSt3__122__make_exception_guardB8ue170006INS_6vectorINS1_IdNS_9allocatorIdEEEENS2_IS4_EEE16__destroy_vectorEEENS_28__exception_guard_exceptionsIT_EES9_, symObjAddr: 0x5A9C, symBinAddr: 0x100009EC8, symSize: 0x40 }
  - { offsetInCU: 0xC7BD, offset: 0xC7BD, size: 0x8, addend: 0x0, symName: __ZNSt3__119__allocate_at_leastB8ue170006INS_9allocatorINS_6vectorIdNS1_IdEEEEEEEENS_19__allocation_resultINS_16allocator_traitsIT_E7pointerEEERS8_m, symObjAddr: 0x5EAC, symBinAddr: 0x10000A2D8, symSize: 0x40 }
  - { offsetInCU: 0xC800, offset: 0xC800, size: 0x8, addend: 0x0, symName: __ZNSt3__112__to_addressB8ue170006INS_6vectorIdNS_9allocatorIdEEEEEEPT_S6_, symObjAddr: 0x6224, symBinAddr: 0x10000A650, symSize: 0x14 }
  - { offsetInCU: 0xC835, offset: 0xC835, size: 0x8, addend: 0x0, symName: __ZNSt3__112__to_addressB8ue170006IdEEPT_S2_, symObjAddr: 0x69C8, symBinAddr: 0x10000ADF4, symSize: 0x14 }
  - { offsetInCU: 0xC86A, offset: 0xC86A, size: 0x8, addend: 0x0, symName: __ZNSt3__119__allocate_at_leastB8ue170006INS_9allocatorIdEEEENS_19__allocation_resultINS_16allocator_traitsIT_E7pointerEEERS5_m, symObjAddr: 0x6FD8, symBinAddr: 0x10000B404, symSize: 0x40 }
  - { offsetInCU: 0xC8AD, offset: 0xC8AD, size: 0x8, addend: 0x0, symName: __ZNSt3__142__uninitialized_allocator_move_if_noexceptB8ue170006INS_9allocatorIdEENS_16reverse_iteratorIPdEES5_dvEET1_RT_T0_S9_S6_, symObjAddr: 0x728C, symBinAddr: 0x10000B6B8, symSize: 0xE8 }
  - { offsetInCU: 0xC92A, offset: 0xC92A, size: 0x8, addend: 0x0, symName: __ZNSt3__14swapB8ue170006IPdEEvRT_S3_, symObjAddr: 0x73C0, symBinAddr: 0x10000B7EC, symSize: 0x3C }
  - { offsetInCU: 0xC97B, offset: 0xC97B, size: 0x8, addend: 0x0, symName: __ZNSt3__1neB8ue170006IPdS1_EEbRKNS_16reverse_iteratorIT_EERKNS2_IT0_EE, symObjAddr: 0x74F0, symBinAddr: 0x10000B91C, symSize: 0x48 }
  - { offsetInCU: 0xC9EC, offset: 0xC9EC, size: 0x8, addend: 0x0, symName: __ZNSt3__114__construct_atB8ue170006IdJdEPdEEPT_S3_DpOT0_, symObjAddr: 0x7538, symBinAddr: 0x10000B964, symSize: 0x2C }
  - { offsetInCU: 0xCA5C, offset: 0xCA5C, size: 0x8, addend: 0x0, symName: __ZNSt3__112__to_addressB8ue170006INS_16reverse_iteratorIPdEEvEEu7__decayIDTclsr19__to_address_helperIT_EE6__callclsr3stdE7declvalIRKS4_EEEEES6_, symObjAddr: 0x7564, symBinAddr: 0x10000B990, symSize: 0x24 }
  - { offsetInCU: 0xCA92, offset: 0xCA92, size: 0x8, addend: 0x0, symName: __ZNSt3__14moveB8ue170006INS_16reverse_iteratorIPdEES3_EET0_T_S5_S4_, symObjAddr: 0x75D0, symBinAddr: 0x10000B9FC, symSize: 0x78 }
  - { offsetInCU: 0xCB15, offset: 0xCB15, size: 0x8, addend: 0x0, symName: __ZNSt3__16__moveB8ue170006INS_17_ClassicAlgPolicyENS_16reverse_iteratorIPdEES4_S4_EENS_4pairIT0_T2_EES6_T1_S7_, symObjAddr: 0x76B8, symBinAddr: 0x10000BAE4, symSize: 0x64 }
  - { offsetInCU: 0xCB81, offset: 0xCB81, size: 0x8, addend: 0x0, symName: __ZNSt3__123__dispatch_copy_or_moveB8ue170006INS_17_ClassicAlgPolicyENS_11__move_loopIS1_EENS_14__move_trivialENS_16reverse_iteratorIPdEES7_S7_EENS_4pairIT2_T4_EES9_T3_SA_, symObjAddr: 0x771C, symBinAddr: 0x10000BB48, symSize: 0x64 }
  - { offsetInCU: 0xCBFF, offset: 0xCBFF, size: 0x8, addend: 0x0, symName: __ZNSt3__121__unwrap_and_dispatchB8ue170006INS_10__overloadINS_11__move_loopINS_17_ClassicAlgPolicyEEENS_14__move_trivialEEENS_16reverse_iteratorIPdEES9_S9_Li0EEENS_4pairIT0_T2_EESB_T1_SC_, symObjAddr: 0x7780, symBinAddr: 0x10000BBAC, symSize: 0x12C }
  - { offsetInCU: 0xCC8F, offset: 0xCC8F, size: 0x8, addend: 0x0, symName: __ZNSt3__114__unwrap_rangeB8ue170006INS_16reverse_iteratorIPdEES3_EENS_4pairIT0_S5_EET_S7_, symObjAddr: 0x78AC, symBinAddr: 0x10000BCD8, symSize: 0x84 }
  - { offsetInCU: 0xCDE3, offset: 0xCDE3, size: 0x8, addend: 0x0, symName: __ZNSt3__113__unwrap_iterB8ue170006INS_16reverse_iteratorIPdEENS_18__unwrap_iter_implIS3_Lb0EEELi0EEEDTclsrT0_8__unwrapclsr3stdE7declvalIT_EEEES7_, symObjAddr: 0x79D0, symBinAddr: 0x10000BDFC, symSize: 0x44 }
  - { offsetInCU: 0xCE27, offset: 0xCE27, size: 0x8, addend: 0x0, symName: __ZNSt3__19make_pairB8ue170006INS_16reverse_iteratorIPdEES3_EENS_4pairINS_18__unwrap_ref_decayIT_E4typeENS5_IT0_E4typeEEEOS6_OS9_, symObjAddr: 0x7A14, symBinAddr: 0x10000BE40, symSize: 0x38 }
  - { offsetInCU: 0xCE76, offset: 0xCE76, size: 0x8, addend: 0x0, symName: __ZNSt3__114__rewrap_rangeB8ue170006INS_16reverse_iteratorIPdEES3_EET_S4_T0_, symObjAddr: 0x7A4C, symBinAddr: 0x10000BE78, symSize: 0x5C }
  - { offsetInCU: 0xCEC2, offset: 0xCEC2, size: 0x8, addend: 0x0, symName: __ZNSt3__113__rewrap_iterB8ue170006INS_16reverse_iteratorIPdEES3_NS_18__unwrap_iter_implIS3_Lb0EEEEET_S6_T0_, symObjAddr: 0x7AA8, symBinAddr: 0x10000BED4, symSize: 0x88 }
  - { offsetInCU: 0xCFC9, offset: 0xCFC9, size: 0x8, addend: 0x0, symName: __ZNSt3__19make_pairB8ue170006IRdiEENS_4pairINS_18__unwrap_ref_decayIT_E4typeENS3_IT0_E4typeEEEOS4_OS7_, symObjAddr: 0x80F0, symBinAddr: 0x10000C51C, symSize: 0x38 }
  - { offsetInCU: 0xD018, offset: 0xD018, size: 0x8, addend: 0x0, symName: __ZNSt3__142__uninitialized_allocator_move_if_noexceptB8ue170006INS_9allocatorINS_4pairIdiEEEENS_16reverse_iteratorIPS3_EES7_S7_EET2_RT_T0_T1_S8_, symObjAddr: 0x8A0C, symBinAddr: 0x10000CE38, symSize: 0x124 }
  - { offsetInCU: 0xD0B8, offset: 0xD0B8, size: 0x8, addend: 0x0, symName: __ZNSt3__14swapB8ue170006IPNS_4pairIdiEEEEvRT_S5_, symObjAddr: 0x8B30, symBinAddr: 0x10000CF5C, symSize: 0x3C }
  - { offsetInCU: 0xD109, offset: 0xD109, size: 0x8, addend: 0x0, symName: __ZNSt3__122__make_exception_guardB8ue170006INS_29_AllocatorDestroyRangeReverseINS_9allocatorINS_4pairIdiEEEENS_16reverse_iteratorIPS4_EEEEEENS_28__exception_guard_exceptionsIT_EESB_, symObjAddr: 0x8B6C, symBinAddr: 0x10000CF98, symSize: 0x4C }
  - { offsetInCU: 0xD13F, offset: 0xD13F, size: 0x8, addend: 0x0, symName: __ZNSt3__119__allocator_destroyB8ue170006INS_9allocatorINS_4pairIdiEEEENS_16reverse_iteratorINS5_IPS3_EEEES8_EEvRT_T0_T1_, symObjAddr: 0x8E38, symBinAddr: 0x10000D264, symSize: 0x70 }
  - { offsetInCU: 0xD1A4, offset: 0xD1A4, size: 0x8, addend: 0x0, symName: __ZNSt3__1neB8ue170006INS_16reverse_iteratorIPNS_4pairIdiEEEES5_EEbRKNS1_IT_EERKNS1_IT0_EE, symObjAddr: 0x8EE4, symBinAddr: 0x10000D310, symSize: 0x60 }
  - { offsetInCU: 0xD1F0, offset: 0xD1F0, size: 0x8, addend: 0x0, symName: __ZNSt3__112__to_addressB8ue170006INS_16reverse_iteratorINS1_IPNS_4pairIdiEEEEEEvEEu7__decayIDTclsr19__to_address_helperIT_EE6__callclsr3stdE7declvalIRKS7_EEEEES9_, symObjAddr: 0x8F44, symBinAddr: 0x10000D370, symSize: 0x24 }
  - { offsetInCU: 0xD24F, offset: 0xD24F, size: 0x8, addend: 0x0, symName: __ZNSt3__19make_pairB8ue170006IdiEENS_4pairINS_18__unwrap_ref_decayIT_E4typeENS2_IT0_E4typeEEEOS3_OS6_, symObjAddr: 0x945C, symBinAddr: 0x10000D888, symSize: 0x38 }
  - { offsetInCU: 0xD6A9, offset: 0xD6A9, size: 0x8, addend: 0x0, symName: __ZNSt3__16fill_nB8ue170006IPNS_4pairIdiEEmS2_EET_S4_T0_RKT1_, symObjAddr: 0x94A8, symBinAddr: 0x10000D8D4, symSize: 0x44 }
  - { offsetInCU: 0xD70C, offset: 0xD70C, size: 0x8, addend: 0x0, symName: __ZNSt3__18__fill_nB8ue170006IPNS_4pairIdiEEmS2_EET_S4_T0_RKT1_, symObjAddr: 0x9658, symBinAddr: 0x10000DA84, symSize: 0x6C }
  - { offsetInCU: 0xD76F, offset: 0xD76F, size: 0x8, addend: 0x0, symName: __ZNSt3__121__convert_to_integralB8ue170006Em, symObjAddr: 0x96C4, symBinAddr: 0x10000DAF0, symSize: 0x14 }
  - { offsetInCU: 0xD79B, offset: 0xD79B, size: 0x8, addend: 0x0, symName: __ZNSt3__1eqB8ue170006IPdEEbRKNS_11__wrap_iterIT_EES6_, symObjAddr: 0x9A78, symBinAddr: 0x10000DEA4, symSize: 0x48 }
  - { offsetInCU: 0xD7DE, offset: 0xD7DE, size: 0x8, addend: 0x0, symName: __ZNSt3__116__pad_and_outputB8ue170006IcNS_11char_traitsIcEEEENS_19ostreambuf_iteratorIT_T0_EES6_PKS4_S8_S8_RNS_8ios_baseES4_, symObjAddr: 0x9CE8, symBinAddr: 0x10000E114, symSize: 0x248 }
  - { offsetInCU: 0xD8AD, offset: 0xD8AD, size: 0x8, addend: 0x0, symName: __ZNSt3__112__to_addressB8ue170006IKcEEPT_S3_, symObjAddr: 0xA160, symBinAddr: 0x10000E58C, symSize: 0x14 }
  - { offsetInCU: 0xD915, offset: 0xD915, size: 0x8, addend: 0x0, symName: __ZNSt3__19use_facetB8ue170006INS_5ctypeIcEEEERKT_RKNS_6localeE, symObjAddr: 0xA438, symBinAddr: 0x10000E864, symSize: 0x2C }
  - { offsetInCU: 0xE156, offset: 0xE156, size: 0x8, addend: 0x0, symName: __ZSt28__throw_bad_array_new_lengthB8ue170006v, symObjAddr: 0x2818, symBinAddr: 0x100006C44, symSize: 0x34 }
  - { offsetInCU: 0xEA61, offset: 0xEA61, size: 0x8, addend: 0x0, symName: __ZNSt3__16vectorIN16PerfectHash4Real14SecondaryTableENS_9allocatorIS2_EEE26__swap_out_circular_bufferERNS_14__split_bufferIS2_RS4_EE, symObjAddr: 0x1CB0, symBinAddr: 0x1000060DC, symSize: 0x110 }
  - { offsetInCU: 0xEB99, offset: 0xEB99, size: 0x8, addend: 0x0, symName: __ZNSt3__124uniform_int_distributionIiEclINS_23mersenne_twister_engineIjLm32ELm624ELm397ELm31ELj2567483615ELm11ELj4294967295ELm7ELj2636928640ELm15ELj4022730752ELm18ELj1812433253EEEEEiRT_RKNS1_10param_typeE, symObjAddr: 0x52B4, symBinAddr: 0x1000096E0, symSize: 0x188 }
  - { offsetInCU: 0xED50, offset: 0xED50, size: 0x8, addend: 0x0, symName: __ZNSt3__16vectorIdNS_9allocatorIdEEE26__swap_out_circular_bufferERNS_14__split_bufferIdRS2_EE, symObjAddr: 0x6BC4, symBinAddr: 0x10000AFF0, symSize: 0x110 }
  - { offsetInCU: 0xEDA6, offset: 0xEDA6, size: 0x8, addend: 0x0, symName: __ZNSt3__16vectorINS_4pairIdiEENS_9allocatorIS2_EEE26__swap_out_circular_bufferERNS_14__split_bufferIS2_RS4_EE, symObjAddr: 0x8538, symBinAddr: 0x10000C964, symSize: 0x110 }
  - { offsetInCU: 0x11255, offset: 0x11255, size: 0x8, addend: 0x0, symName: _main, symObjAddr: 0x0, symBinAddr: 0x10000442C, symSize: 0x3B4 }
  - { offsetInCU: 0x11358, offset: 0x11358, size: 0x8, addend: 0x0, symName: __ZNSt3__16vectorIdNS_9allocatorIdEEEC1B8ue170006Ev, symObjAddr: 0x3B4, symBinAddr: 0x1000047E0, symSize: 0x2C }
  - { offsetInCU: 0x11382, offset: 0x11382, size: 0x8, addend: 0x0, symName: __ZNSt3__16vectorIdNS_9allocatorIdEEE9push_backB8ue170006EOd, symObjAddr: 0x3E0, symBinAddr: 0x10000480C, symSize: 0x6C }
  - { offsetInCU: 0x113B8, offset: 0x113B8, size: 0x8, addend: 0x0, symName: __ZN16PerfectHash4RealC1ERNSt3__16vectorIdNS0_9allocatorIdEEEE, symObjAddr: 0x44C, symBinAddr: 0x100004878, symSize: 0x34 }
  - { offsetInCU: 0x113F0, offset: 0x113F0, size: 0x8, addend: 0x0, symName: __ZN16PerfectHash4Real8setValueEdi, symObjAddr: 0x480, symBinAddr: 0x1000048AC, symSize: 0x188 }
  - { offsetInCU: 0x1145C, offset: 0x1145C, size: 0x8, addend: 0x0, symName: __ZNSt3__16vectorIdNS_9allocatorIdEEE5beginB8ue170006Ev, symObjAddr: 0x650, symBinAddr: 0x100004A7C, symSize: 0x30 }
  - { offsetInCU: 0x11483, offset: 0x11483, size: 0x8, addend: 0x0, symName: __ZNSt3__16vectorIdNS_9allocatorIdEEE3endB8ue170006Ev, symObjAddr: 0x680, symBinAddr: 0x100004AAC, symSize: 0x30 }
  - { offsetInCU: 0x114AA, offset: 0x114AA, size: 0x8, addend: 0x0, symName: __ZNKSt3__111__wrap_iterIPdEdeB8ue170006Ev, symObjAddr: 0x6E4, symBinAddr: 0x100004B10, symSize: 0x18 }
  - { offsetInCU: 0x114D0, offset: 0x114D0, size: 0x8, addend: 0x0, symName: __ZNK16PerfectHash4Real8getValueEd, symObjAddr: 0x6FC, symBinAddr: 0x100004B28, symSize: 0xD4 }
  - { offsetInCU: 0x1152E, offset: 0x1152E, size: 0x8, addend: 0x0, symName: __ZNSt3__113basic_ostreamIcNS_11char_traitsIcEEElsB8ue170006EPFRS3_S4_E, symObjAddr: 0x7D0, symBinAddr: 0x100004BFC, symSize: 0x2C }
  - { offsetInCU: 0x11562, offset: 0x11562, size: 0x8, addend: 0x0, symName: __ZNSt3__111__wrap_iterIPdEppB8ue170006Ev, symObjAddr: 0x854, symBinAddr: 0x100004C80, symSize: 0x20 }
  - { offsetInCU: 0x11588, offset: 0x11588, size: 0x8, addend: 0x0, symName: __ZNK16PerfectHash4Real8containsEd, symObjAddr: 0x874, symBinAddr: 0x100004CA0, symSize: 0xC0 }
  - { offsetInCU: 0x115E6, offset: 0x115E6, size: 0x8, addend: 0x0, symName: __ZN16PerfectHash4RealD1Ev, symObjAddr: 0x934, symBinAddr: 0x100004D60, symSize: 0x2C }
  - { offsetInCU: 0x11612, offset: 0x11612, size: 0x8, addend: 0x0, symName: __ZNSt3__16vectorIdNS_9allocatorIdEEED1B8ue170006Ev, symObjAddr: 0x96C, symBinAddr: 0x100004D98, symSize: 0x2C }
  - { offsetInCU: 0x1163C, offset: 0x1163C, size: 0x8, addend: 0x0, symName: __ZN16PerfectHash4RealC2ERNSt3__16vectorIdNS0_9allocatorIdEEEE, symObjAddr: 0x998, symBinAddr: 0x100004DC4, symSize: 0x3DC }
  - { offsetInCU: 0x1173C, offset: 0x1173C, size: 0x8, addend: 0x0, symName: __ZNSt3__16vectorIN16PerfectHash4Real14SecondaryTableENS_9allocatorIS2_EEEC1B8ue170006Ev, symObjAddr: 0xD74, symBinAddr: 0x1000051A0, symSize: 0x2C }
  - { offsetInCU: 0x11766, offset: 0x11766, size: 0x8, addend: 0x0, symName: __Z4sqrtB8ue170006ImENSt3__19enable_ifIXsr3std11is_integralIT_EE5valueEdE4typeES2_, symObjAddr: 0xDCC, symBinAddr: 0x1000051F8, symSize: 0x1C }
  - { offsetInCU: 0x1179E, offset: 0x1179E, size: 0x8, addend: 0x0, symName: __ZNKSt3__16vectorIdNS_9allocatorIdEEE4sizeB8ue170006Ev, symObjAddr: 0xDE8, symBinAddr: 0x100005214, symSize: 0x28 }
  - { offsetInCU: 0x117C4, offset: 0x117C4, size: 0x8, addend: 0x0, symName: __ZNSt3__16vectorIN16PerfectHash4Real14SecondaryTableENS_9allocatorIS2_EEE6resizeEm, symObjAddr: 0xE10, symBinAddr: 0x10000523C, symSize: 0x9C }
  - { offsetInCU: 0x1180E, offset: 0x1180E, size: 0x8, addend: 0x0, symName: __ZNSt3__112basic_stringIcNS_11char_traitsIcEENS_9allocatorIcEEEC1B8ue170006ILi0EEEPKc, symObjAddr: 0xEAC, symBinAddr: 0x1000052D8, symSize: 0x34 }
  - { offsetInCU: 0x1184D, offset: 0x1184D, size: 0x8, addend: 0x0, symName: __ZNSt3__123mersenne_twister_engineIjLm32ELm624ELm397ELm31ELj2567483615ELm11ELj4294967295ELm7ELj2636928640ELm15ELj4022730752ELm18ELj1812433253EEC1B8ue170006Ej, symObjAddr: 0xEE0, symBinAddr: 0x10000530C, symSize: 0x34 }
  - { offsetInCU: 0x11885, offset: 0x11885, size: 0x8, addend: 0x0, symName: __ZNSt3__124uniform_int_distributionIiEC1Eii, symObjAddr: 0xF14, symBinAddr: 0x100005340, symSize: 0x3C }
  - { offsetInCU: 0x118CB, offset: 0x118CB, size: 0x8, addend: 0x0, symName: __ZNSt3__124uniform_int_distributionIiEclB8ue170006INS_23mersenne_twister_engineIjLm32ELm624ELm397ELm31ELj2567483615ELm11ELj4294967295ELm7ELj2636928640ELm15ELj4022730752ELm18ELj1812433253EEEEEiRT_, symObjAddr: 0xF50, symBinAddr: 0x10000537C, symSize: 0x30 }
  - { offsetInCU: 0x11908, offset: 0x11908, size: 0x8, addend: 0x0, symName: __ZNSt3__16vectorINS0_IdNS_9allocatorIdEEEENS1_IS3_EEEC1Em, symObjAddr: 0xF80, symBinAddr: 0x1000053AC, symSize: 0x34 }
  - { offsetInCU: 0x11943, offset: 0x11943, size: 0x8, addend: 0x0, symName: __ZNK16PerfectHash4Real11primaryHashEd, symObjAddr: 0xFB4, symBinAddr: 0x1000053E0, symSize: 0x88 }
  - { offsetInCU: 0x11993, offset: 0x11993, size: 0x8, addend: 0x0, symName: __ZNSt3__16vectorINS0_IdNS_9allocatorIdEEEENS1_IS3_EEEixB8ue170006Em, symObjAddr: 0x103C, symBinAddr: 0x100005468, symSize: 0x2C }
  - { offsetInCU: 0x119CA, offset: 0x119CA, size: 0x8, addend: 0x0, symName: __ZNSt3__16vectorIdNS_9allocatorIdEEE9push_backB8ue170006ERKd, symObjAddr: 0x1068, symBinAddr: 0x100005494, symSize: 0x6C }
  - { offsetInCU: 0x11A00, offset: 0x11A00, size: 0x8, addend: 0x0, symName: __ZN16PerfectHash4Real19buildSecondaryTableERNSt3__16vectorIdNS0_9allocatorIdEEEEi, symObjAddr: 0x10D4, symBinAddr: 0x100005500, symSize: 0x55C }
  - { offsetInCU: 0x11B5A, offset: 0x11B5A, size: 0x8, addend: 0x0, symName: __ZNSt3__16vectorINS0_IdNS_9allocatorIdEEEENS1_IS3_EEED1B8ue170006Ev, symObjAddr: 0x1630, symBinAddr: 0x100005A5C, symSize: 0x2C }
  - { offsetInCU: 0x11B84, offset: 0x11B84, size: 0x8, addend: 0x0, symName: __ZNSt3__16vectorIN16PerfectHash4Real14SecondaryTableENS_9allocatorIS2_EEED1B8ue170006Ev, symObjAddr: 0x165C, symBinAddr: 0x100005A88, symSize: 0x2C }
  - { offsetInCU: 0x11BAE, offset: 0x11BAE, size: 0x8, addend: 0x0, symName: __ZNSt3__16vectorIN16PerfectHash4Real14SecondaryTableENS_9allocatorIS2_EEEC2B8ue170006Ev, symObjAddr: 0x1688, symBinAddr: 0x100005AB4, symSize: 0x44 }
  - { offsetInCU: 0x11BE2, offset: 0x11BE2, size: 0x8, addend: 0x0, symName: __ZNSt3__117__compressed_pairIPN16PerfectHash4Real14SecondaryTableENS_9allocatorIS2_EEEC1B8ue170006IDnNS_18__default_init_tagEEEOT_OT0_, symObjAddr: 0x16CC, symBinAddr: 0x100005AF8, symSize: 0x3C }
  - { offsetInCU: 0x11C3A, offset: 0x11C3A, size: 0x8, addend: 0x0, symName: __ZNSt3__117__compressed_pairIPN16PerfectHash4Real14SecondaryTableENS_9allocatorIS2_EEEC2B8ue170006IDnNS_18__default_init_tagEEEOT_OT0_, symObjAddr: 0x1708, symBinAddr: 0x100005B34, symSize: 0x40 }
  - { offsetInCU: 0x11C92, offset: 0x11C92, size: 0x8, addend: 0x0, symName: __ZNSt3__122__compressed_pair_elemIPN16PerfectHash4Real14SecondaryTableELi0ELb0EEC2B8ue170006IDnvEEOT_, symObjAddr: 0x1748, symBinAddr: 0x100005B74, symSize: 0x1C }
  - { offsetInCU: 0x11CD4, offset: 0x11CD4, size: 0x8, addend: 0x0, symName: __ZNSt3__122__compressed_pair_elemINS_9allocatorIN16PerfectHash4Real14SecondaryTableEEELi1ELb1EEC2B8ue170006ENS_18__default_init_tagE, symObjAddr: 0x1764, symBinAddr: 0x100005B90, symSize: 0x2C }
  - { offsetInCU: 0x11D09, offset: 0x11D09, size: 0x8, addend: 0x0, symName: __ZNSt3__19allocatorIN16PerfectHash4Real14SecondaryTableEEC2B8ue170006Ev, symObjAddr: 0x1790, symBinAddr: 0x100005BBC, symSize: 0x2C }
  - { offsetInCU: 0x11D33, offset: 0x11D33, size: 0x8, addend: 0x0, symName: __ZNSt3__116__non_trivial_ifILb1ENS_9allocatorIN16PerfectHash4Real14SecondaryTableEEEEC2B8ue170006Ev, symObjAddr: 0x17BC, symBinAddr: 0x100005BE8, symSize: 0x14 }
  - { offsetInCU: 0x11D67, offset: 0x11D67, size: 0x8, addend: 0x0, symName: __ZNKSt3__16__lessIvvEclB8ue170006IiiEEbRKT_RKT0_, symObjAddr: 0x1824, symBinAddr: 0x100005C50, symSize: 0x34 }
  - { offsetInCU: 0x11DBB, offset: 0x11DBB, size: 0x8, addend: 0x0, symName: __ZNKSt3__16vectorIN16PerfectHash4Real14SecondaryTableENS_9allocatorIS2_EEE4sizeB8ue170006Ev, symObjAddr: 0x1858, symBinAddr: 0x100005C84, symSize: 0x28 }
  - { offsetInCU: 0x11DE1, offset: 0x11DE1, size: 0x8, addend: 0x0, symName: __ZNSt3__16vectorIN16PerfectHash4Real14SecondaryTableENS_9allocatorIS2_EEE8__appendEm, symObjAddr: 0x1880, symBinAddr: 0x100005CAC, symSize: 0x110 }
  - { offsetInCU: 0x11E3B, offset: 0x11E3B, size: 0x8, addend: 0x0, symName: __ZNSt3__16vectorIN16PerfectHash4Real14SecondaryTableENS_9allocatorIS2_EEE17__destruct_at_endB8ue170006EPS2_, symObjAddr: 0x1990, symBinAddr: 0x100005DBC, symSize: 0x4C }
  - { offsetInCU: 0x11E7F, offset: 0x11E7F, size: 0x8, addend: 0x0, symName: __ZNSt3__16vectorIN16PerfectHash4Real14SecondaryTableENS_9allocatorIS2_EEE9__end_capB8ue170006Ev, symObjAddr: 0x19DC, symBinAddr: 0x100005E08, symSize: 0x28 }
  - { offsetInCU: 0x11EA5, offset: 0x11EA5, size: 0x8, addend: 0x0, symName: __ZNSt3__16vectorIN16PerfectHash4Real14SecondaryTableENS_9allocatorIS2_EEE18__construct_at_endEm, symObjAddr: 0x1A04, symBinAddr: 0x100005E30, symSize: 0xD0 }
  - { offsetInCU: 0x11F17, offset: 0x11F17, size: 0x8, addend: 0x0, symName: __ZNSt3__16vectorIN16PerfectHash4Real14SecondaryTableENS_9allocatorIS2_EEE7__allocB8ue170006Ev, symObjAddr: 0x1AD4, symBinAddr: 0x100005F00, symSize: 0x28 }
  - { offsetInCU: 0x11F3D, offset: 0x11F3D, size: 0x8, addend: 0x0, symName: __ZNKSt3__16vectorIN16PerfectHash4Real14SecondaryTableENS_9allocatorIS2_EEE11__recommendB8ue170006Em, symObjAddr: 0x1AFC, symBinAddr: 0x100005F28, symSize: 0xB4 }
  - { offsetInCU: 0x11F91, offset: 0x11F91, size: 0x8, addend: 0x0, symName: __ZNSt3__114__split_bufferIN16PerfectHash4Real14SecondaryTableERNS_9allocatorIS2_EEEC1EmmS5_, symObjAddr: 0x1BB0, symBinAddr: 0x100005FDC, symSize: 0x44 }
  - { offsetInCU: 0x11FE7, offset: 0x11FE7, size: 0x8, addend: 0x0, symName: __ZNSt3__114__split_bufferIN16PerfectHash4Real14SecondaryTableERNS_9allocatorIS2_EEE18__construct_at_endEm, symObjAddr: 0x1BF4, symBinAddr: 0x100006020, symSize: 0xBC }
  - { offsetInCU: 0x1202B, offset: 0x1202B, size: 0x8, addend: 0x0, symName: __ZNSt3__114__split_bufferIN16PerfectHash4Real14SecondaryTableERNS_9allocatorIS2_EEED1Ev, symObjAddr: 0x1DC0, symBinAddr: 0x1000061EC, symSize: 0x2C }
  - { offsetInCU: 0x12057, offset: 0x12057, size: 0x8, addend: 0x0, symName: __ZNSt3__117__compressed_pairIPN16PerfectHash4Real14SecondaryTableENS_9allocatorIS2_EEE5firstB8ue170006Ev, symObjAddr: 0x1DEC, symBinAddr: 0x100006218, symSize: 0x24 }
  - { offsetInCU: 0x1207D, offset: 0x1207D, size: 0x8, addend: 0x0, symName: __ZNSt3__122__compressed_pair_elemIPN16PerfectHash4Real14SecondaryTableELi0ELb0EE5__getB8ue170006Ev, symObjAddr: 0x1E10, symBinAddr: 0x10000623C, symSize: 0x14 }
  - { offsetInCU: 0x120BC, offset: 0x120BC, size: 0x8, addend: 0x0, symName: __ZNSt3__16vectorIN16PerfectHash4Real14SecondaryTableENS_9allocatorIS2_EEE21_ConstructTransactionC1B8ue170006ERS5_m, symObjAddr: 0x1E24, symBinAddr: 0x100006250, symSize: 0x3C }
  - { offsetInCU: 0x12104, offset: 0x12104, size: 0x8, addend: 0x0, symName: __ZNSt3__116allocator_traitsINS_9allocatorIN16PerfectHash4Real14SecondaryTableEEEE9constructB8ue170006IS3_JEvEEvRS4_PT_DpOT0_, symObjAddr: 0x1E60, symBinAddr: 0x10000628C, symSize: 0x2C }
  - { offsetInCU: 0x12146, offset: 0x12146, size: 0x8, addend: 0x0, symName: __ZNSt3__16vectorIN16PerfectHash4Real14SecondaryTableENS_9allocatorIS2_EEE21_ConstructTransactionD1B8ue170006Ev, symObjAddr: 0x1EA0, symBinAddr: 0x1000062CC, symSize: 0x2C }
  - { offsetInCU: 0x12170, offset: 0x12170, size: 0x8, addend: 0x0, symName: __ZNSt3__16vectorIN16PerfectHash4Real14SecondaryTableENS_9allocatorIS2_EEE21_ConstructTransactionC2B8ue170006ERS5_m, symObjAddr: 0x1ECC, symBinAddr: 0x1000062F8, symSize: 0x4C }
  - { offsetInCU: 0x121B8, offset: 0x121B8, size: 0x8, addend: 0x0, symName: __ZNSt3__19allocatorIN16PerfectHash4Real14SecondaryTableEE9constructB8ue170006IS2_JEEEvPT_DpOT0_, symObjAddr: 0x1F18, symBinAddr: 0x100006344, symSize: 0x3C }
  - { offsetInCU: 0x121FA, offset: 0x121FA, size: 0x8, addend: 0x0, symName: __ZN16PerfectHash4Real14SecondaryTableC1Ev, symObjAddr: 0x1F54, symBinAddr: 0x100006380, symSize: 0x2C }
  - { offsetInCU: 0x12226, offset: 0x12226, size: 0x8, addend: 0x0, symName: __ZN16PerfectHash4Real14SecondaryTableC2Ev, symObjAddr: 0x1F80, symBinAddr: 0x1000063AC, symSize: 0x2C }
  - { offsetInCU: 0x12252, offset: 0x12252, size: 0x8, addend: 0x0, symName: __ZNSt3__16vectorINS_4pairIdiEENS_9allocatorIS2_EEEC1B8ue170006Ev, symObjAddr: 0x1FAC, symBinAddr: 0x1000063D8, symSize: 0x2C }
  - { offsetInCU: 0x1227C, offset: 0x1227C, size: 0x8, addend: 0x0, symName: __ZNSt3__16vectorINS_4pairIdiEENS_9allocatorIS2_EEEC2B8ue170006Ev, symObjAddr: 0x1FD8, symBinAddr: 0x100006404, symSize: 0x44 }
  - { offsetInCU: 0x122A6, offset: 0x122A6, size: 0x8, addend: 0x0, symName: __ZNSt3__117__compressed_pairIPNS_4pairIdiEENS_9allocatorIS2_EEEC1B8ue170006IDnNS_18__default_init_tagEEEOT_OT0_, symObjAddr: 0x201C, symBinAddr: 0x100006448, symSize: 0x3C }
  - { offsetInCU: 0x122FE, offset: 0x122FE, size: 0x8, addend: 0x0, symName: __ZNSt3__117__compressed_pairIPNS_4pairIdiEENS_9allocatorIS2_EEEC2B8ue170006IDnNS_18__default_init_tagEEEOT_OT0_, symObjAddr: 0x2058, symBinAddr: 0x100006484, symSize: 0x40 }
  - { offsetInCU: 0x12356, offset: 0x12356, size: 0x8, addend: 0x0, symName: __ZNSt3__122__compressed_pair_elemIPNS_4pairIdiEELi0ELb0EEC2B8ue170006IDnvEEOT_, symObjAddr: 0x2098, symBinAddr: 0x1000064C4, symSize: 0x1C }
  - { offsetInCU: 0x12398, offset: 0x12398, size: 0x8, addend: 0x0, symName: __ZNSt3__122__compressed_pair_elemINS_9allocatorINS_4pairIdiEEEELi1ELb1EEC2B8ue170006ENS_18__default_init_tagE, symObjAddr: 0x20B4, symBinAddr: 0x1000064E0, symSize: 0x2C }
  - { offsetInCU: 0x123CD, offset: 0x123CD, size: 0x8, addend: 0x0, symName: __ZNSt3__19allocatorINS_4pairIdiEEEC2B8ue170006Ev, symObjAddr: 0x20E0, symBinAddr: 0x10000650C, symSize: 0x2C }
  - { offsetInCU: 0x123F7, offset: 0x123F7, size: 0x8, addend: 0x0, symName: __ZNSt3__116__non_trivial_ifILb1ENS_9allocatorINS_4pairIdiEEEEEC2B8ue170006Ev, symObjAddr: 0x210C, symBinAddr: 0x100006538, symSize: 0x14 }
  - { offsetInCU: 0x12421, offset: 0x12421, size: 0x8, addend: 0x0, symName: __ZNSt3__16vectorIN16PerfectHash4Real14SecondaryTableENS_9allocatorIS2_EEE21_ConstructTransactionD2B8ue170006Ev, symObjAddr: 0x2120, symBinAddr: 0x10000654C, symSize: 0x20 }
  - { offsetInCU: 0x1244B, offset: 0x1244B, size: 0x8, addend: 0x0, symName: __ZNSt3__117__compressed_pairIPN16PerfectHash4Real14SecondaryTableENS_9allocatorIS2_EEE6secondB8ue170006Ev, symObjAddr: 0x2140, symBinAddr: 0x10000656C, symSize: 0x24 }
  - { offsetInCU: 0x12471, offset: 0x12471, size: 0x8, addend: 0x0, symName: __ZNSt3__122__compressed_pair_elemINS_9allocatorIN16PerfectHash4Real14SecondaryTableEEELi1ELb1EE5__getB8ue170006Ev, symObjAddr: 0x2164, symBinAddr: 0x100006590, symSize: 0x14 }
  - { offsetInCU: 0x12497, offset: 0x12497, size: 0x8, addend: 0x0, symName: __ZNKSt3__16vectorIN16PerfectHash4Real14SecondaryTableENS_9allocatorIS2_EEE8max_sizeEv, symObjAddr: 0x2178, symBinAddr: 0x1000065A4, symSize: 0x74 }
  - { offsetInCU: 0x124BE, offset: 0x124BE, size: 0x8, addend: 0x0, symName: __ZNKSt3__16vectorIN16PerfectHash4Real14SecondaryTableENS_9allocatorIS2_EEE20__throw_length_errorB8ue170006Ev, symObjAddr: 0x21EC, symBinAddr: 0x100006618, symSize: 0x1C }
  - { offsetInCU: 0x124E4, offset: 0x124E4, size: 0x8, addend: 0x0, symName: __ZNKSt3__16vectorIN16PerfectHash4Real14SecondaryTableENS_9allocatorIS2_EEE8capacityB8ue170006Ev, symObjAddr: 0x2208, symBinAddr: 0x100006634, symSize: 0x40 }
  - { offsetInCU: 0x12514, offset: 0x12514, size: 0x8, addend: 0x0, symName: __ZNSt3__116allocator_traitsINS_9allocatorIN16PerfectHash4Real14SecondaryTableEEEE8max_sizeB8ue170006IS4_vEEmRKS4_, symObjAddr: 0x22A0, symBinAddr: 0x1000066CC, symSize: 0x24 }
  - { offsetInCU: 0x12542, offset: 0x12542, size: 0x8, addend: 0x0, symName: __ZNKSt3__16vectorIN16PerfectHash4Real14SecondaryTableENS_9allocatorIS2_EEE7__allocB8ue170006Ev, symObjAddr: 0x22C4, symBinAddr: 0x1000066F0, symSize: 0x28 }
  - { offsetInCU: 0x12568, offset: 0x12568, size: 0x8, addend: 0x0, symName: __ZNSt3__114numeric_limitsIlE3maxB8ue170006Ev, symObjAddr: 0x22EC, symBinAddr: 0x100006718, symSize: 0x14 }
  - { offsetInCU: 0x12586, offset: 0x12586, size: 0x8, addend: 0x0, symName: __ZNKSt3__16__lessIvvEclB8ue170006ImmEEbRKT_RKT0_, symObjAddr: 0x2354, symBinAddr: 0x100006780, symSize: 0x34 }
  - { offsetInCU: 0x125DA, offset: 0x125DA, size: 0x8, addend: 0x0, symName: __ZNKSt3__19allocatorIN16PerfectHash4Real14SecondaryTableEE8max_sizeB8ue170006Ev, symObjAddr: 0x2388, symBinAddr: 0x1000067B4, symSize: 0x18 }
  - { offsetInCU: 0x12600, offset: 0x12600, size: 0x8, addend: 0x0, symName: __ZNKSt3__117__compressed_pairIPN16PerfectHash4Real14SecondaryTableENS_9allocatorIS2_EEE6secondB8ue170006Ev, symObjAddr: 0x23A0, symBinAddr: 0x1000067CC, symSize: 0x24 }
  - { offsetInCU: 0x12626, offset: 0x12626, size: 0x8, addend: 0x0, symName: __ZNKSt3__122__compressed_pair_elemINS_9allocatorIN16PerfectHash4Real14SecondaryTableEEELi1ELb1EE5__getB8ue170006Ev, symObjAddr: 0x23C4, symBinAddr: 0x1000067F0, symSize: 0x14 }
  - { offsetInCU: 0x1264C, offset: 0x1264C, size: 0x8, addend: 0x0, symName: __ZNSt3__123__libcpp_numeric_limitsIlLb1EE3maxB8ue170006Ev, symObjAddr: 0x23D8, symBinAddr: 0x100006804, symSize: 0x8 }
  - { offsetInCU: 0x12660, offset: 0x12660, size: 0x8, addend: 0x0, symName: __ZNSt12length_errorC1B8ue170006EPKc, symObjAddr: 0x2444, symBinAddr: 0x100006870, symSize: 0x34 }
  - { offsetInCU: 0x12698, offset: 0x12698, size: 0x8, addend: 0x0, symName: __ZNSt12length_errorC2B8ue170006EPKc, symObjAddr: 0x2478, symBinAddr: 0x1000068A4, symSize: 0x4C }
  - { offsetInCU: 0x126D0, offset: 0x126D0, size: 0x8, addend: 0x0, symName: __ZNKSt3__16vectorIN16PerfectHash4Real14SecondaryTableENS_9allocatorIS2_EEE9__end_capB8ue170006Ev, symObjAddr: 0x24C4, symBinAddr: 0x1000068F0, symSize: 0x28 }
  - { offsetInCU: 0x126F6, offset: 0x126F6, size: 0x8, addend: 0x0, symName: __ZNKSt3__117__compressed_pairIPN16PerfectHash4Real14SecondaryTableENS_9allocatorIS2_EEE5firstB8ue170006Ev, symObjAddr: 0x24EC, symBinAddr: 0x100006918, symSize: 0x24 }
  - { offsetInCU: 0x1271C, offset: 0x1271C, size: 0x8, addend: 0x0, symName: __ZNKSt3__122__compressed_pair_elemIPN16PerfectHash4Real14SecondaryTableELi0ELb0EE5__getB8ue170006Ev, symObjAddr: 0x2510, symBinAddr: 0x10000693C, symSize: 0x14 }
  - { offsetInCU: 0x12742, offset: 0x12742, size: 0x8, addend: 0x0, symName: __ZNSt3__114__split_bufferIN16PerfectHash4Real14SecondaryTableERNS_9allocatorIS2_EEEC2EmmS5_, symObjAddr: 0x2578, symBinAddr: 0x1000069A4, symSize: 0xE0 }
  - { offsetInCU: 0x127B6, offset: 0x127B6, size: 0x8, addend: 0x0, symName: __ZNSt3__117__compressed_pairIPN16PerfectHash4Real14SecondaryTableERNS_9allocatorIS2_EEEC1B8ue170006IDnS6_EEOT_OT0_, symObjAddr: 0x2658, symBinAddr: 0x100006A84, symSize: 0x3C }
  - { offsetInCU: 0x1280E, offset: 0x1280E, size: 0x8, addend: 0x0, symName: __ZNSt3__114__split_bufferIN16PerfectHash4Real14SecondaryTableERNS_9allocatorIS2_EEE7__allocB8ue170006Ev, symObjAddr: 0x26D4, symBinAddr: 0x100006B00, symSize: 0x28 }
  - { offsetInCU: 0x12834, offset: 0x12834, size: 0x8, addend: 0x0, symName: __ZNSt3__114__split_bufferIN16PerfectHash4Real14SecondaryTableERNS_9allocatorIS2_EEE9__end_capB8ue170006Ev, symObjAddr: 0x26FC, symBinAddr: 0x100006B28, symSize: 0x28 }
  - { offsetInCU: 0x1285A, offset: 0x1285A, size: 0x8, addend: 0x0, symName: __ZNSt3__117__compressed_pairIPN16PerfectHash4Real14SecondaryTableERNS_9allocatorIS2_EEEC2B8ue170006IDnS6_EEOT_OT0_, symObjAddr: 0x2724, symBinAddr: 0x100006B50, symSize: 0x48 }
  - { offsetInCU: 0x128B2, offset: 0x128B2, size: 0x8, addend: 0x0, symName: __ZNSt3__122__compressed_pair_elemIRNS_9allocatorIN16PerfectHash4Real14SecondaryTableEEELi1ELb0EEC2B8ue170006IS5_vEEOT_, symObjAddr: 0x276C, symBinAddr: 0x100006B98, symSize: 0x20 }
  - { offsetInCU: 0x128F4, offset: 0x128F4, size: 0x8, addend: 0x0, symName: __ZNSt3__19allocatorIN16PerfectHash4Real14SecondaryTableEE8allocateB8ue170006Em, symObjAddr: 0x278C, symBinAddr: 0x100006BB8, symSize: 0x8C }
  - { offsetInCU: 0x12928, offset: 0x12928, size: 0x8, addend: 0x0, symName: __ZNSt3__117__compressed_pairIPN16PerfectHash4Real14SecondaryTableERNS_9allocatorIS2_EEE6secondB8ue170006Ev, symObjAddr: 0x28A4, symBinAddr: 0x100006CD0, symSize: 0x28 }
  - { offsetInCU: 0x1294E, offset: 0x1294E, size: 0x8, addend: 0x0, symName: __ZNSt3__122__compressed_pair_elemIRNS_9allocatorIN16PerfectHash4Real14SecondaryTableEEELi1ELb0EE5__getB8ue170006Ev, symObjAddr: 0x28CC, symBinAddr: 0x100006CF8, symSize: 0x18 }
  - { offsetInCU: 0x12974, offset: 0x12974, size: 0x8, addend: 0x0, symName: __ZNSt3__117__compressed_pairIPN16PerfectHash4Real14SecondaryTableERNS_9allocatorIS2_EEE5firstB8ue170006Ev, symObjAddr: 0x28E4, symBinAddr: 0x100006D10, symSize: 0x24 }
  - { offsetInCU: 0x129A4, offset: 0x129A4, size: 0x8, addend: 0x0, symName: __ZNSt3__114__split_bufferIN16PerfectHash4Real14SecondaryTableERNS_9allocatorIS2_EEE21_ConstructTransactionC1B8ue170006EPPS2_m, symObjAddr: 0x2908, symBinAddr: 0x100006D34, symSize: 0x3C }
  - { offsetInCU: 0x129EA, offset: 0x129EA, size: 0x8, addend: 0x0, symName: __ZNSt3__114__split_bufferIN16PerfectHash4Real14SecondaryTableERNS_9allocatorIS2_EEE21_ConstructTransactionD1B8ue170006Ev, symObjAddr: 0x2944, symBinAddr: 0x100006D70, symSize: 0x2C }
  - { offsetInCU: 0x12A14, offset: 0x12A14, size: 0x8, addend: 0x0, symName: __ZNSt3__114__split_bufferIN16PerfectHash4Real14SecondaryTableERNS_9allocatorIS2_EEE21_ConstructTransactionC2B8ue170006EPPS2_m, symObjAddr: 0x2970, symBinAddr: 0x100006D9C, symSize: 0x4C }
  - { offsetInCU: 0x12A5A, offset: 0x12A5A, size: 0x8, addend: 0x0, symName: __ZNSt3__114__split_bufferIN16PerfectHash4Real14SecondaryTableERNS_9allocatorIS2_EEE21_ConstructTransactionD2B8ue170006Ev, symObjAddr: 0x29BC, symBinAddr: 0x100006DE8, symSize: 0x20 }
  - { offsetInCU: 0x12A84, offset: 0x12A84, size: 0x8, addend: 0x0, symName: __ZNKSt3__16vectorIN16PerfectHash4Real14SecondaryTableENS_9allocatorIS2_EEE17__annotate_deleteB8ue170006Ev, symObjAddr: 0x29DC, symBinAddr: 0x100006E08, symSize: 0xD4 }
  - { offsetInCU: 0x12AAA, offset: 0x12AAA, size: 0x8, addend: 0x0, symName: __ZNSt3__116reverse_iteratorIPN16PerfectHash4Real14SecondaryTableEEC1B8ue170006ES3_, symObjAddr: 0x2BE4, symBinAddr: 0x100007010, symSize: 0x34 }
  - { offsetInCU: 0x12AE2, offset: 0x12AE2, size: 0x8, addend: 0x0, symName: __ZNKSt3__116reverse_iteratorIPN16PerfectHash4Real14SecondaryTableEE4baseB8ue170006Ev, symObjAddr: 0x2C18, symBinAddr: 0x100007044, symSize: 0x18 }
  - { offsetInCU: 0x12B08, offset: 0x12B08, size: 0x8, addend: 0x0, symName: __ZNKSt3__16vectorIN16PerfectHash4Real14SecondaryTableENS_9allocatorIS2_EEE14__annotate_newB8ue170006Em, symObjAddr: 0x2C6C, symBinAddr: 0x100007098, symSize: 0xC8 }
  - { offsetInCU: 0x12B3D, offset: 0x12B3D, size: 0x8, addend: 0x0, symName: __ZNKSt3__16vectorIN16PerfectHash4Real14SecondaryTableENS_9allocatorIS2_EEE31__annotate_contiguous_containerB8ue170006EPKvS7_S7_S7_, symObjAddr: 0x2D34, symBinAddr: 0x100007160, symSize: 0x20 }
  - { offsetInCU: 0x12B8F, offset: 0x12B8F, size: 0x8, addend: 0x0, symName: __ZNKSt3__16vectorIN16PerfectHash4Real14SecondaryTableENS_9allocatorIS2_EEE4dataB8ue170006Ev, symObjAddr: 0x2D54, symBinAddr: 0x100007180, symSize: 0x28 }
  - { offsetInCU: 0x12BB5, offset: 0x12BB5, size: 0x8, addend: 0x0, symName: __ZNSt3__129_AllocatorDestroyRangeReverseINS_9allocatorIN16PerfectHash4Real14SecondaryTableEEENS_16reverse_iteratorIPS3_EEEC1B8ue170006ERS4_RS7_SA_, symObjAddr: 0x2DC8, symBinAddr: 0x1000071F4, symSize: 0x44 }
  - { offsetInCU: 0x12C0C, offset: 0x12C0C, size: 0x8, addend: 0x0, symName: __ZNSt3__116allocator_traitsINS_9allocatorIN16PerfectHash4Real14SecondaryTableEEEE9constructB8ue170006IS3_JRKS3_EvEEvRS4_PT_DpOT0_, symObjAddr: 0x2E54, symBinAddr: 0x100007280, symSize: 0x34 }
  - { offsetInCU: 0x12C63, offset: 0x12C63, size: 0x8, addend: 0x0, symName: __ZNKSt3__116reverse_iteratorIPN16PerfectHash4Real14SecondaryTableEEdeB8ue170006Ev, symObjAddr: 0x2EAC, symBinAddr: 0x1000072D8, symSize: 0x28 }
  - { offsetInCU: 0x12C97, offset: 0x12C97, size: 0x8, addend: 0x0, symName: __ZNSt3__116reverse_iteratorIPN16PerfectHash4Real14SecondaryTableEEppB8ue170006Ev, symObjAddr: 0x2ED4, symBinAddr: 0x100007300, symSize: 0x20 }
  - { offsetInCU: 0x12CBD, offset: 0x12CBD, size: 0x8, addend: 0x0, symName: __ZNSt3__128__exception_guard_exceptionsINS_29_AllocatorDestroyRangeReverseINS_9allocatorIN16PerfectHash4Real14SecondaryTableEEENS_16reverse_iteratorIPS4_EEEEE10__completeB8ue170006Ev, symObjAddr: 0x2EF4, symBinAddr: 0x100007320, symSize: 0x1C }
  - { offsetInCU: 0x12CE3, offset: 0x12CE3, size: 0x8, addend: 0x0, symName: __ZNSt3__128__exception_guard_exceptionsINS_29_AllocatorDestroyRangeReverseINS_9allocatorIN16PerfectHash4Real14SecondaryTableEEENS_16reverse_iteratorIPS4_EEEEED1B8ue170006Ev, symObjAddr: 0x2F10, symBinAddr: 0x10000733C, symSize: 0x2C }
  - { offsetInCU: 0x12D0D, offset: 0x12D0D, size: 0x8, addend: 0x0, symName: __ZNSt3__128__exception_guard_exceptionsINS_29_AllocatorDestroyRangeReverseINS_9allocatorIN16PerfectHash4Real14SecondaryTableEEENS_16reverse_iteratorIPS4_EEEEEC1B8ue170006ES9_, symObjAddr: 0x2F3C, symBinAddr: 0x100007368, symSize: 0x34 }
  - { offsetInCU: 0x12D46, offset: 0x12D46, size: 0x8, addend: 0x0, symName: __ZNSt3__128__exception_guard_exceptionsINS_29_AllocatorDestroyRangeReverseINS_9allocatorIN16PerfectHash4Real14SecondaryTableEEENS_16reverse_iteratorIPS4_EEEEEC2B8ue170006ES9_, symObjAddr: 0x2F70, symBinAddr: 0x10000739C, symSize: 0x30 }
  - { offsetInCU: 0x12D7F, offset: 0x12D7F, size: 0x8, addend: 0x0, symName: __ZNSt3__129_AllocatorDestroyRangeReverseINS_9allocatorIN16PerfectHash4Real14SecondaryTableEEENS_16reverse_iteratorIPS3_EEEC2B8ue170006ERS4_RS7_SA_, symObjAddr: 0x2FA0, symBinAddr: 0x1000073CC, symSize: 0x38 }
  - { offsetInCU: 0x12DD6, offset: 0x12DD6, size: 0x8, addend: 0x0, symName: __ZNSt3__19allocatorIN16PerfectHash4Real14SecondaryTableEE9constructB8ue170006IS2_JRKS2_EEEvPT_DpOT0_, symObjAddr: 0x2FD8, symBinAddr: 0x100007404, symSize: 0x30 }
  - { offsetInCU: 0x12E2C, offset: 0x12E2C, size: 0x8, addend: 0x0, symName: __ZN16PerfectHash4Real14SecondaryTableC1ERKS0_, symObjAddr: 0x3008, symBinAddr: 0x100007434, symSize: 0x34 }
  - { offsetInCU: 0x12E61, offset: 0x12E61, size: 0x8, addend: 0x0, symName: __ZN16PerfectHash4Real14SecondaryTableC2ERKS0_, symObjAddr: 0x303C, symBinAddr: 0x100007468, symSize: 0x48 }
  - { offsetInCU: 0x12E96, offset: 0x12E96, size: 0x8, addend: 0x0, symName: __ZNSt3__16vectorINS_4pairIdiEENS_9allocatorIS2_EEEC1ERKS5_, symObjAddr: 0x3084, symBinAddr: 0x1000074B0, symSize: 0x34 }
  - { offsetInCU: 0x12ED1, offset: 0x12ED1, size: 0x8, addend: 0x0, symName: __ZNSt3__16vectorINS_4pairIdiEENS_9allocatorIS2_EEEC2ERKS5_, symObjAddr: 0x30B8, symBinAddr: 0x1000074E4, symSize: 0x94 }
  - { offsetInCU: 0x12F16, offset: 0x12F16, size: 0x8, addend: 0x0, symName: __ZNSt3__116allocator_traitsINS_9allocatorINS_4pairIdiEEEEE37select_on_container_copy_constructionB8ue170006IS4_vvEES4_RKS4_, symObjAddr: 0x314C, symBinAddr: 0x100007578, symSize: 0x10 }
  - { offsetInCU: 0x12F45, offset: 0x12F45, size: 0x8, addend: 0x0, symName: __ZNKSt3__16vectorINS_4pairIdiEENS_9allocatorIS2_EEE7__allocB8ue170006Ev, symObjAddr: 0x315C, symBinAddr: 0x100007588, symSize: 0x28 }
  - { offsetInCU: 0x12F70, offset: 0x12F70, size: 0x8, addend: 0x0, symName: __ZNSt3__117__compressed_pairIPNS_4pairIdiEENS_9allocatorIS2_EEEC1B8ue170006IDnS5_EEOT_OT0_, symObjAddr: 0x3184, symBinAddr: 0x1000075B0, symSize: 0x3C }
  - { offsetInCU: 0x12FC8, offset: 0x12FC8, size: 0x8, addend: 0x0, symName: __ZNSt3__16vectorINS_4pairIdiEENS_9allocatorIS2_EEE16__init_with_sizeB8ue170006IPS2_S7_EEvT_T0_m, symObjAddr: 0x31C0, symBinAddr: 0x1000075EC, symSize: 0xC0 }
  - { offsetInCU: 0x1303C, offset: 0x1303C, size: 0x8, addend: 0x0, symName: __ZNKSt3__16vectorINS_4pairIdiEENS_9allocatorIS2_EEE4sizeB8ue170006Ev, symObjAddr: 0x3280, symBinAddr: 0x1000076AC, symSize: 0x28 }
  - { offsetInCU: 0x13062, offset: 0x13062, size: 0x8, addend: 0x0, symName: __ZNKSt3__117__compressed_pairIPNS_4pairIdiEENS_9allocatorIS2_EEE6secondB8ue170006Ev, symObjAddr: 0x32A8, symBinAddr: 0x1000076D4, symSize: 0x24 }
  - { offsetInCU: 0x13088, offset: 0x13088, size: 0x8, addend: 0x0, symName: __ZNKSt3__122__compressed_pair_elemINS_9allocatorINS_4pairIdiEEEELi1ELb1EE5__getB8ue170006Ev, symObjAddr: 0x32CC, symBinAddr: 0x1000076F8, symSize: 0x14 }
  - { offsetInCU: 0x130AE, offset: 0x130AE, size: 0x8, addend: 0x0, symName: __ZNSt3__117__compressed_pairIPNS_4pairIdiEENS_9allocatorIS2_EEEC2B8ue170006IDnS5_EEOT_OT0_, symObjAddr: 0x32E0, symBinAddr: 0x10000770C, symSize: 0x44 }
  - { offsetInCU: 0x13106, offset: 0x13106, size: 0x8, addend: 0x0, symName: __ZNSt3__122__compressed_pair_elemINS_9allocatorINS_4pairIdiEEEELi1ELb1EEC2B8ue170006IS4_vEEOT_, symObjAddr: 0x3324, symBinAddr: 0x100007750, symSize: 0x18 }
  - { offsetInCU: 0x13148, offset: 0x13148, size: 0x8, addend: 0x0, symName: __ZNSt3__16vectorINS_4pairIdiEENS_9allocatorIS2_EEE16__destroy_vectorC1B8ue170006ERS5_, symObjAddr: 0x337C, symBinAddr: 0x1000077A8, symSize: 0x34 }
  - { offsetInCU: 0x13181, offset: 0x13181, size: 0x8, addend: 0x0, symName: __ZNSt3__16vectorINS_4pairIdiEENS_9allocatorIS2_EEE11__vallocateB8ue170006Em, symObjAddr: 0x33B0, symBinAddr: 0x1000077DC, symSize: 0xAC }
  - { offsetInCU: 0x131C5, offset: 0x131C5, size: 0x8, addend: 0x0, symName: __ZNSt3__16vectorINS_4pairIdiEENS_9allocatorIS2_EEE18__construct_at_endIPS2_S7_EEvT_T0_m, symObjAddr: 0x345C, symBinAddr: 0x100007888, symSize: 0x94 }
  - { offsetInCU: 0x1323A, offset: 0x1323A, size: 0x8, addend: 0x0, symName: __ZNSt3__128__exception_guard_exceptionsINS_6vectorINS_4pairIdiEENS_9allocatorIS3_EEE16__destroy_vectorEE10__completeB8ue170006Ev, symObjAddr: 0x34F0, symBinAddr: 0x10000791C, symSize: 0x1C }
  - { offsetInCU: 0x13260, offset: 0x13260, size: 0x8, addend: 0x0, symName: __ZNSt3__128__exception_guard_exceptionsINS_6vectorINS_4pairIdiEENS_9allocatorIS3_EEE16__destroy_vectorEED1B8ue170006Ev, symObjAddr: 0x350C, symBinAddr: 0x100007938, symSize: 0x2C }
  - { offsetInCU: 0x1328A, offset: 0x1328A, size: 0x8, addend: 0x0, symName: __ZNSt3__128__exception_guard_exceptionsINS_6vectorINS_4pairIdiEENS_9allocatorIS3_EEE16__destroy_vectorEEC1B8ue170006ES7_, symObjAddr: 0x3538, symBinAddr: 0x100007964, symSize: 0x34 }
  - { offsetInCU: 0x132C2, offset: 0x132C2, size: 0x8, addend: 0x0, symName: __ZNSt3__128__exception_guard_exceptionsINS_6vectorINS_4pairIdiEENS_9allocatorIS3_EEE16__destroy_vectorEEC2B8ue170006ES7_, symObjAddr: 0x356C, symBinAddr: 0x100007998, symSize: 0x24 }
  - { offsetInCU: 0x132FA, offset: 0x132FA, size: 0x8, addend: 0x0, symName: __ZNSt3__16vectorINS_4pairIdiEENS_9allocatorIS2_EEE16__destroy_vectorC2B8ue170006ERS5_, symObjAddr: 0x3590, symBinAddr: 0x1000079BC, symSize: 0x20 }
  - { offsetInCU: 0x13333, offset: 0x13333, size: 0x8, addend: 0x0, symName: __ZNKSt3__16vectorINS_4pairIdiEENS_9allocatorIS2_EEE8max_sizeEv, symObjAddr: 0x35B0, symBinAddr: 0x1000079DC, symSize: 0x74 }
  - { offsetInCU: 0x1335A, offset: 0x1335A, size: 0x8, addend: 0x0, symName: __ZNKSt3__16vectorINS_4pairIdiEENS_9allocatorIS2_EEE20__throw_length_errorB8ue170006Ev, symObjAddr: 0x3624, symBinAddr: 0x100007A50, symSize: 0x1C }
  - { offsetInCU: 0x13380, offset: 0x13380, size: 0x8, addend: 0x0, symName: __ZNSt3__16vectorINS_4pairIdiEENS_9allocatorIS2_EEE7__allocB8ue170006Ev, symObjAddr: 0x3680, symBinAddr: 0x100007AAC, symSize: 0x28 }
  - { offsetInCU: 0x133A6, offset: 0x133A6, size: 0x8, addend: 0x0, symName: __ZNSt3__16vectorINS_4pairIdiEENS_9allocatorIS2_EEE9__end_capB8ue170006Ev, symObjAddr: 0x36A8, symBinAddr: 0x100007AD4, symSize: 0x28 }
  - { offsetInCU: 0x133CC, offset: 0x133CC, size: 0x8, addend: 0x0, symName: __ZNKSt3__16vectorINS_4pairIdiEENS_9allocatorIS2_EEE14__annotate_newB8ue170006Em, symObjAddr: 0x36D0, symBinAddr: 0x100007AFC, symSize: 0xAC }
  - { offsetInCU: 0x13401, offset: 0x13401, size: 0x8, addend: 0x0, symName: __ZNSt3__116allocator_traitsINS_9allocatorINS_4pairIdiEEEEE8max_sizeB8ue170006IS4_vEEmRKS4_, symObjAddr: 0x377C, symBinAddr: 0x100007BA8, symSize: 0x24 }
  - { offsetInCU: 0x1342F, offset: 0x1342F, size: 0x8, addend: 0x0, symName: __ZNKSt3__19allocatorINS_4pairIdiEEE8max_sizeB8ue170006Ev, symObjAddr: 0x37A0, symBinAddr: 0x100007BCC, symSize: 0x14 }
  - { offsetInCU: 0x13455, offset: 0x13455, size: 0x8, addend: 0x0, symName: __ZNSt3__19allocatorINS_4pairIdiEEE8allocateB8ue170006Em, symObjAddr: 0x37B4, symBinAddr: 0x100007BE0, symSize: 0x84 }
  - { offsetInCU: 0x13489, offset: 0x13489, size: 0x8, addend: 0x0, symName: __ZNSt3__117__compressed_pairIPNS_4pairIdiEENS_9allocatorIS2_EEE6secondB8ue170006Ev, symObjAddr: 0x3838, symBinAddr: 0x100007C64, symSize: 0x24 }
  - { offsetInCU: 0x134AF, offset: 0x134AF, size: 0x8, addend: 0x0, symName: __ZNSt3__122__compressed_pair_elemINS_9allocatorINS_4pairIdiEEEELi1ELb1EE5__getB8ue170006Ev, symObjAddr: 0x385C, symBinAddr: 0x100007C88, symSize: 0x14 }
  - { offsetInCU: 0x134D5, offset: 0x134D5, size: 0x8, addend: 0x0, symName: __ZNSt3__117__compressed_pairIPNS_4pairIdiEENS_9allocatorIS2_EEE5firstB8ue170006Ev, symObjAddr: 0x3870, symBinAddr: 0x100007C9C, symSize: 0x24 }
  - { offsetInCU: 0x134FB, offset: 0x134FB, size: 0x8, addend: 0x0, symName: __ZNSt3__122__compressed_pair_elemIPNS_4pairIdiEELi0ELb0EE5__getB8ue170006Ev, symObjAddr: 0x3894, symBinAddr: 0x100007CC0, symSize: 0x14 }
  - { offsetInCU: 0x13521, offset: 0x13521, size: 0x8, addend: 0x0, symName: __ZNKSt3__16vectorINS_4pairIdiEENS_9allocatorIS2_EEE31__annotate_contiguous_containerB8ue170006EPKvS7_S7_S7_, symObjAddr: 0x38A8, symBinAddr: 0x100007CD4, symSize: 0x20 }
  - { offsetInCU: 0x13573, offset: 0x13573, size: 0x8, addend: 0x0, symName: __ZNKSt3__16vectorINS_4pairIdiEENS_9allocatorIS2_EEE4dataB8ue170006Ev, symObjAddr: 0x38C8, symBinAddr: 0x100007CF4, symSize: 0x28 }
  - { offsetInCU: 0x13599, offset: 0x13599, size: 0x8, addend: 0x0, symName: __ZNKSt3__16vectorINS_4pairIdiEENS_9allocatorIS2_EEE8capacityB8ue170006Ev, symObjAddr: 0x38F0, symBinAddr: 0x100007D1C, symSize: 0x40 }
  - { offsetInCU: 0x135BF, offset: 0x135BF, size: 0x8, addend: 0x0, symName: __ZNKSt3__16vectorINS_4pairIdiEENS_9allocatorIS2_EEE9__end_capB8ue170006Ev, symObjAddr: 0x3944, symBinAddr: 0x100007D70, symSize: 0x28 }
  - { offsetInCU: 0x135E5, offset: 0x135E5, size: 0x8, addend: 0x0, symName: __ZNKSt3__117__compressed_pairIPNS_4pairIdiEENS_9allocatorIS2_EEE5firstB8ue170006Ev, symObjAddr: 0x396C, symBinAddr: 0x100007D98, symSize: 0x24 }
  - { offsetInCU: 0x1360B, offset: 0x1360B, size: 0x8, addend: 0x0, symName: __ZNKSt3__122__compressed_pair_elemIPNS_4pairIdiEELi0ELb0EE5__getB8ue170006Ev, symObjAddr: 0x3990, symBinAddr: 0x100007DBC, symSize: 0x14 }
  - { offsetInCU: 0x1364A, offset: 0x1364A, size: 0x8, addend: 0x0, symName: __ZNSt3__16vectorINS_4pairIdiEENS_9allocatorIS2_EEE21_ConstructTransactionC1B8ue170006ERS5_m, symObjAddr: 0x39A4, symBinAddr: 0x100007DD0, symSize: 0x3C }
  - { offsetInCU: 0x13692, offset: 0x13692, size: 0x8, addend: 0x0, symName: __ZNSt3__16vectorINS_4pairIdiEENS_9allocatorIS2_EEE21_ConstructTransactionD1B8ue170006Ev, symObjAddr: 0x3A60, symBinAddr: 0x100007E8C, symSize: 0x2C }
  - { offsetInCU: 0x136BC, offset: 0x136BC, size: 0x8, addend: 0x0, symName: __ZNSt3__16vectorINS_4pairIdiEENS_9allocatorIS2_EEE21_ConstructTransactionC2B8ue170006ERS5_m, symObjAddr: 0x3A8C, symBinAddr: 0x100007EB8, symSize: 0x44 }
  - { offsetInCU: 0x1371D, offset: 0x1371D, size: 0x8, addend: 0x0, symName: __ZNSt3__14pairIPNS0_IdiEES2_EC1B8ue170006ERKS2_S5_, symObjAddr: 0x3CD8, symBinAddr: 0x100008104, symSize: 0x3C }
  - { offsetInCU: 0x13763, offset: 0x13763, size: 0x8, addend: 0x0, symName: __ZNSt3__14pairIPNS0_IdiEES2_EC2B8ue170006ERKS2_S5_, symObjAddr: 0x3D14, symBinAddr: 0x100008140, symSize: 0x34 }
  - { offsetInCU: 0x137A9, offset: 0x137A9, size: 0x8, addend: 0x0, symName: __ZNSt3__129_AllocatorDestroyRangeReverseINS_9allocatorINS_4pairIdiEEEEPS3_EC1B8ue170006ERS4_RS5_S8_, symObjAddr: 0x3D94, symBinAddr: 0x1000081C0, symSize: 0x44 }
  - { offsetInCU: 0x13800, offset: 0x13800, size: 0x8, addend: 0x0, symName: __ZNSt3__116allocator_traitsINS_9allocatorINS_4pairIdiEEEEE9constructB8ue170006IS3_JRS3_EvEEvRS4_PT_DpOT0_, symObjAddr: 0x3DD8, symBinAddr: 0x100008204, symSize: 0x34 }
  - { offsetInCU: 0x13857, offset: 0x13857, size: 0x8, addend: 0x0, symName: __ZNSt3__128__exception_guard_exceptionsINS_29_AllocatorDestroyRangeReverseINS_9allocatorINS_4pairIdiEEEEPS4_EEE10__completeB8ue170006Ev, symObjAddr: 0x3E0C, symBinAddr: 0x100008238, symSize: 0x1C }
  - { offsetInCU: 0x1387D, offset: 0x1387D, size: 0x8, addend: 0x0, symName: __ZNSt3__128__exception_guard_exceptionsINS_29_AllocatorDestroyRangeReverseINS_9allocatorINS_4pairIdiEEEEPS4_EEED1B8ue170006Ev, symObjAddr: 0x3E28, symBinAddr: 0x100008254, symSize: 0x2C }
  - { offsetInCU: 0x138A7, offset: 0x138A7, size: 0x8, addend: 0x0, symName: __ZNSt3__128__exception_guard_exceptionsINS_29_AllocatorDestroyRangeReverseINS_9allocatorINS_4pairIdiEEEEPS4_EEEC1B8ue170006ES7_, symObjAddr: 0x3E54, symBinAddr: 0x100008280, symSize: 0x34 }
  - { offsetInCU: 0x138E0, offset: 0x138E0, size: 0x8, addend: 0x0, symName: __ZNSt3__128__exception_guard_exceptionsINS_29_AllocatorDestroyRangeReverseINS_9allocatorINS_4pairIdiEEEEPS4_EEEC2B8ue170006ES7_, symObjAddr: 0x3E88, symBinAddr: 0x1000082B4, symSize: 0x30 }
  - { offsetInCU: 0x13919, offset: 0x13919, size: 0x8, addend: 0x0, symName: __ZNSt3__129_AllocatorDestroyRangeReverseINS_9allocatorINS_4pairIdiEEEEPS3_EC2B8ue170006ERS4_RS5_S8_, symObjAddr: 0x3EB8, symBinAddr: 0x1000082E4, symSize: 0x38 }
  - { offsetInCU: 0x13970, offset: 0x13970, size: 0x8, addend: 0x0, symName: __ZNSt3__19allocatorINS_4pairIdiEEE9constructB8ue170006IS2_JRS2_EEEvPT_DpOT0_, symObjAddr: 0x3EF0, symBinAddr: 0x10000831C, symSize: 0x28 }
  - { offsetInCU: 0x139C6, offset: 0x139C6, size: 0x8, addend: 0x0, symName: __ZNSt3__128__exception_guard_exceptionsINS_29_AllocatorDestroyRangeReverseINS_9allocatorINS_4pairIdiEEEEPS4_EEED2B8ue170006Ev, symObjAddr: 0x3F18, symBinAddr: 0x100008344, symSize: 0x48 }
  - { offsetInCU: 0x139F0, offset: 0x139F0, size: 0x8, addend: 0x0, symName: __ZNKSt3__129_AllocatorDestroyRangeReverseINS_9allocatorINS_4pairIdiEEEEPS3_EclB8ue170006Ev, symObjAddr: 0x3F60, symBinAddr: 0x10000838C, symSize: 0x68 }
  - { offsetInCU: 0x13A16, offset: 0x13A16, size: 0x8, addend: 0x0, symName: __ZNSt3__116reverse_iteratorIPNS_4pairIdiEEEC1B8ue170006ES3_, symObjAddr: 0x4038, symBinAddr: 0x100008464, symSize: 0x34 }
  - { offsetInCU: 0x13A4E, offset: 0x13A4E, size: 0x8, addend: 0x0, symName: __ZNSt3__116allocator_traitsINS_9allocatorINS_4pairIdiEEEEE7destroyB8ue170006IS3_vEEvRS4_PT_, symObjAddr: 0x40B4, symBinAddr: 0x1000084E0, symSize: 0x2C }
  - { offsetInCU: 0x13A8B, offset: 0x13A8B, size: 0x8, addend: 0x0, symName: __ZNSt3__116reverse_iteratorIPNS_4pairIdiEEEppB8ue170006Ev, symObjAddr: 0x4104, symBinAddr: 0x100008530, symSize: 0x20 }
  - { offsetInCU: 0x13AB1, offset: 0x13AB1, size: 0x8, addend: 0x0, symName: __ZNKSt3__116reverse_iteratorIPNS_4pairIdiEEE4baseB8ue170006Ev, symObjAddr: 0x4124, symBinAddr: 0x100008550, symSize: 0x18 }
  - { offsetInCU: 0x13AD7, offset: 0x13AD7, size: 0x8, addend: 0x0, symName: __ZNSt3__19allocatorINS_4pairIdiEEE7destroyB8ue170006EPS2_, symObjAddr: 0x413C, symBinAddr: 0x100008568, symSize: 0x14 }
  - { offsetInCU: 0x13B10, offset: 0x13B10, size: 0x8, addend: 0x0, symName: __ZNSt3__119__to_address_helperINS_16reverse_iteratorIPNS_4pairIdiEEEEvE6__callB8ue170006ERKS5_, symObjAddr: 0x4150, symBinAddr: 0x10000857C, symSize: 0x4C }
  - { offsetInCU: 0x13B33, offset: 0x13B33, size: 0x8, addend: 0x0, symName: __ZNKSt3__116reverse_iteratorIPNS_4pairIdiEEEptB8ue170006Ev, symObjAddr: 0x419C, symBinAddr: 0x1000085C8, symSize: 0x24 }
  - { offsetInCU: 0x13B59, offset: 0x13B59, size: 0x8, addend: 0x0, symName: __ZNKSt3__116reverse_iteratorIPNS_4pairIdiEEEdeB8ue170006Ev, symObjAddr: 0x41C0, symBinAddr: 0x1000085EC, symSize: 0x28 }
  - { offsetInCU: 0x13B8D, offset: 0x13B8D, size: 0x8, addend: 0x0, symName: __ZNSt3__116reverse_iteratorIPNS_4pairIdiEEEC2B8ue170006ES3_, symObjAddr: 0x41E8, symBinAddr: 0x100008614, symSize: 0x28 }
  - { offsetInCU: 0x13BC5, offset: 0x13BC5, size: 0x8, addend: 0x0, symName: __ZNSt3__118__unwrap_iter_implIPNS_4pairIdiEELb1EE8__unwrapB8ue170006ES3_, symObjAddr: 0x4210, symBinAddr: 0x10000863C, symSize: 0x24 }
  - { offsetInCU: 0x13BE8, offset: 0x13BE8, size: 0x8, addend: 0x0, symName: __ZNSt3__118__unwrap_iter_implIPNS_4pairIdiEELb1EE8__rewrapB8ue170006ES3_S3_, symObjAddr: 0x4234, symBinAddr: 0x100008660, symSize: 0x50 }
  - { offsetInCU: 0x13C19, offset: 0x13C19, size: 0x8, addend: 0x0, symName: __ZNSt3__16vectorINS_4pairIdiEENS_9allocatorIS2_EEE21_ConstructTransactionD2B8ue170006Ev, symObjAddr: 0x4284, symBinAddr: 0x1000086B0, symSize: 0x20 }
  - { offsetInCU: 0x13C43, offset: 0x13C43, size: 0x8, addend: 0x0, symName: __ZNSt3__128__exception_guard_exceptionsINS_6vectorINS_4pairIdiEENS_9allocatorIS3_EEE16__destroy_vectorEED2B8ue170006Ev, symObjAddr: 0x42A4, symBinAddr: 0x1000086D0, symSize: 0x48 }
  - { offsetInCU: 0x13C6D, offset: 0x13C6D, size: 0x8, addend: 0x0, symName: __ZNSt3__16vectorINS_4pairIdiEENS_9allocatorIS2_EEE16__destroy_vectorclB8ue170006Ev, symObjAddr: 0x42EC, symBinAddr: 0x100008718, symSize: 0x90 }
  - { offsetInCU: 0x13C93, offset: 0x13C93, size: 0x8, addend: 0x0, symName: __ZNSt3__16vectorINS_4pairIdiEENS_9allocatorIS2_EEE7__clearB8ue170006Ev, symObjAddr: 0x437C, symBinAddr: 0x1000087A8, symSize: 0x28 }
  - { offsetInCU: 0x13CB9, offset: 0x13CB9, size: 0x8, addend: 0x0, symName: __ZNKSt3__16vectorINS_4pairIdiEENS_9allocatorIS2_EEE17__annotate_deleteB8ue170006Ev, symObjAddr: 0x43A4, symBinAddr: 0x1000087D0, symSize: 0xB8 }
  - { offsetInCU: 0x13CDF, offset: 0x13CDF, size: 0x8, addend: 0x0, symName: __ZNSt3__116allocator_traitsINS_9allocatorINS_4pairIdiEEEEE10deallocateB8ue170006ERS4_PS3_m, symObjAddr: 0x445C, symBinAddr: 0x100008888, symSize: 0x34 }
  - { offsetInCU: 0x13D21, offset: 0x13D21, size: 0x8, addend: 0x0, symName: __ZNSt3__16vectorINS_4pairIdiEENS_9allocatorIS2_EEE22__base_destruct_at_endB8ue170006EPS2_, symObjAddr: 0x4490, symBinAddr: 0x1000088BC, symSize: 0xA0 }
  - { offsetInCU: 0x13D65, offset: 0x13D65, size: 0x8, addend: 0x0, symName: __ZNSt3__19allocatorINS_4pairIdiEEE10deallocateB8ue170006EPS2_m, symObjAddr: 0x4530, symBinAddr: 0x10000895C, symSize: 0x70 }
  - { offsetInCU: 0x13DAC, offset: 0x13DAC, size: 0x8, addend: 0x0, symName: __ZNSt3__119__to_address_helperINS_16reverse_iteratorIPN16PerfectHash4Real14SecondaryTableEEEvE6__callB8ue170006ERKS5_, symObjAddr: 0x461C, symBinAddr: 0x100008A48, symSize: 0x4C }
  - { offsetInCU: 0x13DCF, offset: 0x13DCF, size: 0x8, addend: 0x0, symName: __ZNKSt3__116reverse_iteratorIPN16PerfectHash4Real14SecondaryTableEEptB8ue170006Ev, symObjAddr: 0x4668, symBinAddr: 0x100008A94, symSize: 0x24 }
  - { offsetInCU: 0x13DF5, offset: 0x13DF5, size: 0x8, addend: 0x0, symName: __ZNSt3__128__exception_guard_exceptionsINS_29_AllocatorDestroyRangeReverseINS_9allocatorIN16PerfectHash4Real14SecondaryTableEEENS_16reverse_iteratorIPS4_EEEEED2B8ue170006Ev, symObjAddr: 0x468C, symBinAddr: 0x100008AB8, symSize: 0x48 }
  - { offsetInCU: 0x13E1F, offset: 0x13E1F, size: 0x8, addend: 0x0, symName: __ZNKSt3__129_AllocatorDestroyRangeReverseINS_9allocatorIN16PerfectHash4Real14SecondaryTableEEENS_16reverse_iteratorIPS3_EEEclB8ue170006Ev, symObjAddr: 0x46D4, symBinAddr: 0x100008B00, symSize: 0xB4 }
  - { offsetInCU: 0x13E46, offset: 0x13E46, size: 0x8, addend: 0x0, symName: __ZNSt3__116reverse_iteratorINS0_IPN16PerfectHash4Real14SecondaryTableEEEEC1B8ue170006ES4_, symObjAddr: 0x47F8, symBinAddr: 0x100008C24, symSize: 0x3C }
  - { offsetInCU: 0x13E7E, offset: 0x13E7E, size: 0x8, addend: 0x0, symName: __ZNSt3__116allocator_traitsINS_9allocatorIN16PerfectHash4Real14SecondaryTableEEEE7destroyB8ue170006IS3_vEEvRS4_PT_, symObjAddr: 0x4894, symBinAddr: 0x100008CC0, symSize: 0x2C }
  - { offsetInCU: 0x13EBB, offset: 0x13EBB, size: 0x8, addend: 0x0, symName: __ZNSt3__116reverse_iteratorINS0_IPN16PerfectHash4Real14SecondaryTableEEEEppB8ue170006Ev, symObjAddr: 0x48E4, symBinAddr: 0x100008D10, symSize: 0x30 }
  - { offsetInCU: 0x13EE1, offset: 0x13EE1, size: 0x8, addend: 0x0, symName: __ZNKSt3__116reverse_iteratorINS0_IPN16PerfectHash4Real14SecondaryTableEEEE4baseB8ue170006Ev, symObjAddr: 0x4914, symBinAddr: 0x100008D40, symSize: 0x24 }
  - { offsetInCU: 0x13F07, offset: 0x13F07, size: 0x8, addend: 0x0, symName: __ZNSt3__19allocatorIN16PerfectHash4Real14SecondaryTableEE7destroyB8ue170006EPS2_, symObjAddr: 0x4938, symBinAddr: 0x100008D64, symSize: 0x28 }
  - { offsetInCU: 0x13F3B, offset: 0x13F3B, size: 0x8, addend: 0x0, symName: __ZN16PerfectHash4Real14SecondaryTableD1Ev, symObjAddr: 0x4960, symBinAddr: 0x100008D8C, symSize: 0x2C }
  - { offsetInCU: 0x13F67, offset: 0x13F67, size: 0x8, addend: 0x0, symName: __ZN16PerfectHash4Real14SecondaryTableD2Ev, symObjAddr: 0x498C, symBinAddr: 0x100008DB8, symSize: 0x2C }
  - { offsetInCU: 0x13F93, offset: 0x13F93, size: 0x8, addend: 0x0, symName: __ZNSt3__16vectorINS_4pairIdiEENS_9allocatorIS2_EEED1B8ue170006Ev, symObjAddr: 0x49B8, symBinAddr: 0x100008DE4, symSize: 0x2C }
  - { offsetInCU: 0x13FBD, offset: 0x13FBD, size: 0x8, addend: 0x0, symName: __ZNSt3__16vectorINS_4pairIdiEENS_9allocatorIS2_EEED2B8ue170006Ev, symObjAddr: 0x49E4, symBinAddr: 0x100008E10, symSize: 0x3C }
  - { offsetInCU: 0x13FEC, offset: 0x13FEC, size: 0x8, addend: 0x0, symName: __ZNSt3__119__to_address_helperINS_16reverse_iteratorINS1_IPN16PerfectHash4Real14SecondaryTableEEEEEvE6__callB8ue170006ERKS6_, symObjAddr: 0x4A20, symBinAddr: 0x100008E4C, symSize: 0x4C }
  - { offsetInCU: 0x1400F, offset: 0x1400F, size: 0x8, addend: 0x0, symName: __ZNKSt3__116reverse_iteratorINS0_IPN16PerfectHash4Real14SecondaryTableEEEEptB8ue170006Ev, symObjAddr: 0x4A6C, symBinAddr: 0x100008E98, symSize: 0x24 }
  - { offsetInCU: 0x14035, offset: 0x14035, size: 0x8, addend: 0x0, symName: __ZNKSt3__116reverse_iteratorINS0_IPN16PerfectHash4Real14SecondaryTableEEEEdeB8ue170006Ev, symObjAddr: 0x4A90, symBinAddr: 0x100008EBC, symSize: 0x34 }
  - { offsetInCU: 0x14069, offset: 0x14069, size: 0x8, addend: 0x0, symName: __ZNSt3__116reverse_iteratorIPN16PerfectHash4Real14SecondaryTableEEmmB8ue170006Ev, symObjAddr: 0x4AC4, symBinAddr: 0x100008EF0, symSize: 0x20 }
  - { offsetInCU: 0x1408F, offset: 0x1408F, size: 0x8, addend: 0x0, symName: __ZNSt3__116reverse_iteratorINS0_IPN16PerfectHash4Real14SecondaryTableEEEEC2B8ue170006ES4_, symObjAddr: 0x4AE4, symBinAddr: 0x100008F10, symSize: 0x2C }
  - { offsetInCU: 0x140C7, offset: 0x140C7, size: 0x8, addend: 0x0, symName: __ZNSt3__116reverse_iteratorIPN16PerfectHash4Real14SecondaryTableEEC2B8ue170006ES3_, symObjAddr: 0x4B10, symBinAddr: 0x100008F3C, symSize: 0x28 }
  - { offsetInCU: 0x140FF, offset: 0x140FF, size: 0x8, addend: 0x0, symName: __ZNSt3__114__split_bufferIN16PerfectHash4Real14SecondaryTableERNS_9allocatorIS2_EEED2Ev, symObjAddr: 0x4B38, symBinAddr: 0x100008F64, symSize: 0x80 }
  - { offsetInCU: 0x1412B, offset: 0x1412B, size: 0x8, addend: 0x0, symName: __ZNSt3__114__split_bufferIN16PerfectHash4Real14SecondaryTableERNS_9allocatorIS2_EEE5clearB8ue170006Ev, symObjAddr: 0x4BB8, symBinAddr: 0x100008FE4, symSize: 0x28 }
  - { offsetInCU: 0x14151, offset: 0x14151, size: 0x8, addend: 0x0, symName: __ZNSt3__116allocator_traitsINS_9allocatorIN16PerfectHash4Real14SecondaryTableEEEE10deallocateB8ue170006ERS4_PS3_m, symObjAddr: 0x4BE0, symBinAddr: 0x10000900C, symSize: 0x34 }
  - { offsetInCU: 0x14193, offset: 0x14193, size: 0x8, addend: 0x0, symName: __ZNKSt3__114__split_bufferIN16PerfectHash4Real14SecondaryTableERNS_9allocatorIS2_EEE8capacityB8ue170006Ev, symObjAddr: 0x4C14, symBinAddr: 0x100009040, symSize: 0x40 }
  - { offsetInCU: 0x141B9, offset: 0x141B9, size: 0x8, addend: 0x0, symName: __ZNSt3__114__split_bufferIN16PerfectHash4Real14SecondaryTableERNS_9allocatorIS2_EEE17__destruct_at_endB8ue170006EPS2_, symObjAddr: 0x4C54, symBinAddr: 0x100009080, symSize: 0x2C }
  - { offsetInCU: 0x141ED, offset: 0x141ED, size: 0x8, addend: 0x0, symName: __ZNSt3__114__split_bufferIN16PerfectHash4Real14SecondaryTableERNS_9allocatorIS2_EEE17__destruct_at_endB8ue170006EPS2_NS_17integral_constantIbLb0EEE, symObjAddr: 0x4C80, symBinAddr: 0x1000090AC, symSize: 0x94 }
  - { offsetInCU: 0x1422D, offset: 0x1422D, size: 0x8, addend: 0x0, symName: __ZNSt3__19allocatorIN16PerfectHash4Real14SecondaryTableEE10deallocateB8ue170006EPS2_m, symObjAddr: 0x4D14, symBinAddr: 0x100009140, symSize: 0x74 }
  - { offsetInCU: 0x1426F, offset: 0x1426F, size: 0x8, addend: 0x0, symName: __ZNKSt3__114__split_bufferIN16PerfectHash4Real14SecondaryTableERNS_9allocatorIS2_EEE9__end_capB8ue170006Ev, symObjAddr: 0x4D88, symBinAddr: 0x1000091B4, symSize: 0x28 }
  - { offsetInCU: 0x14295, offset: 0x14295, size: 0x8, addend: 0x0, symName: __ZNKSt3__117__compressed_pairIPN16PerfectHash4Real14SecondaryTableERNS_9allocatorIS2_EEE5firstB8ue170006Ev, symObjAddr: 0x4DB0, symBinAddr: 0x1000091DC, symSize: 0x24 }
  - { offsetInCU: 0x142BB, offset: 0x142BB, size: 0x8, addend: 0x0, symName: __ZNSt3__16vectorIN16PerfectHash4Real14SecondaryTableENS_9allocatorIS2_EEE22__base_destruct_at_endB8ue170006EPS2_, symObjAddr: 0x4DD4, symBinAddr: 0x100009200, symSize: 0xA0 }
  - { offsetInCU: 0x142FF, offset: 0x142FF, size: 0x8, addend: 0x0, symName: __ZNKSt3__16vectorIN16PerfectHash4Real14SecondaryTableENS_9allocatorIS2_EEE17__annotate_shrinkB8ue170006Em, symObjAddr: 0x4E74, symBinAddr: 0x1000092A0, symSize: 0xD0 }
  - { offsetInCU: 0x14334, offset: 0x14334, size: 0x8, addend: 0x0, symName: __ZNSt3__112basic_stringIcNS_11char_traitsIcEENS_9allocatorIcEEEC2B8ue170006ILi0EEEPKc, symObjAddr: 0x4F44, symBinAddr: 0x100009370, symSize: 0x58 }
  - { offsetInCU: 0x14373, offset: 0x14373, size: 0x8, addend: 0x0, symName: __ZNSt3__117__compressed_pairINS_12basic_stringIcNS_11char_traitsIcEENS_9allocatorIcEEE5__repES5_EC1B8ue170006INS_18__default_init_tagESA_EEOT_OT0_, symObjAddr: 0x4F9C, symBinAddr: 0x1000093C8, symSize: 0x3C }
  - { offsetInCU: 0x143CB, offset: 0x143CB, size: 0x8, addend: 0x0, symName: __ZNSt3__111char_traitsIcE6lengthB8ue170006EPKc, symObjAddr: 0x4FD8, symBinAddr: 0x100009404, symSize: 0x48 }
  - { offsetInCU: 0x143EE, offset: 0x143EE, size: 0x8, addend: 0x0, symName: __ZNSt3__117__compressed_pairINS_12basic_stringIcNS_11char_traitsIcEENS_9allocatorIcEEE5__repES5_EC2B8ue170006INS_18__default_init_tagESA_EEOT_OT0_, symObjAddr: 0x5020, symBinAddr: 0x10000944C, symSize: 0x3C }
  - { offsetInCU: 0x14446, offset: 0x14446, size: 0x8, addend: 0x0, symName: __ZNSt3__122__compressed_pair_elemINS_12basic_stringIcNS_11char_traitsIcEENS_9allocatorIcEEE5__repELi0ELb0EEC2B8ue170006ENS_18__default_init_tagE, symObjAddr: 0x505C, symBinAddr: 0x100009488, symSize: 0x14 }
  - { offsetInCU: 0x1447B, offset: 0x1447B, size: 0x8, addend: 0x0, symName: __ZNSt3__122__compressed_pair_elemINS_9allocatorIcEELi1ELb1EEC2B8ue170006ENS_18__default_init_tagE, symObjAddr: 0x5070, symBinAddr: 0x10000949C, symSize: 0x2C }
  - { offsetInCU: 0x144B0, offset: 0x144B0, size: 0x8, addend: 0x0, symName: __ZNSt3__19allocatorIcEC2B8ue170006Ev, symObjAddr: 0x509C, symBinAddr: 0x1000094C8, symSize: 0x2C }
  - { offsetInCU: 0x144DA, offset: 0x144DA, size: 0x8, addend: 0x0, symName: __ZNSt3__116__non_trivial_ifILb1ENS_9allocatorIcEEEC2B8ue170006Ev, symObjAddr: 0x50C8, symBinAddr: 0x1000094F4, symSize: 0x14 }
  - { offsetInCU: 0x14504, offset: 0x14504, size: 0x8, addend: 0x0, symName: __ZNSt3__123mersenne_twister_engineIjLm32ELm624ELm397ELm31ELj2567483615ELm11ELj4294967295ELm7ELj2636928640ELm15ELj4022730752ELm18ELj1812433253EEC2B8ue170006Ej, symObjAddr: 0x5100, symBinAddr: 0x10000952C, symSize: 0x34 }
  - { offsetInCU: 0x1453C, offset: 0x1453C, size: 0x8, addend: 0x0, symName: __ZNSt3__123mersenne_twister_engineIjLm32ELm624ELm397ELm31ELj2567483615ELm11ELj4294967295ELm7ELj2636928640ELm15ELj4022730752ELm18ELj1812433253EE4seedEj, symObjAddr: 0x5134, symBinAddr: 0x100009560, symSize: 0xC4 }
  - { offsetInCU: 0x1458F, offset: 0x1458F, size: 0x8, addend: 0x0, symName: __ZNSt3__123mersenne_twister_engineIjLm32ELm624ELm397ELm31ELj2567483615ELm11ELj4294967295ELm7ELj2636928640ELm15ELj4022730752ELm18ELj1812433253EE8__rshiftB8ue170006ILm30EEENS_9enable_ifIXltT_L_ZNS1_3_DtEEEjE4typeEj, symObjAddr: 0x51F8, symBinAddr: 0x100009624, symSize: 0x18 }
  - { offsetInCU: 0x145BC, offset: 0x145BC, size: 0x8, addend: 0x0, symName: __ZNSt3__124uniform_int_distributionIiEC2Eii, symObjAddr: 0x5210, symBinAddr: 0x10000963C, symSize: 0x3C }
  - { offsetInCU: 0x14602, offset: 0x14602, size: 0x8, addend: 0x0, symName: __ZNSt3__124uniform_int_distributionIiE10param_typeC1B8ue170006Eii, symObjAddr: 0x524C, symBinAddr: 0x100009678, symSize: 0x3C }
  - { offsetInCU: 0x14648, offset: 0x14648, size: 0x8, addend: 0x0, symName: __ZNSt3__124uniform_int_distributionIiE10param_typeC2B8ue170006Eii, symObjAddr: 0x5288, symBinAddr: 0x1000096B4, symSize: 0x2C }
  - { offsetInCU: 0x1468E, offset: 0x1468E, size: 0x8, addend: 0x0, symName: __ZNKSt3__124uniform_int_distributionIiE10param_type1bB8ue170006Ev, symObjAddr: 0x543C, symBinAddr: 0x100009868, symSize: 0x18 }
  - { offsetInCU: 0x146B4, offset: 0x146B4, size: 0x8, addend: 0x0, symName: __ZNKSt3__124uniform_int_distributionIiE10param_type1aB8ue170006Ev, symObjAddr: 0x5454, symBinAddr: 0x100009880, symSize: 0x18 }
  - { offsetInCU: 0x146DA, offset: 0x146DA, size: 0x8, addend: 0x0, symName: __ZNSt3__125__independent_bits_engineINS_23mersenne_twister_engineIjLm32ELm624ELm397ELm31ELj2567483615ELm11ELj4294967295ELm7ELj2636928640ELm15ELj4022730752ELm18ELj1812433253EEEjEC1ERS2_m, symObjAddr: 0x546C, symBinAddr: 0x100009898, symSize: 0x3C }
  - { offsetInCU: 0x14721, offset: 0x14721, size: 0x8, addend: 0x0, symName: __ZNSt3__125__independent_bits_engineINS_23mersenne_twister_engineIjLm32ELm624ELm397ELm31ELj2567483615ELm11ELj4294967295ELm7ELj2636928640ELm15ELj4022730752ELm18ELj1812433253EEEjEclB8ue170006Ev, symObjAddr: 0x54A8, symBinAddr: 0x1000098D4, symSize: 0x24 }
  - { offsetInCU: 0x14747, offset: 0x14747, size: 0x8, addend: 0x0, symName: __ZNSt3__114numeric_limitsIjE3maxB8ue170006Ev, symObjAddr: 0x5520, symBinAddr: 0x10000994C, symSize: 0x14 }
  - { offsetInCU: 0x1475B, offset: 0x1475B, size: 0x8, addend: 0x0, symName: __ZNSt3__125__independent_bits_engineINS_23mersenne_twister_engineIjLm32ELm624ELm397ELm31ELj2567483615ELm11ELj4294967295ELm7ELj2636928640ELm15ELj4022730752ELm18ELj1812433253EEEjEC2ERS2_m, symObjAddr: 0x5534, symBinAddr: 0x100009960, symSize: 0x22C }
  - { offsetInCU: 0x147A2, offset: 0x147A2, size: 0x8, addend: 0x0, symName: __ZNSt3__125__independent_bits_engineINS_23mersenne_twister_engineIjLm32ELm624ELm397ELm31ELj2567483615ELm11ELj4294967295ELm7ELj2636928640ELm15ELj4022730752ELm18ELj1812433253EEEjE6__evalENS_17integral_constantIbLb0EEE, symObjAddr: 0x5760, symBinAddr: 0x100009B8C, symSize: 0x38 }
  - { offsetInCU: 0x147D4, offset: 0x147D4, size: 0x8, addend: 0x0, symName: __ZNSt3__123mersenne_twister_engineIjLm32ELm624ELm397ELm31ELj2567483615ELm11ELj4294967295ELm7ELj2636928640ELm15ELj4022730752ELm18ELj1812433253EEclEv, symObjAddr: 0x5798, symBinAddr: 0x100009BC4, symSize: 0x14C }
  - { offsetInCU: 0x14846, offset: 0x14846, size: 0x8, addend: 0x0, symName: __ZNSt3__123mersenne_twister_engineIjLm32ELm624ELm397ELm31ELj2567483615ELm11ELj4294967295ELm7ELj2636928640ELm15ELj4022730752ELm18ELj1812433253EE8__rshiftB8ue170006ILm1EEENS_9enable_ifIXltT_L_ZNS1_3_DtEEEjE4typeEj, symObjAddr: 0x58E4, symBinAddr: 0x100009D10, symSize: 0x18 }
  - { offsetInCU: 0x14873, offset: 0x14873, size: 0x8, addend: 0x0, symName: __ZNSt3__123mersenne_twister_engineIjLm32ELm624ELm397ELm31ELj2567483615ELm11ELj4294967295ELm7ELj2636928640ELm15ELj4022730752ELm18ELj1812433253EE8__rshiftB8ue170006ILm11EEENS_9enable_ifIXltT_L_ZNS1_3_DtEEEjE4typeEj, symObjAddr: 0x58FC, symBinAddr: 0x100009D28, symSize: 0x18 }
  - { offsetInCU: 0x148A0, offset: 0x148A0, size: 0x8, addend: 0x0, symName: __ZNSt3__123mersenne_twister_engineIjLm32ELm624ELm397ELm31ELj2567483615ELm11ELj4294967295ELm7ELj2636928640ELm15ELj4022730752ELm18ELj1812433253EE8__lshiftB8ue170006ILm7EEENS_9enable_ifIXltT_Lm32EEjE4typeEj, symObjAddr: 0x5914, symBinAddr: 0x100009D40, symSize: 0x1C }
  - { offsetInCU: 0x148CD, offset: 0x148CD, size: 0x8, addend: 0x0, symName: __ZNSt3__123mersenne_twister_engineIjLm32ELm624ELm397ELm31ELj2567483615ELm11ELj4294967295ELm7ELj2636928640ELm15ELj4022730752ELm18ELj1812433253EE8__lshiftB8ue170006ILm15EEENS_9enable_ifIXltT_Lm32EEjE4typeEj, symObjAddr: 0x5930, symBinAddr: 0x100009D5C, symSize: 0x1C }
  - { offsetInCU: 0x148FA, offset: 0x148FA, size: 0x8, addend: 0x0, symName: __ZNSt3__123mersenne_twister_engineIjLm32ELm624ELm397ELm31ELj2567483615ELm11ELj4294967295ELm7ELj2636928640ELm15ELj4022730752ELm18ELj1812433253EE8__rshiftB8ue170006ILm18EEENS_9enable_ifIXltT_L_ZNS1_3_DtEEEjE4typeEj, symObjAddr: 0x594C, symBinAddr: 0x100009D78, symSize: 0x18 }
  - { offsetInCU: 0x14927, offset: 0x14927, size: 0x8, addend: 0x0, symName: __ZNSt3__123__libcpp_numeric_limitsIjLb1EE3maxB8ue170006Ev, symObjAddr: 0x597C, symBinAddr: 0x100009DA8, symSize: 0x8 }
  - { offsetInCU: 0x1493B, offset: 0x1493B, size: 0x8, addend: 0x0, symName: __ZNSt3__16vectorINS0_IdNS_9allocatorIdEEEENS1_IS3_EEEC2Em, symObjAddr: 0x5984, symBinAddr: 0x100009DB0, symSize: 0xDC }
  - { offsetInCU: 0x1498B, offset: 0x1498B, size: 0x8, addend: 0x0, symName: __ZNSt3__117__compressed_pairIPNS_6vectorIdNS_9allocatorIdEEEENS2_IS4_EEEC1B8ue170006IDnNS_18__default_init_tagEEEOT_OT0_, symObjAddr: 0x5A60, symBinAddr: 0x100009E8C, symSize: 0x3C }
  - { offsetInCU: 0x149E3, offset: 0x149E3, size: 0x8, addend: 0x0, symName: __ZNSt3__16vectorINS0_IdNS_9allocatorIdEEEENS1_IS3_EEE16__destroy_vectorC1B8ue170006ERS5_, symObjAddr: 0x5ADC, symBinAddr: 0x100009F08, symSize: 0x34 }
  - { offsetInCU: 0x14A1C, offset: 0x14A1C, size: 0x8, addend: 0x0, symName: __ZNSt3__16vectorINS0_IdNS_9allocatorIdEEEENS1_IS3_EEE11__vallocateB8ue170006Em, symObjAddr: 0x5B10, symBinAddr: 0x100009F3C, symSize: 0xB4 }
  - { offsetInCU: 0x14A60, offset: 0x14A60, size: 0x8, addend: 0x0, symName: __ZNSt3__16vectorINS0_IdNS_9allocatorIdEEEENS1_IS3_EEE18__construct_at_endEm, symObjAddr: 0x5BC4, symBinAddr: 0x100009FF0, symSize: 0xD0 }
  - { offsetInCU: 0x14AD2, offset: 0x14AD2, size: 0x8, addend: 0x0, symName: __ZNSt3__128__exception_guard_exceptionsINS_6vectorINS1_IdNS_9allocatorIdEEEENS2_IS4_EEE16__destroy_vectorEE10__completeB8ue170006Ev, symObjAddr: 0x5C94, symBinAddr: 0x10000A0C0, symSize: 0x1C }
  - { offsetInCU: 0x14AF8, offset: 0x14AF8, size: 0x8, addend: 0x0, symName: __ZNSt3__128__exception_guard_exceptionsINS_6vectorINS1_IdNS_9allocatorIdEEEENS2_IS4_EEE16__destroy_vectorEED1B8ue170006Ev, symObjAddr: 0x5CB0, symBinAddr: 0x10000A0DC, symSize: 0x2C }
  - { offsetInCU: 0x14B22, offset: 0x14B22, size: 0x8, addend: 0x0, symName: __ZNSt3__117__compressed_pairIPNS_6vectorIdNS_9allocatorIdEEEENS2_IS4_EEEC2B8ue170006IDnNS_18__default_init_tagEEEOT_OT0_, symObjAddr: 0x5CDC, symBinAddr: 0x10000A108, symSize: 0x40 }
  - { offsetInCU: 0x14B7A, offset: 0x14B7A, size: 0x8, addend: 0x0, symName: __ZNSt3__122__compressed_pair_elemIPNS_6vectorIdNS_9allocatorIdEEEELi0ELb0EEC2B8ue170006IDnvEEOT_, symObjAddr: 0x5D1C, symBinAddr: 0x10000A148, symSize: 0x1C }
  - { offsetInCU: 0x14BBC, offset: 0x14BBC, size: 0x8, addend: 0x0, symName: __ZNSt3__122__compressed_pair_elemINS_9allocatorINS_6vectorIdNS1_IdEEEEEELi1ELb1EEC2B8ue170006ENS_18__default_init_tagE, symObjAddr: 0x5D38, symBinAddr: 0x10000A164, symSize: 0x2C }
  - { offsetInCU: 0x14BF1, offset: 0x14BF1, size: 0x8, addend: 0x0, symName: __ZNSt3__19allocatorINS_6vectorIdNS0_IdEEEEEC2B8ue170006Ev, symObjAddr: 0x5D64, symBinAddr: 0x10000A190, symSize: 0x2C }
  - { offsetInCU: 0x14C1B, offset: 0x14C1B, size: 0x8, addend: 0x0, symName: __ZNSt3__116__non_trivial_ifILb1ENS_9allocatorINS_6vectorIdNS1_IdEEEEEEEC2B8ue170006Ev, symObjAddr: 0x5D90, symBinAddr: 0x10000A1BC, symSize: 0x14 }
  - { offsetInCU: 0x14C45, offset: 0x14C45, size: 0x8, addend: 0x0, symName: __ZNSt3__128__exception_guard_exceptionsINS_6vectorINS1_IdNS_9allocatorIdEEEENS2_IS4_EEE16__destroy_vectorEEC1B8ue170006ES7_, symObjAddr: 0x5DA4, symBinAddr: 0x10000A1D0, symSize: 0x34 }
  - { offsetInCU: 0x14C7D, offset: 0x14C7D, size: 0x8, addend: 0x0, symName: __ZNSt3__128__exception_guard_exceptionsINS_6vectorINS1_IdNS_9allocatorIdEEEENS2_IS4_EEE16__destroy_vectorEEC2B8ue170006ES7_, symObjAddr: 0x5DD8, symBinAddr: 0x10000A204, symSize: 0x24 }
  - { offsetInCU: 0x14CB5, offset: 0x14CB5, size: 0x8, addend: 0x0, symName: __ZNSt3__16vectorINS0_IdNS_9allocatorIdEEEENS1_IS3_EEE16__destroy_vectorC2B8ue170006ERS5_, symObjAddr: 0x5DFC, symBinAddr: 0x10000A228, symSize: 0x20 }
  - { offsetInCU: 0x14CEE, offset: 0x14CEE, size: 0x8, addend: 0x0, symName: __ZNKSt3__16vectorINS0_IdNS_9allocatorIdEEEENS1_IS3_EEE8max_sizeEv, symObjAddr: 0x5E1C, symBinAddr: 0x10000A248, symSize: 0x74 }
  - { offsetInCU: 0x14D15, offset: 0x14D15, size: 0x8, addend: 0x0, symName: __ZNKSt3__16vectorINS0_IdNS_9allocatorIdEEEENS1_IS3_EEE20__throw_length_errorB8ue170006Ev, symObjAddr: 0x5E90, symBinAddr: 0x10000A2BC, symSize: 0x1C }
  - { offsetInCU: 0x14D3B, offset: 0x14D3B, size: 0x8, addend: 0x0, symName: __ZNSt3__16vectorINS0_IdNS_9allocatorIdEEEENS1_IS3_EEE7__allocB8ue170006Ev, symObjAddr: 0x5EEC, symBinAddr: 0x10000A318, symSize: 0x28 }
  - { offsetInCU: 0x14D61, offset: 0x14D61, size: 0x8, addend: 0x0, symName: __ZNSt3__16vectorINS0_IdNS_9allocatorIdEEEENS1_IS3_EEE9__end_capB8ue170006Ev, symObjAddr: 0x5F14, symBinAddr: 0x10000A340, symSize: 0x28 }
  - { offsetInCU: 0x14D87, offset: 0x14D87, size: 0x8, addend: 0x0, symName: __ZNKSt3__16vectorINS0_IdNS_9allocatorIdEEEENS1_IS3_EEE14__annotate_newB8ue170006Em, symObjAddr: 0x5F3C, symBinAddr: 0x10000A368, symSize: 0xC8 }
  - { offsetInCU: 0x14DC6, offset: 0x14DC6, size: 0x8, addend: 0x0, symName: __ZNSt3__116allocator_traitsINS_9allocatorINS_6vectorIdNS1_IdEEEEEEE8max_sizeB8ue170006IS5_vEEmRKS5_, symObjAddr: 0x6004, symBinAddr: 0x10000A430, symSize: 0x24 }
  - { offsetInCU: 0x14DF4, offset: 0x14DF4, size: 0x8, addend: 0x0, symName: __ZNKSt3__16vectorINS0_IdNS_9allocatorIdEEEENS1_IS3_EEE7__allocB8ue170006Ev, symObjAddr: 0x6028, symBinAddr: 0x10000A454, symSize: 0x28 }
  - { offsetInCU: 0x14E1A, offset: 0x14E1A, size: 0x8, addend: 0x0, symName: __ZNKSt3__19allocatorINS_6vectorIdNS0_IdEEEEE8max_sizeB8ue170006Ev, symObjAddr: 0x6050, symBinAddr: 0x10000A47C, symSize: 0x18 }
  - { offsetInCU: 0x14E40, offset: 0x14E40, size: 0x8, addend: 0x0, symName: __ZNKSt3__117__compressed_pairIPNS_6vectorIdNS_9allocatorIdEEEENS2_IS4_EEE6secondB8ue170006Ev, symObjAddr: 0x6068, symBinAddr: 0x10000A494, symSize: 0x24 }
  - { offsetInCU: 0x14E66, offset: 0x14E66, size: 0x8, addend: 0x0, symName: __ZNKSt3__122__compressed_pair_elemINS_9allocatorINS_6vectorIdNS1_IdEEEEEELi1ELb1EE5__getB8ue170006Ev, symObjAddr: 0x608C, symBinAddr: 0x10000A4B8, symSize: 0x14 }
  - { offsetInCU: 0x14E8C, offset: 0x14E8C, size: 0x8, addend: 0x0, symName: __ZNSt3__19allocatorINS_6vectorIdNS0_IdEEEEE8allocateB8ue170006Em, symObjAddr: 0x60A0, symBinAddr: 0x10000A4CC, symSize: 0x8C }
  - { offsetInCU: 0x14EC0, offset: 0x14EC0, size: 0x8, addend: 0x0, symName: __ZNSt3__117__compressed_pairIPNS_6vectorIdNS_9allocatorIdEEEENS2_IS4_EEE6secondB8ue170006Ev, symObjAddr: 0x612C, symBinAddr: 0x10000A558, symSize: 0x24 }
  - { offsetInCU: 0x14EE6, offset: 0x14EE6, size: 0x8, addend: 0x0, symName: __ZNSt3__122__compressed_pair_elemINS_9allocatorINS_6vectorIdNS1_IdEEEEEELi1ELb1EE5__getB8ue170006Ev, symObjAddr: 0x6150, symBinAddr: 0x10000A57C, symSize: 0x14 }
  - { offsetInCU: 0x14F0C, offset: 0x14F0C, size: 0x8, addend: 0x0, symName: __ZNSt3__117__compressed_pairIPNS_6vectorIdNS_9allocatorIdEEEENS2_IS4_EEE5firstB8ue170006Ev, symObjAddr: 0x6164, symBinAddr: 0x10000A590, symSize: 0x24 }
  - { offsetInCU: 0x14F32, offset: 0x14F32, size: 0x8, addend: 0x0, symName: __ZNSt3__122__compressed_pair_elemIPNS_6vectorIdNS_9allocatorIdEEEELi0ELb0EE5__getB8ue170006Ev, symObjAddr: 0x6188, symBinAddr: 0x10000A5B4, symSize: 0x14 }
  - { offsetInCU: 0x14F58, offset: 0x14F58, size: 0x8, addend: 0x0, symName: __ZNKSt3__16vectorINS0_IdNS_9allocatorIdEEEENS1_IS3_EEE31__annotate_contiguous_containerB8ue170006EPKvS7_S7_S7_, symObjAddr: 0x619C, symBinAddr: 0x10000A5C8, symSize: 0x20 }
  - { offsetInCU: 0x14FAA, offset: 0x14FAA, size: 0x8, addend: 0x0, symName: __ZNKSt3__16vectorINS0_IdNS_9allocatorIdEEEENS1_IS3_EEE4dataB8ue170006Ev, symObjAddr: 0x61BC, symBinAddr: 0x10000A5E8, symSize: 0x28 }
  - { offsetInCU: 0x14FD0, offset: 0x14FD0, size: 0x8, addend: 0x0, symName: __ZNKSt3__16vectorINS0_IdNS_9allocatorIdEEEENS1_IS3_EEE8capacityB8ue170006Ev, symObjAddr: 0x61E4, symBinAddr: 0x10000A610, symSize: 0x40 }
  - { offsetInCU: 0x14FF6, offset: 0x14FF6, size: 0x8, addend: 0x0, symName: __ZNKSt3__16vectorINS0_IdNS_9allocatorIdEEEENS1_IS3_EEE9__end_capB8ue170006Ev, symObjAddr: 0x6238, symBinAddr: 0x10000A664, symSize: 0x28 }
  - { offsetInCU: 0x1501C, offset: 0x1501C, size: 0x8, addend: 0x0, symName: __ZNKSt3__117__compressed_pairIPNS_6vectorIdNS_9allocatorIdEEEENS2_IS4_EEE5firstB8ue170006Ev, symObjAddr: 0x6260, symBinAddr: 0x10000A68C, symSize: 0x24 }
  - { offsetInCU: 0x15042, offset: 0x15042, size: 0x8, addend: 0x0, symName: __ZNKSt3__122__compressed_pair_elemIPNS_6vectorIdNS_9allocatorIdEEEELi0ELb0EE5__getB8ue170006Ev, symObjAddr: 0x6284, symBinAddr: 0x10000A6B0, symSize: 0x14 }
  - { offsetInCU: 0x15081, offset: 0x15081, size: 0x8, addend: 0x0, symName: __ZNSt3__16vectorINS0_IdNS_9allocatorIdEEEENS1_IS3_EEE21_ConstructTransactionC1B8ue170006ERS5_m, symObjAddr: 0x6298, symBinAddr: 0x10000A6C4, symSize: 0x3C }
  - { offsetInCU: 0x150C9, offset: 0x150C9, size: 0x8, addend: 0x0, symName: __ZNSt3__116allocator_traitsINS_9allocatorINS_6vectorIdNS1_IdEEEEEEE9constructB8ue170006IS4_JEvEEvRS5_PT_DpOT0_, symObjAddr: 0x62D4, symBinAddr: 0x10000A700, symSize: 0x2C }
  - { offsetInCU: 0x1510B, offset: 0x1510B, size: 0x8, addend: 0x0, symName: __ZNSt3__16vectorINS0_IdNS_9allocatorIdEEEENS1_IS3_EEE21_ConstructTransactionD1B8ue170006Ev, symObjAddr: 0x6300, symBinAddr: 0x10000A72C, symSize: 0x2C }
  - { offsetInCU: 0x15135, offset: 0x15135, size: 0x8, addend: 0x0, symName: __ZNSt3__16vectorINS0_IdNS_9allocatorIdEEEENS1_IS3_EEE21_ConstructTransactionC2B8ue170006ERS5_m, symObjAddr: 0x632C, symBinAddr: 0x10000A758, symSize: 0x4C }
  - { offsetInCU: 0x1517D, offset: 0x1517D, size: 0x8, addend: 0x0, symName: __ZNSt3__19allocatorINS_6vectorIdNS0_IdEEEEE9constructB8ue170006IS3_JEEEvPT_DpOT0_, symObjAddr: 0x6378, symBinAddr: 0x10000A7A4, symSize: 0x28 }
  - { offsetInCU: 0x151BF, offset: 0x151BF, size: 0x8, addend: 0x0, symName: __ZNSt3__16vectorINS0_IdNS_9allocatorIdEEEENS1_IS3_EEE21_ConstructTransactionD2B8ue170006Ev, symObjAddr: 0x63A0, symBinAddr: 0x10000A7CC, symSize: 0x20 }
  - { offsetInCU: 0x151E9, offset: 0x151E9, size: 0x8, addend: 0x0, symName: __ZNSt3__128__exception_guard_exceptionsINS_6vectorINS1_IdNS_9allocatorIdEEEENS2_IS4_EEE16__destroy_vectorEED2B8ue170006Ev, symObjAddr: 0x63C0, symBinAddr: 0x10000A7EC, symSize: 0x48 }
  - { offsetInCU: 0x15213, offset: 0x15213, size: 0x8, addend: 0x0, symName: __ZNSt3__16vectorINS0_IdNS_9allocatorIdEEEENS1_IS3_EEE16__destroy_vectorclB8ue170006Ev, symObjAddr: 0x6408, symBinAddr: 0x10000A834, symSize: 0x90 }
  - { offsetInCU: 0x15239, offset: 0x15239, size: 0x8, addend: 0x0, symName: __ZNSt3__16vectorINS0_IdNS_9allocatorIdEEEENS1_IS3_EEE7__clearB8ue170006Ev, symObjAddr: 0x6498, symBinAddr: 0x10000A8C4, symSize: 0x28 }
  - { offsetInCU: 0x1525F, offset: 0x1525F, size: 0x8, addend: 0x0, symName: __ZNKSt3__16vectorINS0_IdNS_9allocatorIdEEEENS1_IS3_EEE17__annotate_deleteB8ue170006Ev, symObjAddr: 0x64C0, symBinAddr: 0x10000A8EC, symSize: 0xD4 }
  - { offsetInCU: 0x15285, offset: 0x15285, size: 0x8, addend: 0x0, symName: __ZNSt3__116allocator_traitsINS_9allocatorINS_6vectorIdNS1_IdEEEEEEE10deallocateB8ue170006ERS5_PS4_m, symObjAddr: 0x6594, symBinAddr: 0x10000A9C0, symSize: 0x34 }
  - { offsetInCU: 0x152C7, offset: 0x152C7, size: 0x8, addend: 0x0, symName: __ZNSt3__16vectorINS0_IdNS_9allocatorIdEEEENS1_IS3_EEE22__base_destruct_at_endB8ue170006EPS3_, symObjAddr: 0x65C8, symBinAddr: 0x10000A9F4, symSize: 0xA0 }
  - { offsetInCU: 0x1530B, offset: 0x1530B, size: 0x8, addend: 0x0, symName: __ZNSt3__116allocator_traitsINS_9allocatorINS_6vectorIdNS1_IdEEEEEEE7destroyB8ue170006IS4_vEEvRS5_PT_, symObjAddr: 0x6668, symBinAddr: 0x10000AA94, symSize: 0x2C }
  - { offsetInCU: 0x15348, offset: 0x15348, size: 0x8, addend: 0x0, symName: __ZNSt3__19allocatorINS_6vectorIdNS0_IdEEEEE7destroyB8ue170006EPS3_, symObjAddr: 0x6694, symBinAddr: 0x10000AAC0, symSize: 0x28 }
  - { offsetInCU: 0x1537C, offset: 0x1537C, size: 0x8, addend: 0x0, symName: __ZNKSt3__16vectorINS0_IdNS_9allocatorIdEEEENS1_IS3_EEE4sizeB8ue170006Ev, symObjAddr: 0x66BC, symBinAddr: 0x10000AAE8, symSize: 0x28 }
  - { offsetInCU: 0x153A2, offset: 0x153A2, size: 0x8, addend: 0x0, symName: __ZNSt3__19allocatorINS_6vectorIdNS0_IdEEEEE10deallocateB8ue170006EPS3_m, symObjAddr: 0x66E4, symBinAddr: 0x10000AB10, symSize: 0x74 }
  - { offsetInCU: 0x153E4, offset: 0x153E4, size: 0x8, addend: 0x0, symName: __ZNSt3__16vectorIdNS_9allocatorIdEEE9__end_capB8ue170006Ev, symObjAddr: 0x6758, symBinAddr: 0x10000AB84, symSize: 0x28 }
  - { offsetInCU: 0x1540A, offset: 0x1540A, size: 0x8, addend: 0x0, symName: __ZNSt3__16vectorIdNS_9allocatorIdEEE22__construct_one_at_endB8ue170006IJRKdEEEvDpOT_, symObjAddr: 0x6780, symBinAddr: 0x10000ABAC, symSize: 0x98 }
  - { offsetInCU: 0x15459, offset: 0x15459, size: 0x8, addend: 0x0, symName: __ZNSt3__16vectorIdNS_9allocatorIdEEE21__push_back_slow_pathIRKdEEvOT_, symObjAddr: 0x6818, symBinAddr: 0x10000AC44, symSize: 0xE0 }
  - { offsetInCU: 0x154B6, offset: 0x154B6, size: 0x8, addend: 0x0, symName: __ZNSt3__117__compressed_pairIPdNS_9allocatorIdEEE5firstB8ue170006Ev, symObjAddr: 0x68F8, symBinAddr: 0x10000AD24, symSize: 0x24 }
  - { offsetInCU: 0x154DC, offset: 0x154DC, size: 0x8, addend: 0x0, symName: __ZNSt3__122__compressed_pair_elemIPdLi0ELb0EE5__getB8ue170006Ev, symObjAddr: 0x691C, symBinAddr: 0x10000AD48, symSize: 0x14 }
  - { offsetInCU: 0x1551B, offset: 0x1551B, size: 0x8, addend: 0x0, symName: __ZNSt3__16vectorIdNS_9allocatorIdEEE21_ConstructTransactionC1B8ue170006ERS3_m, symObjAddr: 0x6930, symBinAddr: 0x10000AD5C, symSize: 0x3C }
  - { offsetInCU: 0x15563, offset: 0x15563, size: 0x8, addend: 0x0, symName: __ZNSt3__116allocator_traitsINS_9allocatorIdEEE9constructB8ue170006IdJRKdEvEEvRS2_PT_DpOT0_, symObjAddr: 0x696C, symBinAddr: 0x10000AD98, symSize: 0x34 }
  - { offsetInCU: 0x155BA, offset: 0x155BA, size: 0x8, addend: 0x0, symName: __ZNSt3__16vectorIdNS_9allocatorIdEEE7__allocB8ue170006Ev, symObjAddr: 0x69A0, symBinAddr: 0x10000ADCC, symSize: 0x28 }
  - { offsetInCU: 0x155E0, offset: 0x155E0, size: 0x8, addend: 0x0, symName: __ZNSt3__16vectorIdNS_9allocatorIdEEE21_ConstructTransactionD1B8ue170006Ev, symObjAddr: 0x69DC, symBinAddr: 0x10000AE08, symSize: 0x2C }
  - { offsetInCU: 0x1560A, offset: 0x1560A, size: 0x8, addend: 0x0, symName: __ZNSt3__16vectorIdNS_9allocatorIdEEE21_ConstructTransactionC2B8ue170006ERS3_m, symObjAddr: 0x6A08, symBinAddr: 0x10000AE34, symSize: 0x44 }
  - { offsetInCU: 0x15652, offset: 0x15652, size: 0x8, addend: 0x0, symName: __ZNSt3__19allocatorIdE9constructB8ue170006IdJRKdEEEvPT_DpOT0_, symObjAddr: 0x6A4C, symBinAddr: 0x10000AE78, symSize: 0x28 }
  - { offsetInCU: 0x156A8, offset: 0x156A8, size: 0x8, addend: 0x0, symName: __ZNSt3__117__compressed_pairIPdNS_9allocatorIdEEE6secondB8ue170006Ev, symObjAddr: 0x6A74, symBinAddr: 0x10000AEA0, symSize: 0x24 }
  - { offsetInCU: 0x156CE, offset: 0x156CE, size: 0x8, addend: 0x0, symName: __ZNSt3__122__compressed_pair_elemINS_9allocatorIdEELi1ELb1EE5__getB8ue170006Ev, symObjAddr: 0x6A98, symBinAddr: 0x10000AEC4, symSize: 0x14 }
  - { offsetInCU: 0x156F4, offset: 0x156F4, size: 0x8, addend: 0x0, symName: __ZNSt3__16vectorIdNS_9allocatorIdEEE21_ConstructTransactionD2B8ue170006Ev, symObjAddr: 0x6AAC, symBinAddr: 0x10000AED8, symSize: 0x20 }
  - { offsetInCU: 0x1571E, offset: 0x1571E, size: 0x8, addend: 0x0, symName: __ZNKSt3__16vectorIdNS_9allocatorIdEEE11__recommendB8ue170006Em, symObjAddr: 0x6ACC, symBinAddr: 0x10000AEF8, symSize: 0xB4 }
  - { offsetInCU: 0x15772, offset: 0x15772, size: 0x8, addend: 0x0, symName: __ZNSt3__114__split_bufferIdRNS_9allocatorIdEEEC1EmmS3_, symObjAddr: 0x6B80, symBinAddr: 0x10000AFAC, symSize: 0x44 }
  - { offsetInCU: 0x157C8, offset: 0x157C8, size: 0x8, addend: 0x0, symName: __ZNSt3__114__split_bufferIdRNS_9allocatorIdEEED1Ev, symObjAddr: 0x6CD4, symBinAddr: 0x10000B100, symSize: 0x2C }
  - { offsetInCU: 0x157F4, offset: 0x157F4, size: 0x8, addend: 0x0, symName: __ZNKSt3__16vectorIdNS_9allocatorIdEEE8max_sizeEv, symObjAddr: 0x6D00, symBinAddr: 0x10000B12C, symSize: 0x74 }
  - { offsetInCU: 0x1581B, offset: 0x1581B, size: 0x8, addend: 0x0, symName: __ZNKSt3__16vectorIdNS_9allocatorIdEEE20__throw_length_errorB8ue170006Ev, symObjAddr: 0x6D74, symBinAddr: 0x10000B1A0, symSize: 0x1C }
  - { offsetInCU: 0x15841, offset: 0x15841, size: 0x8, addend: 0x0, symName: __ZNKSt3__16vectorIdNS_9allocatorIdEEE8capacityB8ue170006Ev, symObjAddr: 0x6D90, symBinAddr: 0x10000B1BC, symSize: 0x40 }
  - { offsetInCU: 0x15871, offset: 0x15871, size: 0x8, addend: 0x0, symName: __ZNSt3__116allocator_traitsINS_9allocatorIdEEE8max_sizeB8ue170006IS2_vEEmRKS2_, symObjAddr: 0x6DD0, symBinAddr: 0x10000B1FC, symSize: 0x24 }
  - { offsetInCU: 0x1589F, offset: 0x1589F, size: 0x8, addend: 0x0, symName: __ZNKSt3__16vectorIdNS_9allocatorIdEEE7__allocB8ue170006Ev, symObjAddr: 0x6DF4, symBinAddr: 0x10000B220, symSize: 0x28 }
  - { offsetInCU: 0x158C5, offset: 0x158C5, size: 0x8, addend: 0x0, symName: __ZNKSt3__19allocatorIdE8max_sizeB8ue170006Ev, symObjAddr: 0x6E1C, symBinAddr: 0x10000B248, symSize: 0x14 }
  - { offsetInCU: 0x158EB, offset: 0x158EB, size: 0x8, addend: 0x0, symName: __ZNKSt3__117__compressed_pairIPdNS_9allocatorIdEEE6secondB8ue170006Ev, symObjAddr: 0x6E30, symBinAddr: 0x10000B25C, symSize: 0x24 }
  - { offsetInCU: 0x15911, offset: 0x15911, size: 0x8, addend: 0x0, symName: __ZNKSt3__122__compressed_pair_elemINS_9allocatorIdEELi1ELb1EE5__getB8ue170006Ev, symObjAddr: 0x6E54, symBinAddr: 0x10000B280, symSize: 0x14 }
  - { offsetInCU: 0x15937, offset: 0x15937, size: 0x8, addend: 0x0, symName: __ZNKSt3__16vectorIdNS_9allocatorIdEEE9__end_capB8ue170006Ev, symObjAddr: 0x6E68, symBinAddr: 0x10000B294, symSize: 0x28 }
  - { offsetInCU: 0x1595D, offset: 0x1595D, size: 0x8, addend: 0x0, symName: __ZNKSt3__117__compressed_pairIPdNS_9allocatorIdEEE5firstB8ue170006Ev, symObjAddr: 0x6E90, symBinAddr: 0x10000B2BC, symSize: 0x24 }
  - { offsetInCU: 0x15983, offset: 0x15983, size: 0x8, addend: 0x0, symName: __ZNKSt3__122__compressed_pair_elemIPdLi0ELb0EE5__getB8ue170006Ev, symObjAddr: 0x6EB4, symBinAddr: 0x10000B2E0, symSize: 0x14 }
  - { offsetInCU: 0x159A9, offset: 0x159A9, size: 0x8, addend: 0x0, symName: __ZNSt3__114__split_bufferIdRNS_9allocatorIdEEEC2EmmS3_, symObjAddr: 0x6EC8, symBinAddr: 0x10000B2F4, symSize: 0xD4 }
  - { offsetInCU: 0x15A1D, offset: 0x15A1D, size: 0x8, addend: 0x0, symName: __ZNSt3__117__compressed_pairIPdRNS_9allocatorIdEEEC1B8ue170006IDnS4_EEOT_OT0_, symObjAddr: 0x6F9C, symBinAddr: 0x10000B3C8, symSize: 0x3C }
  - { offsetInCU: 0x15A75, offset: 0x15A75, size: 0x8, addend: 0x0, symName: __ZNSt3__114__split_bufferIdRNS_9allocatorIdEEE7__allocB8ue170006Ev, symObjAddr: 0x7018, symBinAddr: 0x10000B444, symSize: 0x28 }
  - { offsetInCU: 0x15A9B, offset: 0x15A9B, size: 0x8, addend: 0x0, symName: __ZNSt3__114__split_bufferIdRNS_9allocatorIdEEE9__end_capB8ue170006Ev, symObjAddr: 0x7040, symBinAddr: 0x10000B46C, symSize: 0x28 }
  - { offsetInCU: 0x15AC1, offset: 0x15AC1, size: 0x8, addend: 0x0, symName: __ZNSt3__117__compressed_pairIPdRNS_9allocatorIdEEEC2B8ue170006IDnS4_EEOT_OT0_, symObjAddr: 0x7068, symBinAddr: 0x10000B494, symSize: 0x48 }
  - { offsetInCU: 0x15B19, offset: 0x15B19, size: 0x8, addend: 0x0, symName: __ZNSt3__122__compressed_pair_elemIPdLi0ELb0EEC2B8ue170006IDnvEEOT_, symObjAddr: 0x70B0, symBinAddr: 0x10000B4DC, symSize: 0x1C }
  - { offsetInCU: 0x15B5B, offset: 0x15B5B, size: 0x8, addend: 0x0, symName: __ZNSt3__122__compressed_pair_elemIRNS_9allocatorIdEELi1ELb0EEC2B8ue170006IS3_vEEOT_, symObjAddr: 0x70CC, symBinAddr: 0x10000B4F8, symSize: 0x20 }
  - { offsetInCU: 0x15B9D, offset: 0x15B9D, size: 0x8, addend: 0x0, symName: __ZNSt3__19allocatorIdE8allocateB8ue170006Em, symObjAddr: 0x70EC, symBinAddr: 0x10000B518, symSize: 0x84 }
  - { offsetInCU: 0x15BD1, offset: 0x15BD1, size: 0x8, addend: 0x0, symName: __ZNSt3__117__compressed_pairIPdRNS_9allocatorIdEEE6secondB8ue170006Ev, symObjAddr: 0x7170, symBinAddr: 0x10000B59C, symSize: 0x28 }
  - { offsetInCU: 0x15BF7, offset: 0x15BF7, size: 0x8, addend: 0x0, symName: __ZNSt3__122__compressed_pair_elemIRNS_9allocatorIdEELi1ELb0EE5__getB8ue170006Ev, symObjAddr: 0x7198, symBinAddr: 0x10000B5C4, symSize: 0x18 }
  - { offsetInCU: 0x15C1D, offset: 0x15C1D, size: 0x8, addend: 0x0, symName: __ZNSt3__117__compressed_pairIPdRNS_9allocatorIdEEE5firstB8ue170006Ev, symObjAddr: 0x71B0, symBinAddr: 0x10000B5DC, symSize: 0x24 }
  - { offsetInCU: 0x15C43, offset: 0x15C43, size: 0x8, addend: 0x0, symName: __ZNKSt3__16vectorIdNS_9allocatorIdEEE17__annotate_deleteB8ue170006Ev, symObjAddr: 0x71D4, symBinAddr: 0x10000B600, symSize: 0xB8 }
  - { offsetInCU: 0x15C69, offset: 0x15C69, size: 0x8, addend: 0x0, symName: __ZNSt3__116reverse_iteratorIPdEC1B8ue170006ES1_, symObjAddr: 0x7374, symBinAddr: 0x10000B7A0, symSize: 0x34 }
  - { offsetInCU: 0x15CA1, offset: 0x15CA1, size: 0x8, addend: 0x0, symName: __ZNKSt3__116reverse_iteratorIPdE4baseB8ue170006Ev, symObjAddr: 0x73A8, symBinAddr: 0x10000B7D4, symSize: 0x18 }
  - { offsetInCU: 0x15CC7, offset: 0x15CC7, size: 0x8, addend: 0x0, symName: __ZNKSt3__16vectorIdNS_9allocatorIdEEE14__annotate_newB8ue170006Em, symObjAddr: 0x73FC, symBinAddr: 0x10000B828, symSize: 0xAC }
  - { offsetInCU: 0x15CFC, offset: 0x15CFC, size: 0x8, addend: 0x0, symName: __ZNKSt3__16vectorIdNS_9allocatorIdEEE31__annotate_contiguous_containerB8ue170006EPKvS5_S5_S5_, symObjAddr: 0x74A8, symBinAddr: 0x10000B8D4, symSize: 0x20 }
  - { offsetInCU: 0x15D4E, offset: 0x15D4E, size: 0x8, addend: 0x0, symName: __ZNKSt3__16vectorIdNS_9allocatorIdEEE4dataB8ue170006Ev, symObjAddr: 0x74C8, symBinAddr: 0x10000B8F4, symSize: 0x28 }
  - { offsetInCU: 0x15D74, offset: 0x15D74, size: 0x8, addend: 0x0, symName: __ZNKSt3__116reverse_iteratorIPdEdeB8ue170006Ev, symObjAddr: 0x7588, symBinAddr: 0x10000B9B4, symSize: 0x28 }
  - { offsetInCU: 0x15DA8, offset: 0x15DA8, size: 0x8, addend: 0x0, symName: __ZNSt3__116reverse_iteratorIPdEppB8ue170006Ev, symObjAddr: 0x75B0, symBinAddr: 0x10000B9DC, symSize: 0x20 }
  - { offsetInCU: 0x15DD3, offset: 0x15DD3, size: 0x8, addend: 0x0, symName: __ZNSt3__119__to_address_helperINS_16reverse_iteratorIPdEEvE6__callB8ue170006ERKS3_, symObjAddr: 0x7648, symBinAddr: 0x10000BA74, symSize: 0x4C }
  - { offsetInCU: 0x15DF6, offset: 0x15DF6, size: 0x8, addend: 0x0, symName: __ZNKSt3__116reverse_iteratorIPdEptB8ue170006Ev, symObjAddr: 0x7694, symBinAddr: 0x10000BAC0, symSize: 0x24 }
  - { offsetInCU: 0x15E3F, offset: 0x15E3F, size: 0x8, addend: 0x0, symName: __ZNKSt3__111__move_loopINS_17_ClassicAlgPolicyEEclB8ue170006INS_16reverse_iteratorIPdEES6_S6_EENS_4pairIT_T1_EES8_T0_S9_, symObjAddr: 0x7930, symBinAddr: 0x10000BD5C, symSize: 0xA0 }
  - { offsetInCU: 0x15EAF, offset: 0x15EAF, size: 0x8, addend: 0x0, symName: __ZNSt3__18_IterOpsINS_17_ClassicAlgPolicyEE11__iter_moveB8ue170006IRNS_16reverse_iteratorIPdEEEENS_9enable_ifIXsr12is_referenceIDTdeclsr3stdE7declvalIRT_EEEEE5valueEDTclsr3stdE4movedeclsr3stdE7declvalISA_EEEEE4typeEOS9_, symObjAddr: 0x7B30, symBinAddr: 0x10000BF5C, symSize: 0x28 }
  - { offsetInCU: 0x15EDB, offset: 0x15EDB, size: 0x8, addend: 0x0, symName: __ZNSt3__18_IterOpsINS_17_ClassicAlgPolicyEE25__validate_iter_referenceB8ue170006IRNS_16reverse_iteratorIPdEEEEvv, symObjAddr: 0x7B58, symBinAddr: 0x10000BF84, symSize: 0x4 }
  - { offsetInCU: 0x15EF9, offset: 0x15EF9, size: 0x8, addend: 0x0, symName: __ZNSt3__118__unwrap_iter_implINS_16reverse_iteratorIPdEELb0EE8__unwrapB8ue170006ES3_, symObjAddr: 0x7B5C, symBinAddr: 0x10000BF88, symSize: 0x24 }
  - { offsetInCU: 0x15F1C, offset: 0x15F1C, size: 0x8, addend: 0x0, symName: __ZNSt3__14pairINS_16reverse_iteratorIPdEES3_EC1B8ue170006ERKS3_S6_, symObjAddr: 0x7B80, symBinAddr: 0x10000BFAC, symSize: 0x3C }
  - { offsetInCU: 0x15F62, offset: 0x15F62, size: 0x8, addend: 0x0, symName: __ZNSt3__14pairINS_16reverse_iteratorIPdEES3_EC2B8ue170006ERKS3_S6_, symObjAddr: 0x7BBC, symBinAddr: 0x10000BFE8, symSize: 0x34 }
  - { offsetInCU: 0x15FA8, offset: 0x15FA8, size: 0x8, addend: 0x0, symName: __ZNSt3__118__unwrap_iter_implINS_16reverse_iteratorIPdEELb0EE8__rewrapB8ue170006ES3_S3_, symObjAddr: 0x7BF0, symBinAddr: 0x10000C01C, symSize: 0x2C }
  - { offsetInCU: 0x15FD6, offset: 0x15FD6, size: 0x8, addend: 0x0, symName: __ZNSt3__116reverse_iteratorIPdEC2B8ue170006ES1_, symObjAddr: 0x7C1C, symBinAddr: 0x10000C048, symSize: 0x28 }
  - { offsetInCU: 0x1600E, offset: 0x1600E, size: 0x8, addend: 0x0, symName: __ZNSt3__114__split_bufferIdRNS_9allocatorIdEEED2Ev, symObjAddr: 0x7C44, symBinAddr: 0x10000C070, symSize: 0x80 }
  - { offsetInCU: 0x1603A, offset: 0x1603A, size: 0x8, addend: 0x0, symName: __ZNSt3__114__split_bufferIdRNS_9allocatorIdEEE5clearB8ue170006Ev, symObjAddr: 0x7CC4, symBinAddr: 0x10000C0F0, symSize: 0x28 }
  - { offsetInCU: 0x16060, offset: 0x16060, size: 0x8, addend: 0x0, symName: __ZNSt3__116allocator_traitsINS_9allocatorIdEEE10deallocateB8ue170006ERS2_Pdm, symObjAddr: 0x7CEC, symBinAddr: 0x10000C118, symSize: 0x34 }
  - { offsetInCU: 0x160A2, offset: 0x160A2, size: 0x8, addend: 0x0, symName: __ZNKSt3__114__split_bufferIdRNS_9allocatorIdEEE8capacityB8ue170006Ev, symObjAddr: 0x7D20, symBinAddr: 0x10000C14C, symSize: 0x40 }
  - { offsetInCU: 0x160C8, offset: 0x160C8, size: 0x8, addend: 0x0, symName: __ZNSt3__114__split_bufferIdRNS_9allocatorIdEEE17__destruct_at_endB8ue170006EPd, symObjAddr: 0x7D60, symBinAddr: 0x10000C18C, symSize: 0x2C }
  - { offsetInCU: 0x160FC, offset: 0x160FC, size: 0x8, addend: 0x0, symName: __ZNSt3__114__split_bufferIdRNS_9allocatorIdEEE17__destruct_at_endB8ue170006EPdNS_17integral_constantIbLb0EEE, symObjAddr: 0x7D8C, symBinAddr: 0x10000C1B8, symSize: 0x94 }
  - { offsetInCU: 0x1613C, offset: 0x1613C, size: 0x8, addend: 0x0, symName: __ZNSt3__116allocator_traitsINS_9allocatorIdEEE7destroyB8ue170006IdvEEvRS2_PT_, symObjAddr: 0x7E20, symBinAddr: 0x10000C24C, symSize: 0x2C }
  - { offsetInCU: 0x16179, offset: 0x16179, size: 0x8, addend: 0x0, symName: __ZNSt3__19allocatorIdE7destroyB8ue170006EPd, symObjAddr: 0x7E4C, symBinAddr: 0x10000C278, symSize: 0x14 }
  - { offsetInCU: 0x161AD, offset: 0x161AD, size: 0x8, addend: 0x0, symName: __ZNSt3__19allocatorIdE10deallocateB8ue170006EPdm, symObjAddr: 0x7E60, symBinAddr: 0x10000C28C, symSize: 0x70 }
  - { offsetInCU: 0x161EF, offset: 0x161EF, size: 0x8, addend: 0x0, symName: __ZNKSt3__114__split_bufferIdRNS_9allocatorIdEEE9__end_capB8ue170006Ev, symObjAddr: 0x7ED0, symBinAddr: 0x10000C2FC, symSize: 0x28 }
  - { offsetInCU: 0x16215, offset: 0x16215, size: 0x8, addend: 0x0, symName: __ZNKSt3__117__compressed_pairIPdRNS_9allocatorIdEEE5firstB8ue170006Ev, symObjAddr: 0x7EF8, symBinAddr: 0x10000C324, symSize: 0x24 }
  - { offsetInCU: 0x1623B, offset: 0x1623B, size: 0x8, addend: 0x0, symName: __ZNSt3__16vectorIN16PerfectHash4Real14SecondaryTableENS_9allocatorIS2_EEEixB8ue170006Em, symObjAddr: 0x7F1C, symBinAddr: 0x10000C348, symSize: 0x2C }
  - { offsetInCU: 0x16272, offset: 0x16272, size: 0x8, addend: 0x0, symName: __ZNSt3__16vectorINS_4pairIdiEENS_9allocatorIS2_EEE6resizeEm, symObjAddr: 0x7F48, symBinAddr: 0x10000C374, symSize: 0x94 }
  - { offsetInCU: 0x162B7, offset: 0x162B7, size: 0x8, addend: 0x0, symName: __ZN16PerfectHash4Real14SecondaryTable5resetEv, symObjAddr: 0x7FDC, symBinAddr: 0x10000C408, symSize: 0x68 }
  - { offsetInCU: 0x162DD, offset: 0x162DD, size: 0x8, addend: 0x0, symName: __ZNK16PerfectHash4Real14SecondaryTable13universalHashEd, symObjAddr: 0x8044, symBinAddr: 0x10000C470, symSize: 0x68 }
  - { offsetInCU: 0x1632D, offset: 0x1632D, size: 0x8, addend: 0x0, symName: __Z5isnanB8ue170006Ua9enable_ifIXLb1EEEd, symObjAddr: 0x80AC, symBinAddr: 0x10000C4D8, symSize: 0x20 }
  - { offsetInCU: 0x1635C, offset: 0x1635C, size: 0x8, addend: 0x0, symName: __ZNSt3__16vectorINS_4pairIdiEENS_9allocatorIS2_EEEixB8ue170006Em, symObjAddr: 0x80CC, symBinAddr: 0x10000C4F8, symSize: 0x24 }
  - { offsetInCU: 0x16393, offset: 0x16393, size: 0x8, addend: 0x0, symName: __ZNSt3__14pairIdiEaSB8ue170006ERKS1_, symObjAddr: 0x8128, symBinAddr: 0x10000C554, symSize: 0x30 }
  - { offsetInCU: 0x163C7, offset: 0x163C7, size: 0x8, addend: 0x0, symName: __ZNSt3__16vectorINS_4pairIdiEENS_9allocatorIS2_EEE8__appendEm, symObjAddr: 0x8158, symBinAddr: 0x10000C584, symSize: 0x110 }
  - { offsetInCU: 0x16421, offset: 0x16421, size: 0x8, addend: 0x0, symName: __ZNSt3__16vectorINS_4pairIdiEENS_9allocatorIS2_EEE17__destruct_at_endB8ue170006EPS2_, symObjAddr: 0x8268, symBinAddr: 0x10000C694, symSize: 0x4C }
  - { offsetInCU: 0x16465, offset: 0x16465, size: 0x8, addend: 0x0, symName: __ZNSt3__16vectorINS_4pairIdiEENS_9allocatorIS2_EEE18__construct_at_endEm, symObjAddr: 0x82B4, symBinAddr: 0x10000C6E0, symSize: 0xD0 }
  - { offsetInCU: 0x164D7, offset: 0x164D7, size: 0x8, addend: 0x0, symName: __ZNKSt3__16vectorINS_4pairIdiEENS_9allocatorIS2_EEE11__recommendB8ue170006Em, symObjAddr: 0x8384, symBinAddr: 0x10000C7B0, symSize: 0xB4 }
  - { offsetInCU: 0x1652B, offset: 0x1652B, size: 0x8, addend: 0x0, symName: __ZNSt3__114__split_bufferINS_4pairIdiEERNS_9allocatorIS2_EEEC1EmmS5_, symObjAddr: 0x8438, symBinAddr: 0x10000C864, symSize: 0x44 }
  - { offsetInCU: 0x16581, offset: 0x16581, size: 0x8, addend: 0x0, symName: __ZNSt3__114__split_bufferINS_4pairIdiEERNS_9allocatorIS2_EEE18__construct_at_endEm, symObjAddr: 0x847C, symBinAddr: 0x10000C8A8, symSize: 0xBC }
  - { offsetInCU: 0x165C5, offset: 0x165C5, size: 0x8, addend: 0x0, symName: __ZNSt3__114__split_bufferINS_4pairIdiEERNS_9allocatorIS2_EEED1Ev, symObjAddr: 0x8648, symBinAddr: 0x10000CA74, symSize: 0x2C }
  - { offsetInCU: 0x165F1, offset: 0x165F1, size: 0x8, addend: 0x0, symName: __ZNSt3__116allocator_traitsINS_9allocatorINS_4pairIdiEEEEE9constructB8ue170006IS3_JEvEEvRS4_PT_DpOT0_, symObjAddr: 0x8674, symBinAddr: 0x10000CAA0, symSize: 0x2C }
  - { offsetInCU: 0x16633, offset: 0x16633, size: 0x8, addend: 0x0, symName: __ZNSt3__19allocatorINS_4pairIdiEEE9constructB8ue170006IS2_JEEEvPT_DpOT0_, symObjAddr: 0x86A0, symBinAddr: 0x10000CACC, symSize: 0x28 }
  - { offsetInCU: 0x16675, offset: 0x16675, size: 0x8, addend: 0x0, symName: __ZNSt3__14pairIdiEC1B8ue170006Ev, symObjAddr: 0x86C8, symBinAddr: 0x10000CAF4, symSize: 0x2C }
  - { offsetInCU: 0x1669F, offset: 0x1669F, size: 0x8, addend: 0x0, symName: __ZNSt3__14pairIdiEC2B8ue170006Ev, symObjAddr: 0x86F4, symBinAddr: 0x10000CB20, symSize: 0x20 }
  - { offsetInCU: 0x166C9, offset: 0x166C9, size: 0x8, addend: 0x0, symName: __ZNSt3__114__split_bufferINS_4pairIdiEERNS_9allocatorIS2_EEEC2EmmS5_, symObjAddr: 0x8714, symBinAddr: 0x10000CB40, symSize: 0xD4 }
  - { offsetInCU: 0x1673D, offset: 0x1673D, size: 0x8, addend: 0x0, symName: __ZNSt3__117__compressed_pairIPNS_4pairIdiEERNS_9allocatorIS2_EEEC1B8ue170006IDnS6_EEOT_OT0_, symObjAddr: 0x87E8, symBinAddr: 0x10000CC14, symSize: 0x3C }
  - { offsetInCU: 0x16795, offset: 0x16795, size: 0x8, addend: 0x0, symName: __ZNSt3__114__split_bufferINS_4pairIdiEERNS_9allocatorIS2_EEE7__allocB8ue170006Ev, symObjAddr: 0x8824, symBinAddr: 0x10000CC50, symSize: 0x28 }
  - { offsetInCU: 0x167BB, offset: 0x167BB, size: 0x8, addend: 0x0, symName: __ZNSt3__114__split_bufferINS_4pairIdiEERNS_9allocatorIS2_EEE9__end_capB8ue170006Ev, symObjAddr: 0x884C, symBinAddr: 0x10000CC78, symSize: 0x28 }
  - { offsetInCU: 0x167E1, offset: 0x167E1, size: 0x8, addend: 0x0, symName: __ZNSt3__117__compressed_pairIPNS_4pairIdiEERNS_9allocatorIS2_EEEC2B8ue170006IDnS6_EEOT_OT0_, symObjAddr: 0x8874, symBinAddr: 0x10000CCA0, symSize: 0x48 }
  - { offsetInCU: 0x16839, offset: 0x16839, size: 0x8, addend: 0x0, symName: __ZNSt3__122__compressed_pair_elemIRNS_9allocatorINS_4pairIdiEEEELi1ELb0EEC2B8ue170006IS5_vEEOT_, symObjAddr: 0x88BC, symBinAddr: 0x10000CCE8, symSize: 0x20 }
  - { offsetInCU: 0x1687B, offset: 0x1687B, size: 0x8, addend: 0x0, symName: __ZNSt3__117__compressed_pairIPNS_4pairIdiEERNS_9allocatorIS2_EEE6secondB8ue170006Ev, symObjAddr: 0x88DC, symBinAddr: 0x10000CD08, symSize: 0x28 }
  - { offsetInCU: 0x168A1, offset: 0x168A1, size: 0x8, addend: 0x0, symName: __ZNSt3__122__compressed_pair_elemIRNS_9allocatorINS_4pairIdiEEEELi1ELb0EE5__getB8ue170006Ev, symObjAddr: 0x8904, symBinAddr: 0x10000CD30, symSize: 0x18 }
  - { offsetInCU: 0x168C7, offset: 0x168C7, size: 0x8, addend: 0x0, symName: __ZNSt3__117__compressed_pairIPNS_4pairIdiEERNS_9allocatorIS2_EEE5firstB8ue170006Ev, symObjAddr: 0x891C, symBinAddr: 0x10000CD48, symSize: 0x24 }
  - { offsetInCU: 0x168F7, offset: 0x168F7, size: 0x8, addend: 0x0, symName: __ZNSt3__114__split_bufferINS_4pairIdiEERNS_9allocatorIS2_EEE21_ConstructTransactionC1B8ue170006EPPS2_m, symObjAddr: 0x8940, symBinAddr: 0x10000CD6C, symSize: 0x3C }
  - { offsetInCU: 0x1693D, offset: 0x1693D, size: 0x8, addend: 0x0, symName: __ZNSt3__114__split_bufferINS_4pairIdiEERNS_9allocatorIS2_EEE21_ConstructTransactionD1B8ue170006Ev, symObjAddr: 0x897C, symBinAddr: 0x10000CDA8, symSize: 0x2C }
  - { offsetInCU: 0x16967, offset: 0x16967, size: 0x8, addend: 0x0, symName: __ZNSt3__114__split_bufferINS_4pairIdiEERNS_9allocatorIS2_EEE21_ConstructTransactionC2B8ue170006EPPS2_m, symObjAddr: 0x89A8, symBinAddr: 0x10000CDD4, symSize: 0x44 }
  - { offsetInCU: 0x169AD, offset: 0x169AD, size: 0x8, addend: 0x0, symName: __ZNSt3__114__split_bufferINS_4pairIdiEERNS_9allocatorIS2_EEE21_ConstructTransactionD2B8ue170006Ev, symObjAddr: 0x89EC, symBinAddr: 0x10000CE18, symSize: 0x20 }
  - { offsetInCU: 0x169D7, offset: 0x169D7, size: 0x8, addend: 0x0, symName: __ZNSt3__129_AllocatorDestroyRangeReverseINS_9allocatorINS_4pairIdiEEEENS_16reverse_iteratorIPS3_EEEC1B8ue170006ERS4_RS7_SA_, symObjAddr: 0x8BB8, symBinAddr: 0x10000CFE4, symSize: 0x44 }
  - { offsetInCU: 0x16A2E, offset: 0x16A2E, size: 0x8, addend: 0x0, symName: __ZNSt3__116allocator_traitsINS_9allocatorINS_4pairIdiEEEEE9constructB8ue170006IS3_JS3_EvEEvRS4_PT_DpOT0_, symObjAddr: 0x8BFC, symBinAddr: 0x10000D028, symSize: 0x34 }
  - { offsetInCU: 0x16A85, offset: 0x16A85, size: 0x8, addend: 0x0, symName: __ZNSt3__128__exception_guard_exceptionsINS_29_AllocatorDestroyRangeReverseINS_9allocatorINS_4pairIdiEEEENS_16reverse_iteratorIPS4_EEEEE10__completeB8ue170006Ev, symObjAddr: 0x8C30, symBinAddr: 0x10000D05C, symSize: 0x1C }
  - { offsetInCU: 0x16AAB, offset: 0x16AAB, size: 0x8, addend: 0x0, symName: __ZNSt3__128__exception_guard_exceptionsINS_29_AllocatorDestroyRangeReverseINS_9allocatorINS_4pairIdiEEEENS_16reverse_iteratorIPS4_EEEEED1B8ue170006Ev, symObjAddr: 0x8C4C, symBinAddr: 0x10000D078, symSize: 0x2C }
  - { offsetInCU: 0x16AD5, offset: 0x16AD5, size: 0x8, addend: 0x0, symName: __ZNSt3__128__exception_guard_exceptionsINS_29_AllocatorDestroyRangeReverseINS_9allocatorINS_4pairIdiEEEENS_16reverse_iteratorIPS4_EEEEEC1B8ue170006ES9_, symObjAddr: 0x8C78, symBinAddr: 0x10000D0A4, symSize: 0x34 }
  - { offsetInCU: 0x16B0E, offset: 0x16B0E, size: 0x8, addend: 0x0, symName: __ZNSt3__128__exception_guard_exceptionsINS_29_AllocatorDestroyRangeReverseINS_9allocatorINS_4pairIdiEEEENS_16reverse_iteratorIPS4_EEEEEC2B8ue170006ES9_, symObjAddr: 0x8CAC, symBinAddr: 0x10000D0D8, symSize: 0x30 }
  - { offsetInCU: 0x16B47, offset: 0x16B47, size: 0x8, addend: 0x0, symName: __ZNSt3__129_AllocatorDestroyRangeReverseINS_9allocatorINS_4pairIdiEEEENS_16reverse_iteratorIPS3_EEEC2B8ue170006ERS4_RS7_SA_, symObjAddr: 0x8CDC, symBinAddr: 0x10000D108, symSize: 0x38 }
  - { offsetInCU: 0x16B9E, offset: 0x16B9E, size: 0x8, addend: 0x0, symName: __ZNSt3__19allocatorINS_4pairIdiEEE9constructB8ue170006IS2_JS2_EEEvPT_DpOT0_, symObjAddr: 0x8D14, symBinAddr: 0x10000D140, symSize: 0x28 }
  - { offsetInCU: 0x16BF4, offset: 0x16BF4, size: 0x8, addend: 0x0, symName: __ZNSt3__128__exception_guard_exceptionsINS_29_AllocatorDestroyRangeReverseINS_9allocatorINS_4pairIdiEEEENS_16reverse_iteratorIPS4_EEEEED2B8ue170006Ev, symObjAddr: 0x8D3C, symBinAddr: 0x10000D168, symSize: 0x48 }
  - { offsetInCU: 0x16C1E, offset: 0x16C1E, size: 0x8, addend: 0x0, symName: __ZNKSt3__129_AllocatorDestroyRangeReverseINS_9allocatorINS_4pairIdiEEEENS_16reverse_iteratorIPS3_EEEclB8ue170006Ev, symObjAddr: 0x8D84, symBinAddr: 0x10000D1B0, symSize: 0xB4 }
  - { offsetInCU: 0x16C45, offset: 0x16C45, size: 0x8, addend: 0x0, symName: __ZNSt3__116reverse_iteratorINS0_IPNS_4pairIdiEEEEEC1B8ue170006ES4_, symObjAddr: 0x8EA8, symBinAddr: 0x10000D2D4, symSize: 0x3C }
  - { offsetInCU: 0x16C7D, offset: 0x16C7D, size: 0x8, addend: 0x0, symName: __ZNSt3__116reverse_iteratorINS0_IPNS_4pairIdiEEEEEppB8ue170006Ev, symObjAddr: 0x8F68, symBinAddr: 0x10000D394, symSize: 0x30 }
  - { offsetInCU: 0x16CA3, offset: 0x16CA3, size: 0x8, addend: 0x0, symName: __ZNKSt3__116reverse_iteratorINS0_IPNS_4pairIdiEEEEE4baseB8ue170006Ev, symObjAddr: 0x8F98, symBinAddr: 0x10000D3C4, symSize: 0x24 }
  - { offsetInCU: 0x16CCE, offset: 0x16CCE, size: 0x8, addend: 0x0, symName: __ZNSt3__119__to_address_helperINS_16reverse_iteratorINS1_IPNS_4pairIdiEEEEEEvE6__callB8ue170006ERKS6_, symObjAddr: 0x8FBC, symBinAddr: 0x10000D3E8, symSize: 0x4C }
  - { offsetInCU: 0x16CF1, offset: 0x16CF1, size: 0x8, addend: 0x0, symName: __ZNKSt3__116reverse_iteratorINS0_IPNS_4pairIdiEEEEEptB8ue170006Ev, symObjAddr: 0x9008, symBinAddr: 0x10000D434, symSize: 0x24 }
  - { offsetInCU: 0x16D17, offset: 0x16D17, size: 0x8, addend: 0x0, symName: __ZNKSt3__116reverse_iteratorINS0_IPNS_4pairIdiEEEEEdeB8ue170006Ev, symObjAddr: 0x902C, symBinAddr: 0x10000D458, symSize: 0x34 }
  - { offsetInCU: 0x16D4B, offset: 0x16D4B, size: 0x8, addend: 0x0, symName: __ZNSt3__116reverse_iteratorIPNS_4pairIdiEEEmmB8ue170006Ev, symObjAddr: 0x9060, symBinAddr: 0x10000D48C, symSize: 0x20 }
  - { offsetInCU: 0x16D71, offset: 0x16D71, size: 0x8, addend: 0x0, symName: __ZNSt3__116reverse_iteratorINS0_IPNS_4pairIdiEEEEEC2B8ue170006ES4_, symObjAddr: 0x9080, symBinAddr: 0x10000D4AC, symSize: 0x2C }
  - { offsetInCU: 0x16DA9, offset: 0x16DA9, size: 0x8, addend: 0x0, symName: __ZNSt3__114__split_bufferINS_4pairIdiEERNS_9allocatorIS2_EEED2Ev, symObjAddr: 0x90AC, symBinAddr: 0x10000D4D8, symSize: 0x80 }
  - { offsetInCU: 0x16DD5, offset: 0x16DD5, size: 0x8, addend: 0x0, symName: __ZNSt3__114__split_bufferINS_4pairIdiEERNS_9allocatorIS2_EEE5clearB8ue170006Ev, symObjAddr: 0x912C, symBinAddr: 0x10000D558, symSize: 0x28 }
  - { offsetInCU: 0x16DFB, offset: 0x16DFB, size: 0x8, addend: 0x0, symName: __ZNKSt3__114__split_bufferINS_4pairIdiEERNS_9allocatorIS2_EEE8capacityB8ue170006Ev, symObjAddr: 0x9154, symBinAddr: 0x10000D580, symSize: 0x40 }
  - { offsetInCU: 0x16E21, offset: 0x16E21, size: 0x8, addend: 0x0, symName: __ZNSt3__114__split_bufferINS_4pairIdiEERNS_9allocatorIS2_EEE17__destruct_at_endB8ue170006EPS2_, symObjAddr: 0x9194, symBinAddr: 0x10000D5C0, symSize: 0x2C }
  - { offsetInCU: 0x16E55, offset: 0x16E55, size: 0x8, addend: 0x0, symName: __ZNSt3__114__split_bufferINS_4pairIdiEERNS_9allocatorIS2_EEE17__destruct_at_endB8ue170006EPS2_NS_17integral_constantIbLb0EEE, symObjAddr: 0x91C0, symBinAddr: 0x10000D5EC, symSize: 0x94 }
  - { offsetInCU: 0x16E95, offset: 0x16E95, size: 0x8, addend: 0x0, symName: __ZNKSt3__114__split_bufferINS_4pairIdiEERNS_9allocatorIS2_EEE9__end_capB8ue170006Ev, symObjAddr: 0x9254, symBinAddr: 0x10000D680, symSize: 0x28 }
  - { offsetInCU: 0x16EBB, offset: 0x16EBB, size: 0x8, addend: 0x0, symName: __ZNKSt3__117__compressed_pairIPNS_4pairIdiEERNS_9allocatorIS2_EEE5firstB8ue170006Ev, symObjAddr: 0x927C, symBinAddr: 0x10000D6A8, symSize: 0x24 }
  - { offsetInCU: 0x16EE1, offset: 0x16EE1, size: 0x8, addend: 0x0, symName: __ZNKSt3__16vectorINS_4pairIdiEENS_9allocatorIS2_EEE17__annotate_shrinkB8ue170006Em, symObjAddr: 0x92A0, symBinAddr: 0x10000D6CC, symSize: 0xB4 }
  - { offsetInCU: 0x16F16, offset: 0x16F16, size: 0x8, addend: 0x0, symName: __ZNSt3__16vectorINS_4pairIdiEENS_9allocatorIS2_EEE6assignEmRKS2_, symObjAddr: 0x9354, symBinAddr: 0x10000D780, symSize: 0x108 }
  - { offsetInCU: 0x16F79, offset: 0x16F79, size: 0x8, addend: 0x0, symName: __ZNSt3__114numeric_limitsIdE9quiet_NaNB8ue170006Ev, symObjAddr: 0x9494, symBinAddr: 0x10000D8C0, symSize: 0x14 }
  - { offsetInCU: 0x16F8D, offset: 0x16F8D, size: 0x8, addend: 0x0, symName: __ZNSt3__16vectorINS_4pairIdiEENS_9allocatorIS2_EEE18__construct_at_endEmRKS2_, symObjAddr: 0x94EC, symBinAddr: 0x10000D918, symSize: 0xD8 }
  - { offsetInCU: 0x1700E, offset: 0x1700E, size: 0x8, addend: 0x0, symName: __ZNSt3__16vectorINS_4pairIdiEENS_9allocatorIS2_EEE13__vdeallocateEv, symObjAddr: 0x95C4, symBinAddr: 0x10000D9F0, symSize: 0x94 }
  - { offsetInCU: 0x17035, offset: 0x17035, size: 0x8, addend: 0x0, symName: __ZNSt3__116allocator_traitsINS_9allocatorINS_4pairIdiEEEEE9constructB8ue170006IS3_JRKS3_EvEEvRS4_PT_DpOT0_, symObjAddr: 0x96D8, symBinAddr: 0x10000DB04, symSize: 0x34 }
  - { offsetInCU: 0x1708C, offset: 0x1708C, size: 0x8, addend: 0x0, symName: __ZNSt3__19allocatorINS_4pairIdiEEE9constructB8ue170006IS2_JRKS2_EEEvPT_DpOT0_, symObjAddr: 0x970C, symBinAddr: 0x10000DB38, symSize: 0x28 }
  - { offsetInCU: 0x170E2, offset: 0x170E2, size: 0x8, addend: 0x0, symName: __ZNSt3__16vectorINS_4pairIdiEENS_9allocatorIS2_EEE5clearB8ue170006Ev, symObjAddr: 0x9734, symBinAddr: 0x10000DB60, symSize: 0x44 }
  - { offsetInCU: 0x17117, offset: 0x17117, size: 0x8, addend: 0x0, symName: __ZNSt3__14pairIdiEC1B8ue170006ERKdRKi, symObjAddr: 0x9778, symBinAddr: 0x10000DBA4, symSize: 0x3C }
  - { offsetInCU: 0x1715D, offset: 0x1715D, size: 0x8, addend: 0x0, symName: __ZNSt3__14pairIdiEC2B8ue170006ERKdRKi, symObjAddr: 0x97B4, symBinAddr: 0x10000DBE0, symSize: 0x34 }
  - { offsetInCU: 0x171A3, offset: 0x171A3, size: 0x8, addend: 0x0, symName: __ZNSt3__123__libcpp_numeric_limitsIdLb1EE9quiet_NaNB8ue170006Ev, symObjAddr: 0x97E8, symBinAddr: 0x10000DC14, symSize: 0xC }
  - { offsetInCU: 0x171B7, offset: 0x171B7, size: 0x8, addend: 0x0, symName: __ZNSt3__16vectorINS0_IdNS_9allocatorIdEEEENS1_IS3_EEED2B8ue170006Ev, symObjAddr: 0x97F4, symBinAddr: 0x10000DC20, symSize: 0x3C }
  - { offsetInCU: 0x171E1, offset: 0x171E1, size: 0x8, addend: 0x0, symName: __ZNSt3__16vectorIN16PerfectHash4Real14SecondaryTableENS_9allocatorIS2_EEED2B8ue170006Ev, symObjAddr: 0x9830, symBinAddr: 0x10000DC5C, symSize: 0x3C }
  - { offsetInCU: 0x1720B, offset: 0x1720B, size: 0x8, addend: 0x0, symName: __ZNSt3__16vectorIN16PerfectHash4Real14SecondaryTableENS_9allocatorIS2_EEE16__destroy_vectorC1B8ue170006ERS5_, symObjAddr: 0x986C, symBinAddr: 0x10000DC98, symSize: 0x34 }
  - { offsetInCU: 0x17244, offset: 0x17244, size: 0x8, addend: 0x0, symName: __ZNSt3__16vectorIN16PerfectHash4Real14SecondaryTableENS_9allocatorIS2_EEE16__destroy_vectorclB8ue170006Ev, symObjAddr: 0x98A0, symBinAddr: 0x10000DCCC, symSize: 0x90 }
  - { offsetInCU: 0x1726A, offset: 0x1726A, size: 0x8, addend: 0x0, symName: __ZNSt3__16vectorIN16PerfectHash4Real14SecondaryTableENS_9allocatorIS2_EEE16__destroy_vectorC2B8ue170006ERS5_, symObjAddr: 0x9930, symBinAddr: 0x10000DD5C, symSize: 0x20 }
  - { offsetInCU: 0x172A3, offset: 0x172A3, size: 0x8, addend: 0x0, symName: __ZNSt3__16vectorIN16PerfectHash4Real14SecondaryTableENS_9allocatorIS2_EEE7__clearB8ue170006Ev, symObjAddr: 0x9950, symBinAddr: 0x10000DD7C, symSize: 0x28 }
  - { offsetInCU: 0x172C9, offset: 0x172C9, size: 0x8, addend: 0x0, symName: __ZNKSt3__16vectorIN16PerfectHash4Real14SecondaryTableENS_9allocatorIS2_EEEixB8ue170006Em, symObjAddr: 0x9978, symBinAddr: 0x10000DDA4, symSize: 0x2C }
  - { offsetInCU: 0x17300, offset: 0x17300, size: 0x8, addend: 0x0, symName: __ZNKSt3__16vectorINS_4pairIdiEENS_9allocatorIS2_EEEixB8ue170006Em, symObjAddr: 0x99A4, symBinAddr: 0x10000DDD0, symSize: 0x24 }
  - { offsetInCU: 0x17337, offset: 0x17337, size: 0x8, addend: 0x0, symName: __ZN16PerfectHash4RealD2Ev, symObjAddr: 0x99C8, symBinAddr: 0x10000DDF4, symSize: 0x2C }
  - { offsetInCU: 0x17363, offset: 0x17363, size: 0x8, addend: 0x0, symName: __ZNSt3__16vectorIdNS_9allocatorIdEEE11__make_iterB8ue170006EPd, symObjAddr: 0x99F4, symBinAddr: 0x10000DE20, symSize: 0x30 }
  - { offsetInCU: 0x17398, offset: 0x17398, size: 0x8, addend: 0x0, symName: __ZNSt3__111__wrap_iterIPdEC1B8ue170006ES1_, symObjAddr: 0x9A24, symBinAddr: 0x10000DE50, symSize: 0x34 }
  - { offsetInCU: 0x173D0, offset: 0x173D0, size: 0x8, addend: 0x0, symName: __ZNSt3__111__wrap_iterIPdEC2B8ue170006ES1_, symObjAddr: 0x9A58, symBinAddr: 0x10000DE84, symSize: 0x20 }
  - { offsetInCU: 0x17408, offset: 0x17408, size: 0x8, addend: 0x0, symName: __ZNKSt3__111__wrap_iterIPdE4baseB8ue170006Ev, symObjAddr: 0x9AC0, symBinAddr: 0x10000DEEC, symSize: 0x18 }
  - { offsetInCU: 0x1744C, offset: 0x1744C, size: 0x8, addend: 0x0, symName: __ZNKSt3__113basic_ostreamIcNS_11char_traitsIcEEE6sentrycvbB8ue170006Ev, symObjAddr: 0x9CCC, symBinAddr: 0x10000E0F8, symSize: 0x1C }
  - { offsetInCU: 0x17472, offset: 0x17472, size: 0x8, addend: 0x0, symName: __ZNSt3__119ostreambuf_iteratorIcNS_11char_traitsIcEEEC1B8ue170006ERNS_13basic_ostreamIcS2_EE, symObjAddr: 0x9F30, symBinAddr: 0x10000E35C, symSize: 0x34 }
  - { offsetInCU: 0x174AA, offset: 0x174AA, size: 0x8, addend: 0x0, symName: __ZNKSt3__18ios_base5flagsB8ue170006Ev, symObjAddr: 0x9F64, symBinAddr: 0x10000E390, symSize: 0x18 }
  - { offsetInCU: 0x174D2, offset: 0x174D2, size: 0x8, addend: 0x0, symName: __ZNKSt3__19basic_iosIcNS_11char_traitsIcEEE4fillB8ue170006Ev, symObjAddr: 0x9F7C, symBinAddr: 0x10000E3A8, symSize: 0x64 }
  - { offsetInCU: 0x174F9, offset: 0x174F9, size: 0x8, addend: 0x0, symName: __ZNKSt3__119ostreambuf_iteratorIcNS_11char_traitsIcEEE6failedB8ue170006Ev, symObjAddr: 0x9FE0, symBinAddr: 0x10000E40C, symSize: 0x24 }
  - { offsetInCU: 0x1751F, offset: 0x1751F, size: 0x8, addend: 0x0, symName: __ZNSt3__19basic_iosIcNS_11char_traitsIcEEE8setstateB8ue170006Ej, symObjAddr: 0xA004, symBinAddr: 0x10000E430, symSize: 0x2C }
  - { offsetInCU: 0x17554, offset: 0x17554, size: 0x8, addend: 0x0, symName: __ZNKSt3__18ios_base5widthB8ue170006Ev, symObjAddr: 0xA030, symBinAddr: 0x10000E45C, symSize: 0x18 }
  - { offsetInCU: 0x1757C, offset: 0x1757C, size: 0x8, addend: 0x0, symName: __ZNSt3__115basic_streambufIcNS_11char_traitsIcEEE5sputnB8ue170006EPKcl, symObjAddr: 0xA048, symBinAddr: 0x10000E474, symSize: 0x3C }
  - { offsetInCU: 0x175BE, offset: 0x175BE, size: 0x8, addend: 0x0, symName: __ZNSt3__112basic_stringIcNS_11char_traitsIcEENS_9allocatorIcEEEC1B8ue170006Emc, symObjAddr: 0xA084, symBinAddr: 0x10000E4B0, symSize: 0x3C }
  - { offsetInCU: 0x17606, offset: 0x17606, size: 0x8, addend: 0x0, symName: __ZNKSt3__112basic_stringIcNS_11char_traitsIcEENS_9allocatorIcEEE4dataB8ue170006Ev, symObjAddr: 0xA0C0, symBinAddr: 0x10000E4EC, symSize: 0x28 }
  - { offsetInCU: 0x1762C, offset: 0x1762C, size: 0x8, addend: 0x0, symName: __ZNSt3__18ios_base5widthB8ue170006El, symObjAddr: 0xA0E8, symBinAddr: 0x10000E514, symSize: 0x2C }
  - { offsetInCU: 0x17672, offset: 0x17672, size: 0x8, addend: 0x0, symName: __ZNSt3__112basic_stringIcNS_11char_traitsIcEENS_9allocatorIcEEEC2B8ue170006Emc, symObjAddr: 0xA114, symBinAddr: 0x10000E540, symSize: 0x4C }
  - { offsetInCU: 0x176BA, offset: 0x176BA, size: 0x8, addend: 0x0, symName: __ZNKSt3__112basic_stringIcNS_11char_traitsIcEENS_9allocatorIcEEE13__get_pointerB8ue170006Ev, symObjAddr: 0xA174, symBinAddr: 0x10000E5A0, symSize: 0x54 }
  - { offsetInCU: 0x176E0, offset: 0x176E0, size: 0x8, addend: 0x0, symName: __ZNKSt3__112basic_stringIcNS_11char_traitsIcEENS_9allocatorIcEEE9__is_longB8ue170006Ev, symObjAddr: 0xA1C8, symBinAddr: 0x10000E5F4, symSize: 0x74 }
  - { offsetInCU: 0x17706, offset: 0x17706, size: 0x8, addend: 0x0, symName: __ZNKSt3__112basic_stringIcNS_11char_traitsIcEENS_9allocatorIcEEE18__get_long_pointerB8ue170006Ev, symObjAddr: 0xA23C, symBinAddr: 0x10000E668, symSize: 0x28 }
  - { offsetInCU: 0x1772C, offset: 0x1772C, size: 0x8, addend: 0x0, symName: __ZNKSt3__112basic_stringIcNS_11char_traitsIcEENS_9allocatorIcEEE19__get_short_pointerB8ue170006Ev, symObjAddr: 0xA264, symBinAddr: 0x10000E690, symSize: 0x28 }
  - { offsetInCU: 0x17752, offset: 0x17752, size: 0x8, addend: 0x0, symName: __ZNKSt3__117__compressed_pairINS_12basic_stringIcNS_11char_traitsIcEENS_9allocatorIcEEE5__repES5_E5firstB8ue170006Ev, symObjAddr: 0xA28C, symBinAddr: 0x10000E6B8, symSize: 0x24 }
  - { offsetInCU: 0x17778, offset: 0x17778, size: 0x8, addend: 0x0, symName: __ZNKSt3__122__compressed_pair_elemINS_12basic_stringIcNS_11char_traitsIcEENS_9allocatorIcEEE5__repELi0ELb0EE5__getB8ue170006Ev, symObjAddr: 0xA2B0, symBinAddr: 0x10000E6DC, symSize: 0x14 }
  - { offsetInCU: 0x1779E, offset: 0x1779E, size: 0x8, addend: 0x0, symName: __ZNSt3__114pointer_traitsIPKcE10pointer_toB8ue170006ERS1_, symObjAddr: 0xA2C4, symBinAddr: 0x10000E6F0, symSize: 0x14 }
  - { offsetInCU: 0x177C1, offset: 0x177C1, size: 0x8, addend: 0x0, symName: __ZNSt3__119ostreambuf_iteratorIcNS_11char_traitsIcEEEC2B8ue170006ERNS_13basic_ostreamIcS2_EE, symObjAddr: 0xA2D8, symBinAddr: 0x10000E704, symSize: 0x68 }
  - { offsetInCU: 0x177F9, offset: 0x177F9, size: 0x8, addend: 0x0, symName: __ZNKSt3__19basic_iosIcNS_11char_traitsIcEEE5rdbufB8ue170006Ev, symObjAddr: 0xA340, symBinAddr: 0x10000E76C, symSize: 0x24 }
  - { offsetInCU: 0x17820, offset: 0x17820, size: 0x8, addend: 0x0, symName: __ZNKSt3__18ios_base5rdbufB8ue170006Ev, symObjAddr: 0xA364, symBinAddr: 0x10000E790, symSize: 0x18 }
  - { offsetInCU: 0x17846, offset: 0x17846, size: 0x8, addend: 0x0, symName: __ZNSt3__111char_traitsIcE11eq_int_typeB8ue170006Eii, symObjAddr: 0xA37C, symBinAddr: 0x10000E7A8, symSize: 0x28 }
  - { offsetInCU: 0x17879, offset: 0x17879, size: 0x8, addend: 0x0, symName: __ZNSt3__111char_traitsIcE3eofB8ue170006Ev, symObjAddr: 0xA3A4, symBinAddr: 0x10000E7D0, symSize: 0x8 }
  - { offsetInCU: 0x1788D, offset: 0x1788D, size: 0x8, addend: 0x0, symName: __ZNKSt3__19basic_iosIcNS_11char_traitsIcEEE5widenB8ue170006Ec, symObjAddr: 0xA3AC, symBinAddr: 0x10000E7D8, symSize: 0x8C }
  - { offsetInCU: 0x178F5, offset: 0x178F5, size: 0x8, addend: 0x0, symName: __ZNKSt3__15ctypeIcE5widenB8ue170006Ec, symObjAddr: 0xA464, symBinAddr: 0x10000E890, symSize: 0x38 }
  - { offsetInCU: 0x1792A, offset: 0x1792A, size: 0x8, addend: 0x0, symName: __ZNSt3__18ios_base8setstateB8ue170006Ej, symObjAddr: 0xA49C, symBinAddr: 0x10000E8C8, symSize: 0x34 }
  - { offsetInCU: 0x17960, offset: 0x17960, size: 0x8, addend: 0x0, symName: __ZNSt3__16vectorIdNS_9allocatorIdEEEC2B8ue170006Ev, symObjAddr: 0xA4D0, symBinAddr: 0x10000E8FC, symSize: 0x44 }
  - { offsetInCU: 0x1798A, offset: 0x1798A, size: 0x8, addend: 0x0, symName: __ZNSt3__117__compressed_pairIPdNS_9allocatorIdEEEC1B8ue170006IDnNS_18__default_init_tagEEEOT_OT0_, symObjAddr: 0xA514, symBinAddr: 0x10000E940, symSize: 0x3C }
  - { offsetInCU: 0x179E2, offset: 0x179E2, size: 0x8, addend: 0x0, symName: __ZNSt3__117__compressed_pairIPdNS_9allocatorIdEEEC2B8ue170006IDnNS_18__default_init_tagEEEOT_OT0_, symObjAddr: 0xA550, symBinAddr: 0x10000E97C, symSize: 0x40 }
  - { offsetInCU: 0x17A3A, offset: 0x17A3A, size: 0x8, addend: 0x0, symName: __ZNSt3__122__compressed_pair_elemINS_9allocatorIdEELi1ELb1EEC2B8ue170006ENS_18__default_init_tagE, symObjAddr: 0xA590, symBinAddr: 0x10000E9BC, symSize: 0x2C }
  - { offsetInCU: 0x17A6F, offset: 0x17A6F, size: 0x8, addend: 0x0, symName: __ZNSt3__19allocatorIdEC2B8ue170006Ev, symObjAddr: 0xA5BC, symBinAddr: 0x10000E9E8, symSize: 0x2C }
  - { offsetInCU: 0x17A99, offset: 0x17A99, size: 0x8, addend: 0x0, symName: __ZNSt3__116__non_trivial_ifILb1ENS_9allocatorIdEEEC2B8ue170006Ev, symObjAddr: 0xA5E8, symBinAddr: 0x10000EA14, symSize: 0x14 }
  - { offsetInCU: 0x17AC3, offset: 0x17AC3, size: 0x8, addend: 0x0, symName: __ZNSt3__16vectorIdNS_9allocatorIdEEED2B8ue170006Ev, symObjAddr: 0xA5FC, symBinAddr: 0x10000EA28, symSize: 0x3C }
  - { offsetInCU: 0x17AED, offset: 0x17AED, size: 0x8, addend: 0x0, symName: __ZNSt3__16vectorIdNS_9allocatorIdEEE16__destroy_vectorC1B8ue170006ERS3_, symObjAddr: 0xA638, symBinAddr: 0x10000EA64, symSize: 0x34 }
  - { offsetInCU: 0x17B26, offset: 0x17B26, size: 0x8, addend: 0x0, symName: __ZNSt3__16vectorIdNS_9allocatorIdEEE16__destroy_vectorclB8ue170006Ev, symObjAddr: 0xA66C, symBinAddr: 0x10000EA98, symSize: 0x90 }
  - { offsetInCU: 0x17B4C, offset: 0x17B4C, size: 0x8, addend: 0x0, symName: __ZNSt3__16vectorIdNS_9allocatorIdEEE16__destroy_vectorC2B8ue170006ERS3_, symObjAddr: 0xA6FC, symBinAddr: 0x10000EB28, symSize: 0x20 }
  - { offsetInCU: 0x17B85, offset: 0x17B85, size: 0x8, addend: 0x0, symName: __ZNSt3__16vectorIdNS_9allocatorIdEEE7__clearB8ue170006Ev, symObjAddr: 0xA71C, symBinAddr: 0x10000EB48, symSize: 0x28 }
  - { offsetInCU: 0x17BAB, offset: 0x17BAB, size: 0x8, addend: 0x0, symName: __ZNSt3__16vectorIdNS_9allocatorIdEEE22__base_destruct_at_endB8ue170006EPd, symObjAddr: 0xA744, symBinAddr: 0x10000EB70, symSize: 0xA0 }
  - { offsetInCU: 0x17BEF, offset: 0x17BEF, size: 0x8, addend: 0x0, symName: __ZNSt3__16vectorIdNS_9allocatorIdEEE22__construct_one_at_endB8ue170006IJdEEEvDpOT_, symObjAddr: 0xA7E4, symBinAddr: 0x10000EC10, symSize: 0x98 }
  - { offsetInCU: 0x17C3E, offset: 0x17C3E, size: 0x8, addend: 0x0, symName: __ZNSt3__16vectorIdNS_9allocatorIdEEE21__push_back_slow_pathIdEEvOT_, symObjAddr: 0xA87C, symBinAddr: 0x10000ECA8, symSize: 0xE0 }
  - { offsetInCU: 0x17C9B, offset: 0x17C9B, size: 0x8, addend: 0x0, symName: __ZNSt3__116allocator_traitsINS_9allocatorIdEEE9constructB8ue170006IdJdEvEEvRS2_PT_DpOT0_, symObjAddr: 0xA95C, symBinAddr: 0x10000ED88, symSize: 0x34 }
  - { offsetInCU: 0x17CF2, offset: 0x17CF2, size: 0x8, addend: 0x0, symName: __ZNSt3__19allocatorIdE9constructB8ue170006IdJdEEEvPT_DpOT0_, symObjAddr: 0xA990, symBinAddr: 0x10000EDBC, symSize: 0x28 }
...
