---
triple:          'arm64-apple-darwin'
binary-path:     '/Users/dunnaya/projects/uni/sem4/Algorithms/labtest'
relocations:
  - { offsetInCU: 0x2DE1, offset: 0x2DE1, size: 0x8, addend: 0x0, symName: __ZNSt3__124__put_character_sequenceB8ue170006IcNS_11char_traitsIcEEEERNS_13basic_ostreamIT_T0_EES7_PKS4_m, symObjAddr: 0xA7C, symBinAddr: 0x100001484, symSize: 0x1F4 }
  - { offsetInCU: 0x9055, offset: 0x9055, size: 0x8, addend: 0x0, symName: __ZNSt3__1lsB8ue170006INS_11char_traitsIcEEEERNS_13basic_ostreamIcT_EES6_PKc, symObjAddr: 0x958, symBinAddr: 0x100001360, symSize: 0x48 }
  - { offsetInCU: 0x909B, offset: 0x909B, size: 0x8, addend: 0x0, symName: __ZNSt3__14endlB8ue170006IcNS_11char_traitsIcEEEERNS_13basic_ostreamIT_T0_EES7_, symObjAddr: 0x9CC, symBinAddr: 0x1000013D4, symSize: 0x58 }
  - { offsetInCU: 0x90DB, offset: 0x90DB, size: 0x8, addend: 0x0, symName: __ZNSt3__116__pad_and_outputB8ue170006IcNS_11char_traitsIcEEEENS_19ostreambuf_iteratorIT_T0_EES6_PKS4_S8_S8_RNS_8ios_baseES4_, symObjAddr: 0xCD4, symBinAddr: 0x1000016DC, symSize: 0x248 }
  - { offsetInCU: 0x91AA, offset: 0x91AA, size: 0x8, addend: 0x0, symName: __ZNSt3__112__to_addressB8ue170006IKcEEPT_S3_, symObjAddr: 0x1244, symBinAddr: 0x100001C4C, symSize: 0x14 }
  - { offsetInCU: 0x91DF, offset: 0x91DF, size: 0x8, addend: 0x0, symName: __ZNSt3__130__libcpp_is_constant_evaluatedB8ue170006Ev, symObjAddr: 0x1370, symBinAddr: 0x100001D78, symSize: 0xC }
  - { offsetInCU: 0x922F, offset: 0x922F, size: 0x8, addend: 0x0, symName: __ZNSt3__19use_facetB8ue170006INS_5ctypeIcEEEERKT_RKNS_6localeE, symObjAddr: 0x1528, symBinAddr: 0x100001F30, symSize: 0x2C }
  - { offsetInCU: 0x96FC, offset: 0x96FC, size: 0x8, addend: 0x0, symName: __ZNSt3__118__constexpr_strlenB8ue170006EPKc, symObjAddr: 0x15C0, symBinAddr: 0x100001FC8, symSize: 0x24 }
  - { offsetInCU: 0x9728, offset: 0x9728, size: 0x8, addend: 0x0, symName: __ZNSt3__122__make_exception_guardB8ue170006INS_6vectorIdNS_9allocatorIdEEE16__destroy_vectorEEENS_28__exception_guard_exceptionsIT_EES7_, symObjAddr: 0x1704, symBinAddr: 0x10000210C, symSize: 0x40 }
  - { offsetInCU: 0x975D, offset: 0x975D, size: 0x8, addend: 0x0, symName: __ZNSt3__119__allocate_at_leastB8ue170006INS_9allocatorIdEEEENS_19__allocation_resultINS_16allocator_traitsIT_E7pointerEEERS5_m, symObjAddr: 0x1B14, symBinAddr: 0x10000251C, symSize: 0x40 }
  - { offsetInCU: 0x97A0, offset: 0x97A0, size: 0x8, addend: 0x0, symName: __ZNSt3__13minB8ue170006ImEERKT_S3_S3_, symObjAddr: 0x1C50, symBinAddr: 0x100002658, symSize: 0x2C }
  - { offsetInCU: 0x99E4, offset: 0x99E4, size: 0x8, addend: 0x0, symName: __ZNSt3__13minB8ue170006ImNS_6__lessIvvEEEERKT_S5_S5_T0_, symObjAddr: 0x1CDC, symBinAddr: 0x1000026E4, symSize: 0x54 }
  - { offsetInCU: 0x9A83, offset: 0x9A83, size: 0x8, addend: 0x0, symName: __ZNSt3__120__throw_length_errorB8ue170006EPKc, symObjAddr: 0x1DB8, symBinAddr: 0x1000027C0, symSize: 0x64 }
  - { offsetInCU: 0x9AAD, offset: 0x9AAD, size: 0x8, addend: 0x0, symName: __ZNSt3__117__libcpp_allocateB8ue170006Emm, symObjAddr: 0x1F54, symBinAddr: 0x10000295C, symSize: 0x28 }
  - { offsetInCU: 0x9AEA, offset: 0x9AEA, size: 0x8, addend: 0x0, symName: __ZNSt3__121__libcpp_operator_newB8ue170006IJmEEEPvDpT_, symObjAddr: 0x1F7C, symBinAddr: 0x100002984, symSize: 0x24 }
  - { offsetInCU: 0x9B23, offset: 0x9B23, size: 0x8, addend: 0x0, symName: __ZNSt3__112__to_addressB8ue170006IdEEPT_S2_, symObjAddr: 0x2098, symBinAddr: 0x100002AA0, symSize: 0x14 }
  - { offsetInCU: 0x9B58, offset: 0x9B58, size: 0x8, addend: 0x0, symName: __ZNSt3__119__libcpp_deallocateB8ue170006EPvmm, symObjAddr: 0x2598, symBinAddr: 0x100002FA0, symSize: 0x30 }
  - { offsetInCU: 0x9BA0, offset: 0x9BA0, size: 0x8, addend: 0x0, symName: __ZNSt3__127__do_deallocate_handle_sizeB8ue170006IJEEEvPvmDpT_, symObjAddr: 0x25C8, symBinAddr: 0x100002FD0, symSize: 0x28 }
  - { offsetInCU: 0x9BDE, offset: 0x9BDE, size: 0x8, addend: 0x0, symName: __ZNSt3__124__libcpp_operator_deleteB8ue170006IJPvEEEvDpT_, symObjAddr: 0x25F0, symBinAddr: 0x100002FF8, symSize: 0x24 }
  - { offsetInCU: 0x9C13, offset: 0x9C13, size: 0x8, addend: 0x0, symName: __ZNSt3__122__make_exception_guardB8ue170006INS_6vectorINS1_IdNS_9allocatorIdEEEENS2_IS4_EEE16__destroy_vectorEEENS_28__exception_guard_exceptionsIT_EES9_, symObjAddr: 0x2770, symBinAddr: 0x100003178, symSize: 0x40 }
  - { offsetInCU: 0x9C48, offset: 0x9C48, size: 0x8, addend: 0x0, symName: __ZNSt3__119__allocate_at_leastB8ue170006INS_9allocatorINS_6vectorIdNS1_IdEEEEEEEENS_19__allocation_resultINS_16allocator_traitsIT_E7pointerEEERS8_m, symObjAddr: 0x2B88, symBinAddr: 0x100003590, symSize: 0x40 }
  - { offsetInCU: 0x9C8B, offset: 0x9C8B, size: 0x8, addend: 0x0, symName: __ZNSt3__112__to_addressB8ue170006INS_6vectorIdNS_9allocatorIdEEEEEEPT_S6_, symObjAddr: 0x2F00, symBinAddr: 0x100003908, symSize: 0x14 }
  - { offsetInCU: 0x9CC0, offset: 0x9CC0, size: 0x8, addend: 0x0, symName: __ZNSt3__130__uninitialized_allocator_copyB8ue170006INS_9allocatorIdEEPdS3_S3_EET2_RT_T0_T1_S4_, symObjAddr: 0x3350, symBinAddr: 0x100003D58, symSize: 0x80 }
  - { offsetInCU: 0x9D5D, offset: 0x9D5D, size: 0x8, addend: 0x0, symName: __ZNSt3__114__unwrap_rangeB8ue170006IPdS1_EENS_4pairIT0_S3_EET_S5_, symObjAddr: 0x33D0, symBinAddr: 0x100003DD8, symSize: 0x60 }
  - { offsetInCU: 0x9DA9, offset: 0x9DA9, size: 0x8, addend: 0x0, symName: __ZNSt3__135__uninitialized_allocator_copy_implB8ue170006INS_9allocatorIdEEPdS3_S3_EET2_RT_T0_T1_S4_, symObjAddr: 0x3430, symBinAddr: 0x100003E38, symSize: 0xFC }
  - { offsetInCU: 0x9E47, offset: 0x9E47, size: 0x8, addend: 0x0, symName: __ZNSt3__113__unwrap_iterB8ue170006IPdNS_18__unwrap_iter_implIS1_Lb1EEELi0EEEDTclsrT0_8__unwrapclsr3stdE7declvalIT_EEEES5_, symObjAddr: 0x352C, symBinAddr: 0x100003F34, symSize: 0x24 }
  - { offsetInCU: 0x9E8B, offset: 0x9E8B, size: 0x8, addend: 0x0, symName: __ZNSt3__113__rewrap_iterB8ue170006IPdS1_NS_18__unwrap_iter_implIS1_Lb1EEEEET_S4_T0_, symObjAddr: 0x3550, symBinAddr: 0x100003F58, symSize: 0x50 }
  - { offsetInCU: 0x9EE0, offset: 0x9EE0, size: 0x8, addend: 0x0, symName: __ZNSt3__19make_pairB8ue170006IPdS1_EENS_4pairINS_18__unwrap_ref_decayIT_E4typeENS3_IT0_E4typeEEEOS4_OS7_, symObjAddr: 0x35A0, symBinAddr: 0x100003FA8, symSize: 0x38 }
  - { offsetInCU: 0x9FDC, offset: 0x9FDC, size: 0x8, addend: 0x0, symName: __ZNSt3__122__make_exception_guardB8ue170006INS_29_AllocatorDestroyRangeReverseINS_9allocatorIdEEPdEEEENS_28__exception_guard_exceptionsIT_EES7_, symObjAddr: 0x3648, symBinAddr: 0x100004050, symSize: 0x4C }
  - { offsetInCU: 0xA012, offset: 0xA012, size: 0x8, addend: 0x0, symName: __ZNSt3__119__allocator_destroyB8ue170006INS_9allocatorIdEENS_16reverse_iteratorIPdEES5_EEvRT_T0_T1_, symObjAddr: 0x38C8, symBinAddr: 0x1000042D0, symSize: 0x70 }
  - { offsetInCU: 0xA075, offset: 0xA075, size: 0x8, addend: 0x0, symName: __ZNSt3__1neB8ue170006IPdS1_EEbRKNS_16reverse_iteratorIT_EERKNS2_IT0_EE, symObjAddr: 0x396C, symBinAddr: 0x100004374, symSize: 0x48 }
  - { offsetInCU: 0xA0C1, offset: 0xA0C1, size: 0x8, addend: 0x0, symName: __ZNSt3__112__to_addressB8ue170006INS_16reverse_iteratorIPdEEvEEu7__decayIDTclsr19__to_address_helperIT_EE6__callclsr3stdE7declvalIRKS4_EEEEES6_, symObjAddr: 0x39B4, symBinAddr: 0x1000043BC, symSize: 0x24 }
  - { offsetInCU: 0xA173, offset: 0xA173, size: 0x8, addend: 0x0, symName: __ZNSt3__112__to_addressB8ue170006I7ComplexEEPT_S3_, symObjAddr: 0x43F4, symBinAddr: 0x100004DFC, symSize: 0x14 }
  - { offsetInCU: 0xA1A8, offset: 0xA1A8, size: 0x8, addend: 0x0, symName: __ZNSt3__13maxB8ue170006ImEERKT_S3_S3_, symObjAddr: 0x4B30, symBinAddr: 0x100005538, symSize: 0x2C }
  - { offsetInCU: 0xA1EB, offset: 0xA1EB, size: 0x8, addend: 0x0, symName: __ZNSt3__13maxB8ue170006ImNS_6__lessIvvEEEERKT_S5_S5_T0_, symObjAddr: 0x4BF4, symBinAddr: 0x1000055FC, symSize: 0x54 }
  - { offsetInCU: 0xA245, offset: 0xA245, size: 0x8, addend: 0x0, symName: __ZNSt3__119__allocate_at_leastB8ue170006INS_9allocatorI7ComplexEEEENS_19__allocation_resultINS_16allocator_traitsIT_E7pointerEEERS6_m, symObjAddr: 0x4D58, symBinAddr: 0x100005760, symSize: 0x40 }
  - { offsetInCU: 0xA288, offset: 0xA288, size: 0x8, addend: 0x0, symName: __ZNSt3__142__uninitialized_allocator_move_if_noexceptB8ue170006INS_9allocatorI7ComplexEENS_16reverse_iteratorIPS2_EES6_S2_vEET1_RT_T0_SA_S7_, symObjAddr: 0x4F38, symBinAddr: 0x100005940, symSize: 0xE8 }
  - { offsetInCU: 0xA305, offset: 0xA305, size: 0x8, addend: 0x0, symName: __ZNSt3__14swapB8ue170006IP7ComplexEEvRT_S4_, symObjAddr: 0x506C, symBinAddr: 0x100005A74, symSize: 0x3C }
  - { offsetInCU: 0xA356, offset: 0xA356, size: 0x8, addend: 0x0, symName: __ZNSt3__1neB8ue170006IP7ComplexS2_EEbRKNS_16reverse_iteratorIT_EERKNS3_IT0_EE, symObjAddr: 0x5154, symBinAddr: 0x100005B5C, symSize: 0x48 }
  - { offsetInCU: 0xA3C7, offset: 0xA3C7, size: 0x8, addend: 0x0, symName: __ZNSt3__114__construct_atB8ue170006I7ComplexJS1_EPS1_EEPT_S4_DpOT0_, symObjAddr: 0x519C, symBinAddr: 0x100005BA4, symSize: 0x2C }
  - { offsetInCU: 0xA437, offset: 0xA437, size: 0x8, addend: 0x0, symName: __ZNSt3__112__to_addressB8ue170006INS_16reverse_iteratorIP7ComplexEEvEEu7__decayIDTclsr19__to_address_helperIT_EE6__callclsr3stdE7declvalIRKS5_EEEEES7_, symObjAddr: 0x51C8, symBinAddr: 0x100005BD0, symSize: 0x24 }
  - { offsetInCU: 0xA46D, offset: 0xA46D, size: 0x8, addend: 0x0, symName: __ZNSt3__14moveB8ue170006INS_16reverse_iteratorIP7ComplexEES4_EET0_T_S6_S5_, symObjAddr: 0x5234, symBinAddr: 0x100005C3C, symSize: 0x78 }
  - { offsetInCU: 0xA4F0, offset: 0xA4F0, size: 0x8, addend: 0x0, symName: __ZNSt3__16__moveB8ue170006INS_17_ClassicAlgPolicyENS_16reverse_iteratorIP7ComplexEES5_S5_EENS_4pairIT0_T2_EES7_T1_S8_, symObjAddr: 0x531C, symBinAddr: 0x100005D24, symSize: 0x64 }
  - { offsetInCU: 0xA55C, offset: 0xA55C, size: 0x8, addend: 0x0, symName: __ZNSt3__123__dispatch_copy_or_moveB8ue170006INS_17_ClassicAlgPolicyENS_11__move_loopIS1_EENS_14__move_trivialENS_16reverse_iteratorIP7ComplexEES8_S8_EENS_4pairIT2_T4_EESA_T3_SB_, symObjAddr: 0x5380, symBinAddr: 0x100005D88, symSize: 0x64 }
  - { offsetInCU: 0xA5DA, offset: 0xA5DA, size: 0x8, addend: 0x0, symName: __ZNSt3__121__unwrap_and_dispatchB8ue170006INS_10__overloadINS_11__move_loopINS_17_ClassicAlgPolicyEEENS_14__move_trivialEEENS_16reverse_iteratorIP7ComplexEESA_SA_Li0EEENS_4pairIT0_T2_EESC_T1_SD_, symObjAddr: 0x53E4, symBinAddr: 0x100005DEC, symSize: 0x12C }
  - { offsetInCU: 0xA66A, offset: 0xA66A, size: 0x8, addend: 0x0, symName: __ZNSt3__114__unwrap_rangeB8ue170006INS_16reverse_iteratorIP7ComplexEES4_EENS_4pairIT0_S6_EET_S8_, symObjAddr: 0x5510, symBinAddr: 0x100005F18, symSize: 0x84 }
  - { offsetInCU: 0xA7FD, offset: 0xA7FD, size: 0x8, addend: 0x0, symName: __ZNSt3__113__unwrap_iterB8ue170006INS_16reverse_iteratorIP7ComplexEENS_18__unwrap_iter_implIS4_Lb0EEELi0EEEDTclsrT0_8__unwrapclsr3stdE7declvalIT_EEEES8_, symObjAddr: 0x5634, symBinAddr: 0x10000603C, symSize: 0x44 }
  - { offsetInCU: 0xA841, offset: 0xA841, size: 0x8, addend: 0x0, symName: __ZNSt3__19make_pairB8ue170006INS_16reverse_iteratorIP7ComplexEES4_EENS_4pairINS_18__unwrap_ref_decayIT_E4typeENS6_IT0_E4typeEEEOS7_OSA_, symObjAddr: 0x5678, symBinAddr: 0x100006080, symSize: 0x38 }
  - { offsetInCU: 0xA890, offset: 0xA890, size: 0x8, addend: 0x0, symName: __ZNSt3__114__rewrap_rangeB8ue170006INS_16reverse_iteratorIP7ComplexEES4_EET_S5_T0_, symObjAddr: 0x56B0, symBinAddr: 0x1000060B8, symSize: 0x5C }
  - { offsetInCU: 0xA8DC, offset: 0xA8DC, size: 0x8, addend: 0x0, symName: __ZNSt3__113__rewrap_iterB8ue170006INS_16reverse_iteratorIP7ComplexEES4_NS_18__unwrap_iter_implIS4_Lb0EEEEET_S7_T0_, symObjAddr: 0x570C, symBinAddr: 0x100006114, symSize: 0x88 }
  - { offsetInCU: 0xAA16, offset: 0xAA16, size: 0x8, addend: 0x0, symName: __ZNSt3__142__uninitialized_allocator_move_if_noexceptB8ue170006INS_9allocatorIdEENS_16reverse_iteratorIPdEES5_dvEET1_RT_T0_S9_S6_, symObjAddr: 0x6114, symBinAddr: 0x100006B1C, symSize: 0xE8 }
  - { offsetInCU: 0xAA93, offset: 0xAA93, size: 0x8, addend: 0x0, symName: __ZNSt3__14swapB8ue170006IPdEEvRT_S3_, symObjAddr: 0x61FC, symBinAddr: 0x100006C04, symSize: 0x3C }
  - { offsetInCU: 0xAB09, offset: 0xAB09, size: 0x8, addend: 0x0, symName: __ZNSt3__114__construct_atB8ue170006IdJdEPdEEPT_S3_DpOT0_, symObjAddr: 0x6238, symBinAddr: 0x100006C40, symSize: 0x2C }
  - { offsetInCU: 0xAB79, offset: 0xAB79, size: 0x8, addend: 0x0, symName: __ZNSt3__14moveB8ue170006INS_16reverse_iteratorIPdEES3_EET0_T_S5_S4_, symObjAddr: 0x6264, symBinAddr: 0x100006C6C, symSize: 0x78 }
  - { offsetInCU: 0xABD3, offset: 0xABD3, size: 0x8, addend: 0x0, symName: __ZNSt3__16__moveB8ue170006INS_17_ClassicAlgPolicyENS_16reverse_iteratorIPdEES4_S4_EENS_4pairIT0_T2_EES6_T1_S7_, symObjAddr: 0x62DC, symBinAddr: 0x100006CE4, symSize: 0x64 }
  - { offsetInCU: 0xAC3F, offset: 0xAC3F, size: 0x8, addend: 0x0, symName: __ZNSt3__123__dispatch_copy_or_moveB8ue170006INS_17_ClassicAlgPolicyENS_11__move_loopIS1_EENS_14__move_trivialENS_16reverse_iteratorIPdEES7_S7_EENS_4pairIT2_T4_EES9_T3_SA_, symObjAddr: 0x6340, symBinAddr: 0x100006D48, symSize: 0x64 }
  - { offsetInCU: 0xACBD, offset: 0xACBD, size: 0x8, addend: 0x0, symName: __ZNSt3__121__unwrap_and_dispatchB8ue170006INS_10__overloadINS_11__move_loopINS_17_ClassicAlgPolicyEEENS_14__move_trivialEEENS_16reverse_iteratorIPdEES9_S9_Li0EEENS_4pairIT0_T2_EESB_T1_SC_, symObjAddr: 0x63A4, symBinAddr: 0x100006DAC, symSize: 0x12C }
  - { offsetInCU: 0xAD4D, offset: 0xAD4D, size: 0x8, addend: 0x0, symName: __ZNSt3__114__unwrap_rangeB8ue170006INS_16reverse_iteratorIPdEES3_EENS_4pairIT0_S5_EET_S7_, symObjAddr: 0x64D0, symBinAddr: 0x100006ED8, symSize: 0x84 }
  - { offsetInCU: 0xAE46, offset: 0xAE46, size: 0x8, addend: 0x0, symName: __ZNSt3__113__unwrap_iterB8ue170006INS_16reverse_iteratorIPdEENS_18__unwrap_iter_implIS3_Lb0EEELi0EEEDTclsrT0_8__unwrapclsr3stdE7declvalIT_EEEES7_, symObjAddr: 0x65F4, symBinAddr: 0x100006FFC, symSize: 0x44 }
  - { offsetInCU: 0xAE8A, offset: 0xAE8A, size: 0x8, addend: 0x0, symName: __ZNSt3__19make_pairB8ue170006INS_16reverse_iteratorIPdEES3_EENS_4pairINS_18__unwrap_ref_decayIT_E4typeENS5_IT0_E4typeEEEOS6_OS9_, symObjAddr: 0x6638, symBinAddr: 0x100007040, symSize: 0x38 }
  - { offsetInCU: 0xAED9, offset: 0xAED9, size: 0x8, addend: 0x0, symName: __ZNSt3__114__rewrap_rangeB8ue170006INS_16reverse_iteratorIPdEES3_EET_S4_T0_, symObjAddr: 0x6670, symBinAddr: 0x100007078, symSize: 0x5C }
  - { offsetInCU: 0xAF25, offset: 0xAF25, size: 0x8, addend: 0x0, symName: __ZNSt3__113__rewrap_iterB8ue170006INS_16reverse_iteratorIPdEES3_NS_18__unwrap_iter_implIS3_Lb0EEEEET_S6_T0_, symObjAddr: 0x66CC, symBinAddr: 0x1000070D4, symSize: 0x88 }
  - { offsetInCU: 0xB221, offset: 0xB221, size: 0x8, addend: 0x0, symName: __ZSt28__throw_bad_array_new_lengthB8ue170006v, symObjAddr: 0x1F20, symBinAddr: 0x100002928, symSize: 0x34 }
  - { offsetInCU: 0xBB90, offset: 0xBB90, size: 0x8, addend: 0x0, symName: __ZNSt3__16vectorI7ComplexNS_9allocatorIS1_EEE26__swap_out_circular_bufferERNS_14__split_bufferIS1_RS3_EE, symObjAddr: 0x4964, symBinAddr: 0x10000536C, symSize: 0x110 }
  - { offsetInCU: 0xBBE5, offset: 0xBBE5, size: 0x8, addend: 0x0, symName: __ZNSt3__16vectorIdNS_9allocatorIdEEE26__swap_out_circular_bufferERNS_14__split_bufferIdRS2_EE, symObjAddr: 0x5DAC, symBinAddr: 0x1000067B4, symSize: 0x110 }
  - { offsetInCU: 0xDF52, offset: 0xDF52, size: 0x8, addend: 0x0, symName: __Z10optimalBSTRKNSt3__16vectorI7ComplexNS_9allocatorIS1_EEEERKNS0_IdNS2_IdEEEE, symObjAddr: 0x0, symBinAddr: 0x100000A08, symSize: 0x480 }
  - { offsetInCU: 0xE08A, offset: 0xE08A, size: 0x8, addend: 0x0, symName: __ZNKSt3__16vectorI7ComplexNS_9allocatorIS1_EEE4sizeB8ue170006Ev, symObjAddr: 0x480, symBinAddr: 0x100000E88, symSize: 0x28 }
  - { offsetInCU: 0xE0AF, offset: 0xE0AF, size: 0x8, addend: 0x0, symName: __ZNSt3__16vectorIdNS_9allocatorIdEEEC1EmRKd, symObjAddr: 0x4A8, symBinAddr: 0x100000EB0, symSize: 0x3C }
  - { offsetInCU: 0xE0F8, offset: 0xE0F8, size: 0x8, addend: 0x0, symName: __ZNSt3__16vectorINS0_IdNS_9allocatorIdEEEENS1_IS3_EEEC1EmRKS3_, symObjAddr: 0x4E4, symBinAddr: 0x100000EEC, symSize: 0x3C }
  - { offsetInCU: 0xE141, offset: 0xE141, size: 0x8, addend: 0x0, symName: __ZNSt3__16vectorIdNS_9allocatorIdEEED1B8ue170006Ev, symObjAddr: 0x520, symBinAddr: 0x100000F28, symSize: 0x2C }
  - { offsetInCU: 0xE16A, offset: 0xE16A, size: 0x8, addend: 0x0, symName: __ZNKSt3__16vectorIdNS_9allocatorIdEEEixB8ue170006Em, symObjAddr: 0x558, symBinAddr: 0x100000F60, symSize: 0x24 }
  - { offsetInCU: 0xE1A0, offset: 0xE1A0, size: 0x8, addend: 0x0, symName: __ZNSt3__16vectorINS0_IdNS_9allocatorIdEEEENS1_IS3_EEEixB8ue170006Em, symObjAddr: 0x57C, symBinAddr: 0x100000F84, symSize: 0x2C }
  - { offsetInCU: 0xE1D6, offset: 0xE1D6, size: 0x8, addend: 0x0, symName: __ZNSt3__16vectorIdNS_9allocatorIdEEEixB8ue170006Em, symObjAddr: 0x5A8, symBinAddr: 0x100000FB0, symSize: 0x24 }
  - { offsetInCU: 0xE20C, offset: 0xE20C, size: 0x8, addend: 0x0, symName: __ZNSt3__114numeric_limitsIdE8infinityB8ue170006Ev, symObjAddr: 0x5CC, symBinAddr: 0x100000FD4, symSize: 0x14 }
  - { offsetInCU: 0xE220, offset: 0xE220, size: 0x8, addend: 0x0, symName: __ZNSt3__16vectorINS0_IdNS_9allocatorIdEEEENS1_IS3_EEED1B8ue170006Ev, symObjAddr: 0x5E0, symBinAddr: 0x100000FE8, symSize: 0x2C }
  - { offsetInCU: 0xE249, offset: 0xE249, size: 0x8, addend: 0x0, symName: _main, symObjAddr: 0x60C, symBinAddr: 0x100001014, symSize: 0x1E0 }
  - { offsetInCU: 0xE280, offset: 0xE280, size: 0x8, addend: 0x0, symName: __ZNSt3__16vectorI7ComplexNS_9allocatorIS1_EEEC1B8ue170006Ev, symObjAddr: 0x7EC, symBinAddr: 0x1000011F4, symSize: 0x2C }
  - { offsetInCU: 0xE2A8, offset: 0xE2A8, size: 0x8, addend: 0x0, symName: __ZNSt3__16vectorI7ComplexNS_9allocatorIS1_EEE9push_backB8ue170006EOS1_, symObjAddr: 0x818, symBinAddr: 0x100001220, symSize: 0x6C }
  - { offsetInCU: 0xE2DE, offset: 0xE2DE, size: 0x8, addend: 0x0, symName: __ZN7ComplexC1Edd, symObjAddr: 0x884, symBinAddr: 0x10000128C, symSize: 0x3C }
  - { offsetInCU: 0xE323, offset: 0xE323, size: 0x8, addend: 0x0, symName: __ZNSt3__16vectorIdNS_9allocatorIdEEEC1B8ue170006Ev, symObjAddr: 0x8C0, symBinAddr: 0x1000012C8, symSize: 0x2C }
  - { offsetInCU: 0xE34B, offset: 0xE34B, size: 0x8, addend: 0x0, symName: __ZNSt3__16vectorIdNS_9allocatorIdEEE9push_backB8ue170006EOd, symObjAddr: 0x8EC, symBinAddr: 0x1000012F4, symSize: 0x6C }
  - { offsetInCU: 0xE381, offset: 0xE381, size: 0x8, addend: 0x0, symName: __ZNSt3__113basic_ostreamIcNS_11char_traitsIcEEElsB8ue170006EPFRS3_S4_E, symObjAddr: 0x9A0, symBinAddr: 0x1000013A8, symSize: 0x2C }
  - { offsetInCU: 0xE3B4, offset: 0xE3B4, size: 0x8, addend: 0x0, symName: __ZNSt3__16vectorI7ComplexNS_9allocatorIS1_EEED1B8ue170006Ev, symObjAddr: 0xA24, symBinAddr: 0x10000142C, symSize: 0x2C }
  - { offsetInCU: 0xE3DD, offset: 0xE3DD, size: 0x8, addend: 0x0, symName: __ZN7ComplexC2Edd, symObjAddr: 0xA50, symBinAddr: 0x100001458, symSize: 0x2C }
  - { offsetInCU: 0xE422, offset: 0xE422, size: 0x8, addend: 0x0, symName: __ZNSt3__111char_traitsIcE6lengthB8ue170006EPKc, symObjAddr: 0xC70, symBinAddr: 0x100001678, symSize: 0x48 }
  - { offsetInCU: 0xE463, offset: 0xE463, size: 0x8, addend: 0x0, symName: __ZNKSt3__113basic_ostreamIcNS_11char_traitsIcEEE6sentrycvbB8ue170006Ev, symObjAddr: 0xCB8, symBinAddr: 0x1000016C0, symSize: 0x1C }
  - { offsetInCU: 0xE488, offset: 0xE488, size: 0x8, addend: 0x0, symName: __ZNSt3__119ostreambuf_iteratorIcNS_11char_traitsIcEEEC1B8ue170006ERNS_13basic_ostreamIcS2_EE, symObjAddr: 0xF1C, symBinAddr: 0x100001924, symSize: 0x34 }
  - { offsetInCU: 0xE4BF, offset: 0xE4BF, size: 0x8, addend: 0x0, symName: __ZNKSt3__18ios_base5flagsB8ue170006Ev, symObjAddr: 0xF50, symBinAddr: 0x100001958, symSize: 0x18 }
  - { offsetInCU: 0xE4E5, offset: 0xE4E5, size: 0x8, addend: 0x0, symName: __ZNKSt3__19basic_iosIcNS_11char_traitsIcEEE4fillB8ue170006Ev, symObjAddr: 0xF68, symBinAddr: 0x100001970, symSize: 0x64 }
  - { offsetInCU: 0xE50C, offset: 0xE50C, size: 0x8, addend: 0x0, symName: __ZNKSt3__119ostreambuf_iteratorIcNS_11char_traitsIcEEE6failedB8ue170006Ev, symObjAddr: 0xFCC, symBinAddr: 0x1000019D4, symSize: 0x24 }
  - { offsetInCU: 0xE531, offset: 0xE531, size: 0x8, addend: 0x0, symName: __ZNSt3__19basic_iosIcNS_11char_traitsIcEEE8setstateB8ue170006Ej, symObjAddr: 0xFF0, symBinAddr: 0x1000019F8, symSize: 0x2C }
  - { offsetInCU: 0xE565, offset: 0xE565, size: 0x8, addend: 0x0, symName: __ZNKSt3__18ios_base5widthB8ue170006Ev, symObjAddr: 0x101C, symBinAddr: 0x100001A24, symSize: 0x18 }
  - { offsetInCU: 0xE58C, offset: 0xE58C, size: 0x8, addend: 0x0, symName: __ZNSt3__115basic_streambufIcNS_11char_traitsIcEEE5sputnB8ue170006EPKcl, symObjAddr: 0x1034, symBinAddr: 0x100001A3C, symSize: 0x3C }
  - { offsetInCU: 0xE5CD, offset: 0xE5CD, size: 0x8, addend: 0x0, symName: __ZNSt3__112basic_stringIcNS_11char_traitsIcEENS_9allocatorIcEEEC1B8ue170006Emc, symObjAddr: 0x1070, symBinAddr: 0x100001A78, symSize: 0x3C }
  - { offsetInCU: 0xE614, offset: 0xE614, size: 0x8, addend: 0x0, symName: __ZNKSt3__112basic_stringIcNS_11char_traitsIcEENS_9allocatorIcEEE4dataB8ue170006Ev, symObjAddr: 0x10AC, symBinAddr: 0x100001AB4, symSize: 0x28 }
  - { offsetInCU: 0xE639, offset: 0xE639, size: 0x8, addend: 0x0, symName: __ZNSt3__18ios_base5widthB8ue170006El, symObjAddr: 0x10D4, symBinAddr: 0x100001ADC, symSize: 0x2C }
  - { offsetInCU: 0xE67E, offset: 0xE67E, size: 0x8, addend: 0x0, symName: __ZNSt3__112basic_stringIcNS_11char_traitsIcEENS_9allocatorIcEEEC2B8ue170006Emc, symObjAddr: 0x1100, symBinAddr: 0x100001B08, symSize: 0x4C }
  - { offsetInCU: 0xE6CA, offset: 0xE6CA, size: 0x8, addend: 0x0, symName: __ZNSt3__117__compressed_pairINS_12basic_stringIcNS_11char_traitsIcEENS_9allocatorIcEEE5__repES5_EC1B8ue170006INS_18__default_init_tagESA_EEOT_OT0_, symObjAddr: 0x114C, symBinAddr: 0x100001B54, symSize: 0x3C }
  - { offsetInCU: 0xE721, offset: 0xE721, size: 0x8, addend: 0x0, symName: __ZNSt3__117__compressed_pairINS_12basic_stringIcNS_11char_traitsIcEENS_9allocatorIcEEE5__repES5_EC2B8ue170006INS_18__default_init_tagESA_EEOT_OT0_, symObjAddr: 0x1188, symBinAddr: 0x100001B90, symSize: 0x3C }
  - { offsetInCU: 0xE778, offset: 0xE778, size: 0x8, addend: 0x0, symName: __ZNSt3__122__compressed_pair_elemINS_12basic_stringIcNS_11char_traitsIcEENS_9allocatorIcEEE5__repELi0ELb0EEC2B8ue170006ENS_18__default_init_tagE, symObjAddr: 0x11C4, symBinAddr: 0x100001BCC, symSize: 0x14 }
  - { offsetInCU: 0xE7AC, offset: 0xE7AC, size: 0x8, addend: 0x0, symName: __ZNSt3__122__compressed_pair_elemINS_9allocatorIcEELi1ELb1EEC2B8ue170006ENS_18__default_init_tagE, symObjAddr: 0x11D8, symBinAddr: 0x100001BE0, symSize: 0x2C }
  - { offsetInCU: 0xE7E0, offset: 0xE7E0, size: 0x8, addend: 0x0, symName: __ZNSt3__19allocatorIcEC2B8ue170006Ev, symObjAddr: 0x1204, symBinAddr: 0x100001C0C, symSize: 0x2C }
  - { offsetInCU: 0xE809, offset: 0xE809, size: 0x8, addend: 0x0, symName: __ZNSt3__116__non_trivial_ifILb1ENS_9allocatorIcEEEC2B8ue170006Ev, symObjAddr: 0x1230, symBinAddr: 0x100001C38, symSize: 0x14 }
  - { offsetInCU: 0xE832, offset: 0xE832, size: 0x8, addend: 0x0, symName: __ZNKSt3__112basic_stringIcNS_11char_traitsIcEENS_9allocatorIcEEE13__get_pointerB8ue170006Ev, symObjAddr: 0x1258, symBinAddr: 0x100001C60, symSize: 0x54 }
  - { offsetInCU: 0xE857, offset: 0xE857, size: 0x8, addend: 0x0, symName: __ZNKSt3__112basic_stringIcNS_11char_traitsIcEENS_9allocatorIcEEE9__is_longB8ue170006Ev, symObjAddr: 0x12AC, symBinAddr: 0x100001CB4, symSize: 0x74 }
  - { offsetInCU: 0xE87C, offset: 0xE87C, size: 0x8, addend: 0x0, symName: __ZNKSt3__112basic_stringIcNS_11char_traitsIcEENS_9allocatorIcEEE18__get_long_pointerB8ue170006Ev, symObjAddr: 0x1320, symBinAddr: 0x100001D28, symSize: 0x28 }
  - { offsetInCU: 0xE8A1, offset: 0xE8A1, size: 0x8, addend: 0x0, symName: __ZNKSt3__112basic_stringIcNS_11char_traitsIcEENS_9allocatorIcEEE19__get_short_pointerB8ue170006Ev, symObjAddr: 0x1348, symBinAddr: 0x100001D50, symSize: 0x28 }
  - { offsetInCU: 0xE8C6, offset: 0xE8C6, size: 0x8, addend: 0x0, symName: __ZNKSt3__117__compressed_pairINS_12basic_stringIcNS_11char_traitsIcEENS_9allocatorIcEEE5__repES5_E5firstB8ue170006Ev, symObjAddr: 0x137C, symBinAddr: 0x100001D84, symSize: 0x24 }
  - { offsetInCU: 0xE8EB, offset: 0xE8EB, size: 0x8, addend: 0x0, symName: __ZNKSt3__122__compressed_pair_elemINS_12basic_stringIcNS_11char_traitsIcEENS_9allocatorIcEEE5__repELi0ELb0EE5__getB8ue170006Ev, symObjAddr: 0x13A0, symBinAddr: 0x100001DA8, symSize: 0x14 }
  - { offsetInCU: 0xE910, offset: 0xE910, size: 0x8, addend: 0x0, symName: __ZNSt3__114pointer_traitsIPKcE10pointer_toB8ue170006ERS1_, symObjAddr: 0x13B4, symBinAddr: 0x100001DBC, symSize: 0x14 }
  - { offsetInCU: 0xE933, offset: 0xE933, size: 0x8, addend: 0x0, symName: __ZNSt3__119ostreambuf_iteratorIcNS_11char_traitsIcEEEC2B8ue170006ERNS_13basic_ostreamIcS2_EE, symObjAddr: 0x13C8, symBinAddr: 0x100001DD0, symSize: 0x68 }
  - { offsetInCU: 0xE969, offset: 0xE969, size: 0x8, addend: 0x0, symName: __ZNKSt3__19basic_iosIcNS_11char_traitsIcEEE5rdbufB8ue170006Ev, symObjAddr: 0x1430, symBinAddr: 0x100001E38, symSize: 0x24 }
  - { offsetInCU: 0xE990, offset: 0xE990, size: 0x8, addend: 0x0, symName: __ZNKSt3__18ios_base5rdbufB8ue170006Ev, symObjAddr: 0x1454, symBinAddr: 0x100001E5C, symSize: 0x18 }
  - { offsetInCU: 0xE9B5, offset: 0xE9B5, size: 0x8, addend: 0x0, symName: __ZNSt3__111char_traitsIcE11eq_int_typeB8ue170006Eii, symObjAddr: 0x146C, symBinAddr: 0x100001E74, symSize: 0x28 }
  - { offsetInCU: 0xE9E8, offset: 0xE9E8, size: 0x8, addend: 0x0, symName: __ZNSt3__111char_traitsIcE3eofB8ue170006Ev, symObjAddr: 0x1494, symBinAddr: 0x100001E9C, symSize: 0x8 }
  - { offsetInCU: 0xE9FB, offset: 0xE9FB, size: 0x8, addend: 0x0, symName: __ZNKSt3__19basic_iosIcNS_11char_traitsIcEEE5widenB8ue170006Ec, symObjAddr: 0x149C, symBinAddr: 0x100001EA4, symSize: 0x8C }
  - { offsetInCU: 0xEA68, offset: 0xEA68, size: 0x8, addend: 0x0, symName: __ZNKSt3__15ctypeIcE5widenB8ue170006Ec, symObjAddr: 0x1554, symBinAddr: 0x100001F5C, symSize: 0x38 }
  - { offsetInCU: 0xEA9B, offset: 0xEA9B, size: 0x8, addend: 0x0, symName: __ZNSt3__18ios_base8setstateB8ue170006Ej, symObjAddr: 0x158C, symBinAddr: 0x100001F94, symSize: 0x34 }
  - { offsetInCU: 0xEAD1, offset: 0xEAD1, size: 0x8, addend: 0x0, symName: __ZNSt3__16vectorIdNS_9allocatorIdEEEC2EmRKd, symObjAddr: 0x15E4, symBinAddr: 0x100001FEC, symSize: 0xE4 }
  - { offsetInCU: 0xEB34, offset: 0xEB34, size: 0x8, addend: 0x0, symName: __ZNSt3__117__compressed_pairIPdNS_9allocatorIdEEEC1B8ue170006IDnNS_18__default_init_tagEEEOT_OT0_, symObjAddr: 0x16C8, symBinAddr: 0x1000020D0, symSize: 0x3C }
  - { offsetInCU: 0xEB8B, offset: 0xEB8B, size: 0x8, addend: 0x0, symName: __ZNSt3__16vectorIdNS_9allocatorIdEEE16__destroy_vectorC1B8ue170006ERS3_, symObjAddr: 0x1744, symBinAddr: 0x10000214C, symSize: 0x34 }
  - { offsetInCU: 0xEBC3, offset: 0xEBC3, size: 0x8, addend: 0x0, symName: __ZNSt3__16vectorIdNS_9allocatorIdEEE11__vallocateB8ue170006Em, symObjAddr: 0x1778, symBinAddr: 0x100002180, symSize: 0xAC }
  - { offsetInCU: 0xEC05, offset: 0xEC05, size: 0x8, addend: 0x0, symName: __ZNSt3__16vectorIdNS_9allocatorIdEEE18__construct_at_endEmRKd, symObjAddr: 0x1824, symBinAddr: 0x10000222C, symSize: 0xD8 }
  - { offsetInCU: 0xEC86, offset: 0xEC86, size: 0x8, addend: 0x0, symName: __ZNSt3__128__exception_guard_exceptionsINS_6vectorIdNS_9allocatorIdEEE16__destroy_vectorEE10__completeB8ue170006Ev, symObjAddr: 0x18FC, symBinAddr: 0x100002304, symSize: 0x1C }
  - { offsetInCU: 0xECAB, offset: 0xECAB, size: 0x8, addend: 0x0, symName: __ZNSt3__128__exception_guard_exceptionsINS_6vectorIdNS_9allocatorIdEEE16__destroy_vectorEED1B8ue170006Ev, symObjAddr: 0x1918, symBinAddr: 0x100002320, symSize: 0x2C }
  - { offsetInCU: 0xECD4, offset: 0xECD4, size: 0x8, addend: 0x0, symName: __ZNSt3__117__compressed_pairIPdNS_9allocatorIdEEEC2B8ue170006IDnNS_18__default_init_tagEEEOT_OT0_, symObjAddr: 0x1944, symBinAddr: 0x10000234C, symSize: 0x40 }
  - { offsetInCU: 0xED2B, offset: 0xED2B, size: 0x8, addend: 0x0, symName: __ZNSt3__122__compressed_pair_elemIPdLi0ELb0EEC2B8ue170006IDnvEEOT_, symObjAddr: 0x1984, symBinAddr: 0x10000238C, symSize: 0x1C }
  - { offsetInCU: 0xED6C, offset: 0xED6C, size: 0x8, addend: 0x0, symName: __ZNSt3__122__compressed_pair_elemINS_9allocatorIdEELi1ELb1EEC2B8ue170006ENS_18__default_init_tagE, symObjAddr: 0x19A0, symBinAddr: 0x1000023A8, symSize: 0x2C }
  - { offsetInCU: 0xEDA0, offset: 0xEDA0, size: 0x8, addend: 0x0, symName: __ZNSt3__19allocatorIdEC2B8ue170006Ev, symObjAddr: 0x19CC, symBinAddr: 0x1000023D4, symSize: 0x2C }
  - { offsetInCU: 0xEDC9, offset: 0xEDC9, size: 0x8, addend: 0x0, symName: __ZNSt3__116__non_trivial_ifILb1ENS_9allocatorIdEEEC2B8ue170006Ev, symObjAddr: 0x19F8, symBinAddr: 0x100002400, symSize: 0x14 }
  - { offsetInCU: 0xEDF2, offset: 0xEDF2, size: 0x8, addend: 0x0, symName: __ZNSt3__128__exception_guard_exceptionsINS_6vectorIdNS_9allocatorIdEEE16__destroy_vectorEEC1B8ue170006ES5_, symObjAddr: 0x1A0C, symBinAddr: 0x100002414, symSize: 0x34 }
  - { offsetInCU: 0xEE29, offset: 0xEE29, size: 0x8, addend: 0x0, symName: __ZNSt3__128__exception_guard_exceptionsINS_6vectorIdNS_9allocatorIdEEE16__destroy_vectorEEC2B8ue170006ES5_, symObjAddr: 0x1A40, symBinAddr: 0x100002448, symSize: 0x24 }
  - { offsetInCU: 0xEE60, offset: 0xEE60, size: 0x8, addend: 0x0, symName: __ZNSt3__16vectorIdNS_9allocatorIdEEE16__destroy_vectorC2B8ue170006ERS3_, symObjAddr: 0x1A64, symBinAddr: 0x10000246C, symSize: 0x20 }
  - { offsetInCU: 0xEE97, offset: 0xEE97, size: 0x8, addend: 0x0, symName: __ZNKSt3__16vectorIdNS_9allocatorIdEEE8max_sizeEv, symObjAddr: 0x1A84, symBinAddr: 0x10000248C, symSize: 0x74 }
  - { offsetInCU: 0xEEBE, offset: 0xEEBE, size: 0x8, addend: 0x0, symName: __ZNKSt3__16vectorIdNS_9allocatorIdEEE20__throw_length_errorB8ue170006Ev, symObjAddr: 0x1AF8, symBinAddr: 0x100002500, symSize: 0x1C }
  - { offsetInCU: 0xEEE3, offset: 0xEEE3, size: 0x8, addend: 0x0, symName: __ZNSt3__16vectorIdNS_9allocatorIdEEE7__allocB8ue170006Ev, symObjAddr: 0x1B54, symBinAddr: 0x10000255C, symSize: 0x28 }
  - { offsetInCU: 0xEF08, offset: 0xEF08, size: 0x8, addend: 0x0, symName: __ZNSt3__16vectorIdNS_9allocatorIdEEE9__end_capB8ue170006Ev, symObjAddr: 0x1B7C, symBinAddr: 0x100002584, symSize: 0x28 }
  - { offsetInCU: 0xEF2D, offset: 0xEF2D, size: 0x8, addend: 0x0, symName: __ZNKSt3__16vectorIdNS_9allocatorIdEEE14__annotate_newB8ue170006Em, symObjAddr: 0x1BA4, symBinAddr: 0x1000025AC, symSize: 0xAC }
  - { offsetInCU: 0xEF6B, offset: 0xEF6B, size: 0x8, addend: 0x0, symName: __ZNSt3__116allocator_traitsINS_9allocatorIdEEE8max_sizeB8ue170006IS2_vEEmRKS2_, symObjAddr: 0x1C7C, symBinAddr: 0x100002684, symSize: 0x24 }
  - { offsetInCU: 0xEF99, offset: 0xEF99, size: 0x8, addend: 0x0, symName: __ZNKSt3__16vectorIdNS_9allocatorIdEEE7__allocB8ue170006Ev, symObjAddr: 0x1CA0, symBinAddr: 0x1000026A8, symSize: 0x28 }
  - { offsetInCU: 0xEFBE, offset: 0xEFBE, size: 0x8, addend: 0x0, symName: __ZNSt3__114numeric_limitsIlE3maxB8ue170006Ev, symObjAddr: 0x1CC8, symBinAddr: 0x1000026D0, symSize: 0x14 }
  - { offsetInCU: 0xEFE6, offset: 0xEFE6, size: 0x8, addend: 0x0, symName: __ZNKSt3__16__lessIvvEclB8ue170006ImmEEbRKT_RKT0_, symObjAddr: 0x1D30, symBinAddr: 0x100002738, symSize: 0x34 }
  - { offsetInCU: 0xF039, offset: 0xF039, size: 0x8, addend: 0x0, symName: __ZNKSt3__19allocatorIdE8max_sizeB8ue170006Ev, symObjAddr: 0x1D64, symBinAddr: 0x10000276C, symSize: 0x14 }
  - { offsetInCU: 0xF05E, offset: 0xF05E, size: 0x8, addend: 0x0, symName: __ZNKSt3__117__compressed_pairIPdNS_9allocatorIdEEE6secondB8ue170006Ev, symObjAddr: 0x1D78, symBinAddr: 0x100002780, symSize: 0x24 }
  - { offsetInCU: 0xF083, offset: 0xF083, size: 0x8, addend: 0x0, symName: __ZNKSt3__122__compressed_pair_elemINS_9allocatorIdEELi1ELb1EE5__getB8ue170006Ev, symObjAddr: 0x1D9C, symBinAddr: 0x1000027A4, symSize: 0x14 }
  - { offsetInCU: 0xF0A8, offset: 0xF0A8, size: 0x8, addend: 0x0, symName: __ZNSt3__123__libcpp_numeric_limitsIlLb1EE3maxB8ue170006Ev, symObjAddr: 0x1DB0, symBinAddr: 0x1000027B8, symSize: 0x8 }
  - { offsetInCU: 0xF0BC, offset: 0xF0BC, size: 0x8, addend: 0x0, symName: __ZNSt12length_errorC1B8ue170006EPKc, symObjAddr: 0x1E1C, symBinAddr: 0x100002824, symSize: 0x34 }
  - { offsetInCU: 0xF0F3, offset: 0xF0F3, size: 0x8, addend: 0x0, symName: __ZNSt12length_errorC2B8ue170006EPKc, symObjAddr: 0x1E50, symBinAddr: 0x100002858, symSize: 0x4C }
  - { offsetInCU: 0xF12A, offset: 0xF12A, size: 0x8, addend: 0x0, symName: __ZNSt3__19allocatorIdE8allocateB8ue170006Em, symObjAddr: 0x1E9C, symBinAddr: 0x1000028A4, symSize: 0x84 }
  - { offsetInCU: 0xF15D, offset: 0xF15D, size: 0x8, addend: 0x0, symName: __ZNSt3__117__compressed_pairIPdNS_9allocatorIdEEE6secondB8ue170006Ev, symObjAddr: 0x1FA0, symBinAddr: 0x1000029A8, symSize: 0x24 }
  - { offsetInCU: 0xF182, offset: 0xF182, size: 0x8, addend: 0x0, symName: __ZNSt3__122__compressed_pair_elemINS_9allocatorIdEELi1ELb1EE5__getB8ue170006Ev, symObjAddr: 0x1FC4, symBinAddr: 0x1000029CC, symSize: 0x14 }
  - { offsetInCU: 0xF1A7, offset: 0xF1A7, size: 0x8, addend: 0x0, symName: __ZNSt3__117__compressed_pairIPdNS_9allocatorIdEEE5firstB8ue170006Ev, symObjAddr: 0x1FD8, symBinAddr: 0x1000029E0, symSize: 0x24 }
  - { offsetInCU: 0xF1CC, offset: 0xF1CC, size: 0x8, addend: 0x0, symName: __ZNSt3__122__compressed_pair_elemIPdLi0ELb0EE5__getB8ue170006Ev, symObjAddr: 0x1FFC, symBinAddr: 0x100002A04, symSize: 0x14 }
  - { offsetInCU: 0xF1F1, offset: 0xF1F1, size: 0x8, addend: 0x0, symName: __ZNKSt3__16vectorIdNS_9allocatorIdEEE31__annotate_contiguous_containerB8ue170006EPKvS5_S5_S5_, symObjAddr: 0x2010, symBinAddr: 0x100002A18, symSize: 0x20 }
  - { offsetInCU: 0xF242, offset: 0xF242, size: 0x8, addend: 0x0, symName: __ZNKSt3__16vectorIdNS_9allocatorIdEEE4dataB8ue170006Ev, symObjAddr: 0x2030, symBinAddr: 0x100002A38, symSize: 0x28 }
  - { offsetInCU: 0xF267, offset: 0xF267, size: 0x8, addend: 0x0, symName: __ZNKSt3__16vectorIdNS_9allocatorIdEEE8capacityB8ue170006Ev, symObjAddr: 0x2058, symBinAddr: 0x100002A60, symSize: 0x40 }
  - { offsetInCU: 0xF28C, offset: 0xF28C, size: 0x8, addend: 0x0, symName: __ZNKSt3__16vectorIdNS_9allocatorIdEEE9__end_capB8ue170006Ev, symObjAddr: 0x20AC, symBinAddr: 0x100002AB4, symSize: 0x28 }
  - { offsetInCU: 0xF2B1, offset: 0xF2B1, size: 0x8, addend: 0x0, symName: __ZNKSt3__117__compressed_pairIPdNS_9allocatorIdEEE5firstB8ue170006Ev, symObjAddr: 0x20D4, symBinAddr: 0x100002ADC, symSize: 0x24 }
  - { offsetInCU: 0xF2D6, offset: 0xF2D6, size: 0x8, addend: 0x0, symName: __ZNKSt3__122__compressed_pair_elemIPdLi0ELb0EE5__getB8ue170006Ev, symObjAddr: 0x20F8, symBinAddr: 0x100002B00, symSize: 0x14 }
  - { offsetInCU: 0xF314, offset: 0xF314, size: 0x8, addend: 0x0, symName: __ZNSt3__16vectorIdNS_9allocatorIdEEE21_ConstructTransactionC1B8ue170006ERS3_m, symObjAddr: 0x210C, symBinAddr: 0x100002B14, symSize: 0x3C }
  - { offsetInCU: 0xF35B, offset: 0xF35B, size: 0x8, addend: 0x0, symName: __ZNSt3__116allocator_traitsINS_9allocatorIdEEE9constructB8ue170006IdJRKdEvEEvRS2_PT_DpOT0_, symObjAddr: 0x2148, symBinAddr: 0x100002B50, symSize: 0x34 }
  - { offsetInCU: 0xF3B2, offset: 0xF3B2, size: 0x8, addend: 0x0, symName: __ZNSt3__16vectorIdNS_9allocatorIdEEE21_ConstructTransactionD1B8ue170006Ev, symObjAddr: 0x217C, symBinAddr: 0x100002B84, symSize: 0x2C }
  - { offsetInCU: 0xF3DB, offset: 0xF3DB, size: 0x8, addend: 0x0, symName: __ZNSt3__16vectorIdNS_9allocatorIdEEE21_ConstructTransactionC2B8ue170006ERS3_m, symObjAddr: 0x21A8, symBinAddr: 0x100002BB0, symSize: 0x44 }
  - { offsetInCU: 0xF422, offset: 0xF422, size: 0x8, addend: 0x0, symName: __ZNSt3__19allocatorIdE9constructB8ue170006IdJRKdEEEvPT_DpOT0_, symObjAddr: 0x21EC, symBinAddr: 0x100002BF4, symSize: 0x28 }
  - { offsetInCU: 0xF477, offset: 0xF477, size: 0x8, addend: 0x0, symName: __ZNSt3__16vectorIdNS_9allocatorIdEEE21_ConstructTransactionD2B8ue170006Ev, symObjAddr: 0x2214, symBinAddr: 0x100002C1C, symSize: 0x20 }
  - { offsetInCU: 0xF4A0, offset: 0xF4A0, size: 0x8, addend: 0x0, symName: __ZNSt3__128__exception_guard_exceptionsINS_6vectorIdNS_9allocatorIdEEE16__destroy_vectorEED2B8ue170006Ev, symObjAddr: 0x2234, symBinAddr: 0x100002C3C, symSize: 0x48 }
  - { offsetInCU: 0xF4C9, offset: 0xF4C9, size: 0x8, addend: 0x0, symName: __ZNSt3__16vectorIdNS_9allocatorIdEEE16__destroy_vectorclB8ue170006Ev, symObjAddr: 0x227C, symBinAddr: 0x100002C84, symSize: 0x90 }
  - { offsetInCU: 0xF4EE, offset: 0xF4EE, size: 0x8, addend: 0x0, symName: __ZNSt3__16vectorIdNS_9allocatorIdEEE7__clearB8ue170006Ev, symObjAddr: 0x230C, symBinAddr: 0x100002D14, symSize: 0x28 }
  - { offsetInCU: 0xF513, offset: 0xF513, size: 0x8, addend: 0x0, symName: __ZNKSt3__16vectorIdNS_9allocatorIdEEE17__annotate_deleteB8ue170006Ev, symObjAddr: 0x2334, symBinAddr: 0x100002D3C, symSize: 0xB8 }
  - { offsetInCU: 0xF538, offset: 0xF538, size: 0x8, addend: 0x0, symName: __ZNSt3__116allocator_traitsINS_9allocatorIdEEE10deallocateB8ue170006ERS2_Pdm, symObjAddr: 0x23EC, symBinAddr: 0x100002DF4, symSize: 0x34 }
  - { offsetInCU: 0xF57A, offset: 0xF57A, size: 0x8, addend: 0x0, symName: __ZNSt3__16vectorIdNS_9allocatorIdEEE22__base_destruct_at_endB8ue170006EPd, symObjAddr: 0x2420, symBinAddr: 0x100002E28, symSize: 0xA0 }
  - { offsetInCU: 0xF5BD, offset: 0xF5BD, size: 0x8, addend: 0x0, symName: __ZNSt3__116allocator_traitsINS_9allocatorIdEEE7destroyB8ue170006IdvEEvRS2_PT_, symObjAddr: 0x24C0, symBinAddr: 0x100002EC8, symSize: 0x2C }
  - { offsetInCU: 0xF5FA, offset: 0xF5FA, size: 0x8, addend: 0x0, symName: __ZNSt3__19allocatorIdE7destroyB8ue170006EPd, symObjAddr: 0x24EC, symBinAddr: 0x100002EF4, symSize: 0x14 }
  - { offsetInCU: 0xF62D, offset: 0xF62D, size: 0x8, addend: 0x0, symName: __ZNKSt3__16vectorIdNS_9allocatorIdEEE4sizeB8ue170006Ev, symObjAddr: 0x2500, symBinAddr: 0x100002F08, symSize: 0x28 }
  - { offsetInCU: 0xF652, offset: 0xF652, size: 0x8, addend: 0x0, symName: __ZNSt3__19allocatorIdE10deallocateB8ue170006EPdm, symObjAddr: 0x2528, symBinAddr: 0x100002F30, symSize: 0x70 }
  - { offsetInCU: 0xF693, offset: 0xF693, size: 0x8, addend: 0x0, symName: __ZNSt3__16vectorIdNS_9allocatorIdEEED2B8ue170006Ev, symObjAddr: 0x2614, symBinAddr: 0x10000301C, symSize: 0x3C }
  - { offsetInCU: 0xF6BC, offset: 0xF6BC, size: 0x8, addend: 0x0, symName: __ZNSt3__16vectorINS0_IdNS_9allocatorIdEEEENS1_IS3_EEEC2EmRKS3_, symObjAddr: 0x2650, symBinAddr: 0x100003058, symSize: 0xE4 }
  - { offsetInCU: 0xF71A, offset: 0xF71A, size: 0x8, addend: 0x0, symName: __ZNSt3__117__compressed_pairIPNS_6vectorIdNS_9allocatorIdEEEENS2_IS4_EEEC1B8ue170006IDnNS_18__default_init_tagEEEOT_OT0_, symObjAddr: 0x2734, symBinAddr: 0x10000313C, symSize: 0x3C }
  - { offsetInCU: 0xF771, offset: 0xF771, size: 0x8, addend: 0x0, symName: __ZNSt3__16vectorINS0_IdNS_9allocatorIdEEEENS1_IS3_EEE16__destroy_vectorC1B8ue170006ERS5_, symObjAddr: 0x27B0, symBinAddr: 0x1000031B8, symSize: 0x34 }
  - { offsetInCU: 0xF7A9, offset: 0xF7A9, size: 0x8, addend: 0x0, symName: __ZNSt3__16vectorINS0_IdNS_9allocatorIdEEEENS1_IS3_EEE11__vallocateB8ue170006Em, symObjAddr: 0x27E4, symBinAddr: 0x1000031EC, symSize: 0xB4 }
  - { offsetInCU: 0xF7EB, offset: 0xF7EB, size: 0x8, addend: 0x0, symName: __ZNSt3__16vectorINS0_IdNS_9allocatorIdEEEENS1_IS3_EEE18__construct_at_endEmRKS3_, symObjAddr: 0x2898, symBinAddr: 0x1000032A0, symSize: 0xD8 }
  - { offsetInCU: 0xF86C, offset: 0xF86C, size: 0x8, addend: 0x0, symName: __ZNSt3__128__exception_guard_exceptionsINS_6vectorINS1_IdNS_9allocatorIdEEEENS2_IS4_EEE16__destroy_vectorEE10__completeB8ue170006Ev, symObjAddr: 0x2970, symBinAddr: 0x100003378, symSize: 0x1C }
  - { offsetInCU: 0xF891, offset: 0xF891, size: 0x8, addend: 0x0, symName: __ZNSt3__128__exception_guard_exceptionsINS_6vectorINS1_IdNS_9allocatorIdEEEENS2_IS4_EEE16__destroy_vectorEED1B8ue170006Ev, symObjAddr: 0x298C, symBinAddr: 0x100003394, symSize: 0x2C }
  - { offsetInCU: 0xF8BA, offset: 0xF8BA, size: 0x8, addend: 0x0, symName: __ZNSt3__117__compressed_pairIPNS_6vectorIdNS_9allocatorIdEEEENS2_IS4_EEEC2B8ue170006IDnNS_18__default_init_tagEEEOT_OT0_, symObjAddr: 0x29B8, symBinAddr: 0x1000033C0, symSize: 0x40 }
  - { offsetInCU: 0xF911, offset: 0xF911, size: 0x8, addend: 0x0, symName: __ZNSt3__122__compressed_pair_elemIPNS_6vectorIdNS_9allocatorIdEEEELi0ELb0EEC2B8ue170006IDnvEEOT_, symObjAddr: 0x29F8, symBinAddr: 0x100003400, symSize: 0x1C }
  - { offsetInCU: 0xF952, offset: 0xF952, size: 0x8, addend: 0x0, symName: __ZNSt3__122__compressed_pair_elemINS_9allocatorINS_6vectorIdNS1_IdEEEEEELi1ELb1EEC2B8ue170006ENS_18__default_init_tagE, symObjAddr: 0x2A14, symBinAddr: 0x10000341C, symSize: 0x2C }
  - { offsetInCU: 0xF986, offset: 0xF986, size: 0x8, addend: 0x0, symName: __ZNSt3__19allocatorINS_6vectorIdNS0_IdEEEEEC2B8ue170006Ev, symObjAddr: 0x2A40, symBinAddr: 0x100003448, symSize: 0x2C }
  - { offsetInCU: 0xF9AF, offset: 0xF9AF, size: 0x8, addend: 0x0, symName: __ZNSt3__116__non_trivial_ifILb1ENS_9allocatorINS_6vectorIdNS1_IdEEEEEEEC2B8ue170006Ev, symObjAddr: 0x2A6C, symBinAddr: 0x100003474, symSize: 0x14 }
  - { offsetInCU: 0xF9D8, offset: 0xF9D8, size: 0x8, addend: 0x0, symName: __ZNSt3__128__exception_guard_exceptionsINS_6vectorINS1_IdNS_9allocatorIdEEEENS2_IS4_EEE16__destroy_vectorEEC1B8ue170006ES7_, symObjAddr: 0x2A80, symBinAddr: 0x100003488, symSize: 0x34 }
  - { offsetInCU: 0xFA0F, offset: 0xFA0F, size: 0x8, addend: 0x0, symName: __ZNSt3__128__exception_guard_exceptionsINS_6vectorINS1_IdNS_9allocatorIdEEEENS2_IS4_EEE16__destroy_vectorEEC2B8ue170006ES7_, symObjAddr: 0x2AB4, symBinAddr: 0x1000034BC, symSize: 0x24 }
  - { offsetInCU: 0xFA46, offset: 0xFA46, size: 0x8, addend: 0x0, symName: __ZNSt3__16vectorINS0_IdNS_9allocatorIdEEEENS1_IS3_EEE16__destroy_vectorC2B8ue170006ERS5_, symObjAddr: 0x2AD8, symBinAddr: 0x1000034E0, symSize: 0x20 }
  - { offsetInCU: 0xFA7D, offset: 0xFA7D, size: 0x8, addend: 0x0, symName: __ZNKSt3__16vectorINS0_IdNS_9allocatorIdEEEENS1_IS3_EEE8max_sizeEv, symObjAddr: 0x2AF8, symBinAddr: 0x100003500, symSize: 0x74 }
  - { offsetInCU: 0xFAA4, offset: 0xFAA4, size: 0x8, addend: 0x0, symName: __ZNKSt3__16vectorINS0_IdNS_9allocatorIdEEEENS1_IS3_EEE20__throw_length_errorB8ue170006Ev, symObjAddr: 0x2B6C, symBinAddr: 0x100003574, symSize: 0x1C }
  - { offsetInCU: 0xFAC9, offset: 0xFAC9, size: 0x8, addend: 0x0, symName: __ZNSt3__16vectorINS0_IdNS_9allocatorIdEEEENS1_IS3_EEE7__allocB8ue170006Ev, symObjAddr: 0x2BC8, symBinAddr: 0x1000035D0, symSize: 0x28 }
  - { offsetInCU: 0xFAEE, offset: 0xFAEE, size: 0x8, addend: 0x0, symName: __ZNSt3__16vectorINS0_IdNS_9allocatorIdEEEENS1_IS3_EEE9__end_capB8ue170006Ev, symObjAddr: 0x2BF0, symBinAddr: 0x1000035F8, symSize: 0x28 }
  - { offsetInCU: 0xFB13, offset: 0xFB13, size: 0x8, addend: 0x0, symName: __ZNKSt3__16vectorINS0_IdNS_9allocatorIdEEEENS1_IS3_EEE14__annotate_newB8ue170006Em, symObjAddr: 0x2C18, symBinAddr: 0x100003620, symSize: 0xC8 }
  - { offsetInCU: 0xFB51, offset: 0xFB51, size: 0x8, addend: 0x0, symName: __ZNSt3__116allocator_traitsINS_9allocatorINS_6vectorIdNS1_IdEEEEEEE8max_sizeB8ue170006IS5_vEEmRKS5_, symObjAddr: 0x2CE0, symBinAddr: 0x1000036E8, symSize: 0x24 }
  - { offsetInCU: 0xFB7F, offset: 0xFB7F, size: 0x8, addend: 0x0, symName: __ZNKSt3__16vectorINS0_IdNS_9allocatorIdEEEENS1_IS3_EEE7__allocB8ue170006Ev, symObjAddr: 0x2D04, symBinAddr: 0x10000370C, symSize: 0x28 }
  - { offsetInCU: 0xFBA4, offset: 0xFBA4, size: 0x8, addend: 0x0, symName: __ZNKSt3__19allocatorINS_6vectorIdNS0_IdEEEEE8max_sizeB8ue170006Ev, symObjAddr: 0x2D2C, symBinAddr: 0x100003734, symSize: 0x18 }
  - { offsetInCU: 0xFBC9, offset: 0xFBC9, size: 0x8, addend: 0x0, symName: __ZNKSt3__117__compressed_pairIPNS_6vectorIdNS_9allocatorIdEEEENS2_IS4_EEE6secondB8ue170006Ev, symObjAddr: 0x2D44, symBinAddr: 0x10000374C, symSize: 0x24 }
  - { offsetInCU: 0xFBEE, offset: 0xFBEE, size: 0x8, addend: 0x0, symName: __ZNKSt3__122__compressed_pair_elemINS_9allocatorINS_6vectorIdNS1_IdEEEEEELi1ELb1EE5__getB8ue170006Ev, symObjAddr: 0x2D68, symBinAddr: 0x100003770, symSize: 0x14 }
  - { offsetInCU: 0xFC13, offset: 0xFC13, size: 0x8, addend: 0x0, symName: __ZNSt3__19allocatorINS_6vectorIdNS0_IdEEEEE8allocateB8ue170006Em, symObjAddr: 0x2D7C, symBinAddr: 0x100003784, symSize: 0x8C }
  - { offsetInCU: 0xFC46, offset: 0xFC46, size: 0x8, addend: 0x0, symName: __ZNSt3__117__compressed_pairIPNS_6vectorIdNS_9allocatorIdEEEENS2_IS4_EEE6secondB8ue170006Ev, symObjAddr: 0x2E08, symBinAddr: 0x100003810, symSize: 0x24 }
  - { offsetInCU: 0xFC6B, offset: 0xFC6B, size: 0x8, addend: 0x0, symName: __ZNSt3__122__compressed_pair_elemINS_9allocatorINS_6vectorIdNS1_IdEEEEEELi1ELb1EE5__getB8ue170006Ev, symObjAddr: 0x2E2C, symBinAddr: 0x100003834, symSize: 0x14 }
  - { offsetInCU: 0xFC90, offset: 0xFC90, size: 0x8, addend: 0x0, symName: __ZNSt3__117__compressed_pairIPNS_6vectorIdNS_9allocatorIdEEEENS2_IS4_EEE5firstB8ue170006Ev, symObjAddr: 0x2E40, symBinAddr: 0x100003848, symSize: 0x24 }
  - { offsetInCU: 0xFCB5, offset: 0xFCB5, size: 0x8, addend: 0x0, symName: __ZNSt3__122__compressed_pair_elemIPNS_6vectorIdNS_9allocatorIdEEEELi0ELb0EE5__getB8ue170006Ev, symObjAddr: 0x2E64, symBinAddr: 0x10000386C, symSize: 0x14 }
  - { offsetInCU: 0xFCDA, offset: 0xFCDA, size: 0x8, addend: 0x0, symName: __ZNKSt3__16vectorINS0_IdNS_9allocatorIdEEEENS1_IS3_EEE31__annotate_contiguous_containerB8ue170006EPKvS7_S7_S7_, symObjAddr: 0x2E78, symBinAddr: 0x100003880, symSize: 0x20 }
  - { offsetInCU: 0xFD2B, offset: 0xFD2B, size: 0x8, addend: 0x0, symName: __ZNKSt3__16vectorINS0_IdNS_9allocatorIdEEEENS1_IS3_EEE4dataB8ue170006Ev, symObjAddr: 0x2E98, symBinAddr: 0x1000038A0, symSize: 0x28 }
  - { offsetInCU: 0xFD50, offset: 0xFD50, size: 0x8, addend: 0x0, symName: __ZNKSt3__16vectorINS0_IdNS_9allocatorIdEEEENS1_IS3_EEE8capacityB8ue170006Ev, symObjAddr: 0x2EC0, symBinAddr: 0x1000038C8, symSize: 0x40 }
  - { offsetInCU: 0xFD75, offset: 0xFD75, size: 0x8, addend: 0x0, symName: __ZNKSt3__16vectorINS0_IdNS_9allocatorIdEEEENS1_IS3_EEE9__end_capB8ue170006Ev, symObjAddr: 0x2F14, symBinAddr: 0x10000391C, symSize: 0x28 }
  - { offsetInCU: 0xFD9A, offset: 0xFD9A, size: 0x8, addend: 0x0, symName: __ZNKSt3__117__compressed_pairIPNS_6vectorIdNS_9allocatorIdEEEENS2_IS4_EEE5firstB8ue170006Ev, symObjAddr: 0x2F3C, symBinAddr: 0x100003944, symSize: 0x24 }
  - { offsetInCU: 0xFDBF, offset: 0xFDBF, size: 0x8, addend: 0x0, symName: __ZNKSt3__122__compressed_pair_elemIPNS_6vectorIdNS_9allocatorIdEEEELi0ELb0EE5__getB8ue170006Ev, symObjAddr: 0x2F60, symBinAddr: 0x100003968, symSize: 0x14 }
  - { offsetInCU: 0xFDFD, offset: 0xFDFD, size: 0x8, addend: 0x0, symName: __ZNSt3__16vectorINS0_IdNS_9allocatorIdEEEENS1_IS3_EEE21_ConstructTransactionC1B8ue170006ERS5_m, symObjAddr: 0x2F74, symBinAddr: 0x10000397C, symSize: 0x3C }
  - { offsetInCU: 0xFE44, offset: 0xFE44, size: 0x8, addend: 0x0, symName: __ZNSt3__116allocator_traitsINS_9allocatorINS_6vectorIdNS1_IdEEEEEEE9constructB8ue170006IS4_JRKS4_EvEEvRS5_PT_DpOT0_, symObjAddr: 0x2FB0, symBinAddr: 0x1000039B8, symSize: 0x34 }
  - { offsetInCU: 0xFE9B, offset: 0xFE9B, size: 0x8, addend: 0x0, symName: __ZNSt3__16vectorINS0_IdNS_9allocatorIdEEEENS1_IS3_EEE21_ConstructTransactionD1B8ue170006Ev, symObjAddr: 0x2FE4, symBinAddr: 0x1000039EC, symSize: 0x2C }
  - { offsetInCU: 0xFEC4, offset: 0xFEC4, size: 0x8, addend: 0x0, symName: __ZNSt3__16vectorINS0_IdNS_9allocatorIdEEEENS1_IS3_EEE21_ConstructTransactionC2B8ue170006ERS5_m, symObjAddr: 0x3010, symBinAddr: 0x100003A18, symSize: 0x4C }
  - { offsetInCU: 0xFF0B, offset: 0xFF0B, size: 0x8, addend: 0x0, symName: __ZNSt3__19allocatorINS_6vectorIdNS0_IdEEEEE9constructB8ue170006IS3_JRKS3_EEEvPT_DpOT0_, symObjAddr: 0x305C, symBinAddr: 0x100003A64, symSize: 0x30 }
  - { offsetInCU: 0xFF60, offset: 0xFF60, size: 0x8, addend: 0x0, symName: __ZNSt3__16vectorIdNS_9allocatorIdEEEC1ERKS3_, symObjAddr: 0x308C, symBinAddr: 0x100003A94, symSize: 0x34 }
  - { offsetInCU: 0xFF9A, offset: 0xFF9A, size: 0x8, addend: 0x0, symName: __ZNSt3__16vectorIdNS_9allocatorIdEEEC2ERKS3_, symObjAddr: 0x30C0, symBinAddr: 0x100003AC8, symSize: 0x94 }
  - { offsetInCU: 0xFFD4, offset: 0xFFD4, size: 0x8, addend: 0x0, symName: __ZNSt3__116allocator_traitsINS_9allocatorIdEEE37select_on_container_copy_constructionB8ue170006IS2_vvEES2_RKS2_, symObjAddr: 0x3154, symBinAddr: 0x100003B5C, symSize: 0x10 }
  - { offsetInCU: 0x10008, offset: 0x10008, size: 0x8, addend: 0x0, symName: __ZNSt3__117__compressed_pairIPdNS_9allocatorIdEEEC1B8ue170006IDnS3_EEOT_OT0_, symObjAddr: 0x3164, symBinAddr: 0x100003B6C, symSize: 0x3C }
  - { offsetInCU: 0x1005F, offset: 0x1005F, size: 0x8, addend: 0x0, symName: __ZNSt3__16vectorIdNS_9allocatorIdEEE16__init_with_sizeB8ue170006IPdS5_EEvT_T0_m, symObjAddr: 0x31A0, symBinAddr: 0x100003BA8, symSize: 0xC0 }
  - { offsetInCU: 0x100D2, offset: 0x100D2, size: 0x8, addend: 0x0, symName: __ZNSt3__117__compressed_pairIPdNS_9allocatorIdEEEC2B8ue170006IDnS3_EEOT_OT0_, symObjAddr: 0x3260, symBinAddr: 0x100003C68, symSize: 0x44 }
  - { offsetInCU: 0x10129, offset: 0x10129, size: 0x8, addend: 0x0, symName: __ZNSt3__122__compressed_pair_elemINS_9allocatorIdEELi1ELb1EEC2B8ue170006IS2_vEEOT_, symObjAddr: 0x32A4, symBinAddr: 0x100003CAC, symSize: 0x18 }
  - { offsetInCU: 0x10169, offset: 0x10169, size: 0x8, addend: 0x0, symName: __ZNSt3__16vectorIdNS_9allocatorIdEEE18__construct_at_endIPdS5_EEvT_T0_m, symObjAddr: 0x32BC, symBinAddr: 0x100003CC4, symSize: 0x94 }
  - { offsetInCU: 0x101F7, offset: 0x101F7, size: 0x8, addend: 0x0, symName: __ZNSt3__14pairIPdS1_EC1B8ue170006ERKS1_S4_, symObjAddr: 0x35D8, symBinAddr: 0x100003FE0, symSize: 0x3C }
  - { offsetInCU: 0x1023C, offset: 0x1023C, size: 0x8, addend: 0x0, symName: __ZNSt3__14pairIPdS1_EC2B8ue170006ERKS1_S4_, symObjAddr: 0x3614, symBinAddr: 0x10000401C, symSize: 0x34 }
  - { offsetInCU: 0x10281, offset: 0x10281, size: 0x8, addend: 0x0, symName: __ZNSt3__129_AllocatorDestroyRangeReverseINS_9allocatorIdEEPdEC1B8ue170006ERS2_RS3_S6_, symObjAddr: 0x3694, symBinAddr: 0x10000409C, symSize: 0x44 }
  - { offsetInCU: 0x102D7, offset: 0x102D7, size: 0x8, addend: 0x0, symName: __ZNSt3__116allocator_traitsINS_9allocatorIdEEE9constructB8ue170006IdJRdEvEEvRS2_PT_DpOT0_, symObjAddr: 0x36D8, symBinAddr: 0x1000040E0, symSize: 0x34 }
  - { offsetInCU: 0x1032E, offset: 0x1032E, size: 0x8, addend: 0x0, symName: __ZNSt3__128__exception_guard_exceptionsINS_29_AllocatorDestroyRangeReverseINS_9allocatorIdEEPdEEE10__completeB8ue170006Ev, symObjAddr: 0x370C, symBinAddr: 0x100004114, symSize: 0x1C }
  - { offsetInCU: 0x10353, offset: 0x10353, size: 0x8, addend: 0x0, symName: __ZNSt3__128__exception_guard_exceptionsINS_29_AllocatorDestroyRangeReverseINS_9allocatorIdEEPdEEED1B8ue170006Ev, symObjAddr: 0x3728, symBinAddr: 0x100004130, symSize: 0x2C }
  - { offsetInCU: 0x1037C, offset: 0x1037C, size: 0x8, addend: 0x0, symName: __ZNSt3__128__exception_guard_exceptionsINS_29_AllocatorDestroyRangeReverseINS_9allocatorIdEEPdEEEC1B8ue170006ES5_, symObjAddr: 0x3754, symBinAddr: 0x10000415C, symSize: 0x34 }
  - { offsetInCU: 0x103B4, offset: 0x103B4, size: 0x8, addend: 0x0, symName: __ZNSt3__128__exception_guard_exceptionsINS_29_AllocatorDestroyRangeReverseINS_9allocatorIdEEPdEEEC2B8ue170006ES5_, symObjAddr: 0x3788, symBinAddr: 0x100004190, symSize: 0x30 }
  - { offsetInCU: 0x103EC, offset: 0x103EC, size: 0x8, addend: 0x0, symName: __ZNSt3__129_AllocatorDestroyRangeReverseINS_9allocatorIdEEPdEC2B8ue170006ERS2_RS3_S6_, symObjAddr: 0x37B8, symBinAddr: 0x1000041C0, symSize: 0x38 }
  - { offsetInCU: 0x10442, offset: 0x10442, size: 0x8, addend: 0x0, symName: __ZNSt3__19allocatorIdE9constructB8ue170006IdJRdEEEvPT_DpOT0_, symObjAddr: 0x37F0, symBinAddr: 0x1000041F8, symSize: 0x28 }
  - { offsetInCU: 0x10497, offset: 0x10497, size: 0x8, addend: 0x0, symName: __ZNSt3__128__exception_guard_exceptionsINS_29_AllocatorDestroyRangeReverseINS_9allocatorIdEEPdEEED2B8ue170006Ev, symObjAddr: 0x3818, symBinAddr: 0x100004220, symSize: 0x48 }
  - { offsetInCU: 0x104C0, offset: 0x104C0, size: 0x8, addend: 0x0, symName: __ZNKSt3__129_AllocatorDestroyRangeReverseINS_9allocatorIdEEPdEclB8ue170006Ev, symObjAddr: 0x3860, symBinAddr: 0x100004268, symSize: 0x68 }
  - { offsetInCU: 0x104E5, offset: 0x104E5, size: 0x8, addend: 0x0, symName: __ZNSt3__116reverse_iteratorIPdEC1B8ue170006ES1_, symObjAddr: 0x3938, symBinAddr: 0x100004340, symSize: 0x34 }
  - { offsetInCU: 0x1051C, offset: 0x1051C, size: 0x8, addend: 0x0, symName: __ZNSt3__116reverse_iteratorIPdEppB8ue170006Ev, symObjAddr: 0x39D8, symBinAddr: 0x1000043E0, symSize: 0x20 }
  - { offsetInCU: 0x10541, offset: 0x10541, size: 0x8, addend: 0x0, symName: __ZNKSt3__116reverse_iteratorIPdE4baseB8ue170006Ev, symObjAddr: 0x39F8, symBinAddr: 0x100004400, symSize: 0x18 }
  - { offsetInCU: 0x1056B, offset: 0x1056B, size: 0x8, addend: 0x0, symName: __ZNSt3__119__to_address_helperINS_16reverse_iteratorIPdEEvE6__callB8ue170006ERKS3_, symObjAddr: 0x3A10, symBinAddr: 0x100004418, symSize: 0x4C }
  - { offsetInCU: 0x1058E, offset: 0x1058E, size: 0x8, addend: 0x0, symName: __ZNKSt3__116reverse_iteratorIPdEptB8ue170006Ev, symObjAddr: 0x3A5C, symBinAddr: 0x100004464, symSize: 0x24 }
  - { offsetInCU: 0x105B3, offset: 0x105B3, size: 0x8, addend: 0x0, symName: __ZNKSt3__116reverse_iteratorIPdEdeB8ue170006Ev, symObjAddr: 0x3A80, symBinAddr: 0x100004488, symSize: 0x28 }
  - { offsetInCU: 0x105E6, offset: 0x105E6, size: 0x8, addend: 0x0, symName: __ZNSt3__116reverse_iteratorIPdEC2B8ue170006ES1_, symObjAddr: 0x3AA8, symBinAddr: 0x1000044B0, symSize: 0x28 }
  - { offsetInCU: 0x1061D, offset: 0x1061D, size: 0x8, addend: 0x0, symName: __ZNSt3__118__unwrap_iter_implIPdLb1EE8__unwrapB8ue170006ES1_, symObjAddr: 0x3AD0, symBinAddr: 0x1000044D8, symSize: 0x24 }
  - { offsetInCU: 0x10640, offset: 0x10640, size: 0x8, addend: 0x0, symName: __ZNSt3__118__unwrap_iter_implIPdLb1EE8__rewrapB8ue170006ES1_S1_, symObjAddr: 0x3AF4, symBinAddr: 0x1000044FC, symSize: 0x50 }
  - { offsetInCU: 0x10671, offset: 0x10671, size: 0x8, addend: 0x0, symName: __ZNSt3__16vectorINS0_IdNS_9allocatorIdEEEENS1_IS3_EEE21_ConstructTransactionD2B8ue170006Ev, symObjAddr: 0x3B44, symBinAddr: 0x10000454C, symSize: 0x20 }
  - { offsetInCU: 0x1069A, offset: 0x1069A, size: 0x8, addend: 0x0, symName: __ZNSt3__128__exception_guard_exceptionsINS_6vectorINS1_IdNS_9allocatorIdEEEENS2_IS4_EEE16__destroy_vectorEED2B8ue170006Ev, symObjAddr: 0x3B64, symBinAddr: 0x10000456C, symSize: 0x48 }
  - { offsetInCU: 0x106C3, offset: 0x106C3, size: 0x8, addend: 0x0, symName: __ZNSt3__16vectorINS0_IdNS_9allocatorIdEEEENS1_IS3_EEE16__destroy_vectorclB8ue170006Ev, symObjAddr: 0x3BAC, symBinAddr: 0x1000045B4, symSize: 0x90 }
  - { offsetInCU: 0x106E8, offset: 0x106E8, size: 0x8, addend: 0x0, symName: __ZNSt3__16vectorINS0_IdNS_9allocatorIdEEEENS1_IS3_EEE7__clearB8ue170006Ev, symObjAddr: 0x3C3C, symBinAddr: 0x100004644, symSize: 0x28 }
  - { offsetInCU: 0x1070D, offset: 0x1070D, size: 0x8, addend: 0x0, symName: __ZNKSt3__16vectorINS0_IdNS_9allocatorIdEEEENS1_IS3_EEE17__annotate_deleteB8ue170006Ev, symObjAddr: 0x3C64, symBinAddr: 0x10000466C, symSize: 0xD4 }
  - { offsetInCU: 0x10732, offset: 0x10732, size: 0x8, addend: 0x0, symName: __ZNSt3__116allocator_traitsINS_9allocatorINS_6vectorIdNS1_IdEEEEEEE10deallocateB8ue170006ERS5_PS4_m, symObjAddr: 0x3D38, symBinAddr: 0x100004740, symSize: 0x34 }
  - { offsetInCU: 0x10774, offset: 0x10774, size: 0x8, addend: 0x0, symName: __ZNSt3__16vectorINS0_IdNS_9allocatorIdEEEENS1_IS3_EEE22__base_destruct_at_endB8ue170006EPS3_, symObjAddr: 0x3D6C, symBinAddr: 0x100004774, symSize: 0xA0 }
  - { offsetInCU: 0x107B7, offset: 0x107B7, size: 0x8, addend: 0x0, symName: __ZNSt3__116allocator_traitsINS_9allocatorINS_6vectorIdNS1_IdEEEEEEE7destroyB8ue170006IS4_vEEvRS5_PT_, symObjAddr: 0x3E0C, symBinAddr: 0x100004814, symSize: 0x2C }
  - { offsetInCU: 0x107F4, offset: 0x107F4, size: 0x8, addend: 0x0, symName: __ZNSt3__19allocatorINS_6vectorIdNS0_IdEEEEE7destroyB8ue170006EPS3_, symObjAddr: 0x3E38, symBinAddr: 0x100004840, symSize: 0x28 }
  - { offsetInCU: 0x10827, offset: 0x10827, size: 0x8, addend: 0x0, symName: __ZNKSt3__16vectorINS0_IdNS_9allocatorIdEEEENS1_IS3_EEE4sizeB8ue170006Ev, symObjAddr: 0x3E60, symBinAddr: 0x100004868, symSize: 0x28 }
  - { offsetInCU: 0x1084C, offset: 0x1084C, size: 0x8, addend: 0x0, symName: __ZNSt3__19allocatorINS_6vectorIdNS0_IdEEEEE10deallocateB8ue170006EPS3_m, symObjAddr: 0x3E88, symBinAddr: 0x100004890, symSize: 0x74 }
  - { offsetInCU: 0x1088D, offset: 0x1088D, size: 0x8, addend: 0x0, symName: __ZNSt3__16vectorINS0_IdNS_9allocatorIdEEEENS1_IS3_EEED2B8ue170006Ev, symObjAddr: 0x3EFC, symBinAddr: 0x100004904, symSize: 0x3C }
  - { offsetInCU: 0x108B6, offset: 0x108B6, size: 0x8, addend: 0x0, symName: __ZNSt3__123__libcpp_numeric_limitsIdLb1EE8infinityB8ue170006Ev, symObjAddr: 0x3F38, symBinAddr: 0x100004940, symSize: 0xC }
  - { offsetInCU: 0x108CA, offset: 0x108CA, size: 0x8, addend: 0x0, symName: __ZNSt3__16vectorI7ComplexNS_9allocatorIS1_EEEC2B8ue170006Ev, symObjAddr: 0x3F44, symBinAddr: 0x10000494C, symSize: 0x44 }
  - { offsetInCU: 0x108F3, offset: 0x108F3, size: 0x8, addend: 0x0, symName: __ZNSt3__117__compressed_pairIP7ComplexNS_9allocatorIS1_EEEC1B8ue170006IDnNS_18__default_init_tagEEEOT_OT0_, symObjAddr: 0x3F88, symBinAddr: 0x100004990, symSize: 0x3C }
  - { offsetInCU: 0x1094A, offset: 0x1094A, size: 0x8, addend: 0x0, symName: __ZNSt3__117__compressed_pairIP7ComplexNS_9allocatorIS1_EEEC2B8ue170006IDnNS_18__default_init_tagEEEOT_OT0_, symObjAddr: 0x3FC4, symBinAddr: 0x1000049CC, symSize: 0x40 }
  - { offsetInCU: 0x109A1, offset: 0x109A1, size: 0x8, addend: 0x0, symName: __ZNSt3__122__compressed_pair_elemIP7ComplexLi0ELb0EEC2B8ue170006IDnvEEOT_, symObjAddr: 0x4004, symBinAddr: 0x100004A0C, symSize: 0x1C }
  - { offsetInCU: 0x109E2, offset: 0x109E2, size: 0x8, addend: 0x0, symName: __ZNSt3__122__compressed_pair_elemINS_9allocatorI7ComplexEELi1ELb1EEC2B8ue170006ENS_18__default_init_tagE, symObjAddr: 0x4020, symBinAddr: 0x100004A28, symSize: 0x2C }
  - { offsetInCU: 0x10A16, offset: 0x10A16, size: 0x8, addend: 0x0, symName: __ZNSt3__19allocatorI7ComplexEC2B8ue170006Ev, symObjAddr: 0x404C, symBinAddr: 0x100004A54, symSize: 0x2C }
  - { offsetInCU: 0x10A3F, offset: 0x10A3F, size: 0x8, addend: 0x0, symName: __ZNSt3__116__non_trivial_ifILb1ENS_9allocatorI7ComplexEEEC2B8ue170006Ev, symObjAddr: 0x4078, symBinAddr: 0x100004A80, symSize: 0x14 }
  - { offsetInCU: 0x10A68, offset: 0x10A68, size: 0x8, addend: 0x0, symName: __ZNSt3__16vectorI7ComplexNS_9allocatorIS1_EEED2B8ue170006Ev, symObjAddr: 0x408C, symBinAddr: 0x100004A94, symSize: 0x3C }
  - { offsetInCU: 0x10A91, offset: 0x10A91, size: 0x8, addend: 0x0, symName: __ZNSt3__16vectorI7ComplexNS_9allocatorIS1_EEE16__destroy_vectorC1B8ue170006ERS4_, symObjAddr: 0x40C8, symBinAddr: 0x100004AD0, symSize: 0x34 }
  - { offsetInCU: 0x10AC9, offset: 0x10AC9, size: 0x8, addend: 0x0, symName: __ZNSt3__16vectorI7ComplexNS_9allocatorIS1_EEE16__destroy_vectorclB8ue170006Ev, symObjAddr: 0x40FC, symBinAddr: 0x100004B04, symSize: 0x90 }
  - { offsetInCU: 0x10AEE, offset: 0x10AEE, size: 0x8, addend: 0x0, symName: __ZNSt3__16vectorI7ComplexNS_9allocatorIS1_EEE16__destroy_vectorC2B8ue170006ERS4_, symObjAddr: 0x418C, symBinAddr: 0x100004B94, symSize: 0x20 }
  - { offsetInCU: 0x10B26, offset: 0x10B26, size: 0x8, addend: 0x0, symName: __ZNSt3__16vectorI7ComplexNS_9allocatorIS1_EEE7__clearB8ue170006Ev, symObjAddr: 0x41AC, symBinAddr: 0x100004BB4, symSize: 0x28 }
  - { offsetInCU: 0x10B4B, offset: 0x10B4B, size: 0x8, addend: 0x0, symName: __ZNKSt3__16vectorI7ComplexNS_9allocatorIS1_EEE17__annotate_deleteB8ue170006Ev, symObjAddr: 0x41D4, symBinAddr: 0x100004BDC, symSize: 0xB8 }
  - { offsetInCU: 0x10B70, offset: 0x10B70, size: 0x8, addend: 0x0, symName: __ZNSt3__116allocator_traitsINS_9allocatorI7ComplexEEE10deallocateB8ue170006ERS3_PS2_m, symObjAddr: 0x428C, symBinAddr: 0x100004C94, symSize: 0x34 }
  - { offsetInCU: 0x10BB2, offset: 0x10BB2, size: 0x8, addend: 0x0, symName: __ZNSt3__16vectorI7ComplexNS_9allocatorIS1_EEE7__allocB8ue170006Ev, symObjAddr: 0x42C0, symBinAddr: 0x100004CC8, symSize: 0x28 }
  - { offsetInCU: 0x10BD7, offset: 0x10BD7, size: 0x8, addend: 0x0, symName: __ZNKSt3__16vectorI7ComplexNS_9allocatorIS1_EEE8capacityB8ue170006Ev, symObjAddr: 0x42E8, symBinAddr: 0x100004CF0, symSize: 0x40 }
  - { offsetInCU: 0x10BFC, offset: 0x10BFC, size: 0x8, addend: 0x0, symName: __ZNSt3__16vectorI7ComplexNS_9allocatorIS1_EEE22__base_destruct_at_endB8ue170006EPS1_, symObjAddr: 0x4328, symBinAddr: 0x100004D30, symSize: 0xA0 }
  - { offsetInCU: 0x10C3F, offset: 0x10C3F, size: 0x8, addend: 0x0, symName: __ZNSt3__116allocator_traitsINS_9allocatorI7ComplexEEE7destroyB8ue170006IS2_vEEvRS3_PT_, symObjAddr: 0x43C8, symBinAddr: 0x100004DD0, symSize: 0x2C }
  - { offsetInCU: 0x10C7C, offset: 0x10C7C, size: 0x8, addend: 0x0, symName: __ZNSt3__19allocatorI7ComplexE7destroyB8ue170006EPS1_, symObjAddr: 0x4408, symBinAddr: 0x100004E10, symSize: 0x14 }
  - { offsetInCU: 0x10CAF, offset: 0x10CAF, size: 0x8, addend: 0x0, symName: __ZNKSt3__16vectorI7ComplexNS_9allocatorIS1_EEE31__annotate_contiguous_containerB8ue170006EPKvS6_S6_S6_, symObjAddr: 0x441C, symBinAddr: 0x100004E24, symSize: 0x20 }
  - { offsetInCU: 0x10D00, offset: 0x10D00, size: 0x8, addend: 0x0, symName: __ZNKSt3__16vectorI7ComplexNS_9allocatorIS1_EEE4dataB8ue170006Ev, symObjAddr: 0x443C, symBinAddr: 0x100004E44, symSize: 0x28 }
  - { offsetInCU: 0x10D25, offset: 0x10D25, size: 0x8, addend: 0x0, symName: __ZNSt3__19allocatorI7ComplexE10deallocateB8ue170006EPS1_m, symObjAddr: 0x4464, symBinAddr: 0x100004E6C, symSize: 0x70 }
  - { offsetInCU: 0x10D66, offset: 0x10D66, size: 0x8, addend: 0x0, symName: __ZNSt3__117__compressed_pairIP7ComplexNS_9allocatorIS1_EEE6secondB8ue170006Ev, symObjAddr: 0x44D4, symBinAddr: 0x100004EDC, symSize: 0x24 }
  - { offsetInCU: 0x10D8B, offset: 0x10D8B, size: 0x8, addend: 0x0, symName: __ZNSt3__122__compressed_pair_elemINS_9allocatorI7ComplexEELi1ELb1EE5__getB8ue170006Ev, symObjAddr: 0x44F8, symBinAddr: 0x100004F00, symSize: 0x14 }
  - { offsetInCU: 0x10DB0, offset: 0x10DB0, size: 0x8, addend: 0x0, symName: __ZNKSt3__16vectorI7ComplexNS_9allocatorIS1_EEE9__end_capB8ue170006Ev, symObjAddr: 0x450C, symBinAddr: 0x100004F14, symSize: 0x28 }
  - { offsetInCU: 0x10DD5, offset: 0x10DD5, size: 0x8, addend: 0x0, symName: __ZNKSt3__117__compressed_pairIP7ComplexNS_9allocatorIS1_EEE5firstB8ue170006Ev, symObjAddr: 0x4534, symBinAddr: 0x100004F3C, symSize: 0x24 }
  - { offsetInCU: 0x10DFA, offset: 0x10DFA, size: 0x8, addend: 0x0, symName: __ZNKSt3__122__compressed_pair_elemIP7ComplexLi0ELb0EE5__getB8ue170006Ev, symObjAddr: 0x4558, symBinAddr: 0x100004F60, symSize: 0x14 }
  - { offsetInCU: 0x10E1F, offset: 0x10E1F, size: 0x8, addend: 0x0, symName: __ZNSt3__16vectorI7ComplexNS_9allocatorIS1_EEE9__end_capB8ue170006Ev, symObjAddr: 0x456C, symBinAddr: 0x100004F74, symSize: 0x28 }
  - { offsetInCU: 0x10E49, offset: 0x10E49, size: 0x8, addend: 0x0, symName: __ZNSt3__16vectorI7ComplexNS_9allocatorIS1_EEE22__construct_one_at_endB8ue170006IJS1_EEEvDpOT_, symObjAddr: 0x4594, symBinAddr: 0x100004F9C, symSize: 0x98 }
  - { offsetInCU: 0x10E96, offset: 0x10E96, size: 0x8, addend: 0x0, symName: __ZNSt3__16vectorI7ComplexNS_9allocatorIS1_EEE21__push_back_slow_pathIS1_EEvOT_, symObjAddr: 0x462C, symBinAddr: 0x100005034, symSize: 0xE0 }
  - { offsetInCU: 0x10EF3, offset: 0x10EF3, size: 0x8, addend: 0x0, symName: __ZNSt3__117__compressed_pairIP7ComplexNS_9allocatorIS1_EEE5firstB8ue170006Ev, symObjAddr: 0x470C, symBinAddr: 0x100005114, symSize: 0x24 }
  - { offsetInCU: 0x10F18, offset: 0x10F18, size: 0x8, addend: 0x0, symName: __ZNSt3__122__compressed_pair_elemIP7ComplexLi0ELb0EE5__getB8ue170006Ev, symObjAddr: 0x4730, symBinAddr: 0x100005138, symSize: 0x14 }
  - { offsetInCU: 0x10F56, offset: 0x10F56, size: 0x8, addend: 0x0, symName: __ZNSt3__16vectorI7ComplexNS_9allocatorIS1_EEE21_ConstructTransactionC1B8ue170006ERS4_m, symObjAddr: 0x4744, symBinAddr: 0x10000514C, symSize: 0x3C }
  - { offsetInCU: 0x10F9D, offset: 0x10F9D, size: 0x8, addend: 0x0, symName: __ZNSt3__116allocator_traitsINS_9allocatorI7ComplexEEE9constructB8ue170006IS2_JS2_EvEEvRS3_PT_DpOT0_, symObjAddr: 0x4780, symBinAddr: 0x100005188, symSize: 0x34 }
  - { offsetInCU: 0x10FF4, offset: 0x10FF4, size: 0x8, addend: 0x0, symName: __ZNSt3__16vectorI7ComplexNS_9allocatorIS1_EEE21_ConstructTransactionD1B8ue170006Ev, symObjAddr: 0x47B4, symBinAddr: 0x1000051BC, symSize: 0x2C }
  - { offsetInCU: 0x1101D, offset: 0x1101D, size: 0x8, addend: 0x0, symName: __ZNSt3__16vectorI7ComplexNS_9allocatorIS1_EEE21_ConstructTransactionC2B8ue170006ERS4_m, symObjAddr: 0x47E0, symBinAddr: 0x1000051E8, symSize: 0x44 }
  - { offsetInCU: 0x11064, offset: 0x11064, size: 0x8, addend: 0x0, symName: __ZNSt3__19allocatorI7ComplexE9constructB8ue170006IS1_JS1_EEEvPT_DpOT0_, symObjAddr: 0x4824, symBinAddr: 0x10000522C, symSize: 0x28 }
  - { offsetInCU: 0x110B9, offset: 0x110B9, size: 0x8, addend: 0x0, symName: __ZNSt3__16vectorI7ComplexNS_9allocatorIS1_EEE21_ConstructTransactionD2B8ue170006Ev, symObjAddr: 0x484C, symBinAddr: 0x100005254, symSize: 0x20 }
  - { offsetInCU: 0x110E1, offset: 0x110E1, size: 0x8, addend: 0x0, symName: __ZNKSt3__16vectorI7ComplexNS_9allocatorIS1_EEE11__recommendB8ue170006Em, symObjAddr: 0x486C, symBinAddr: 0x100005274, symSize: 0xB4 }
  - { offsetInCU: 0x11135, offset: 0x11135, size: 0x8, addend: 0x0, symName: __ZNSt3__114__split_bufferI7ComplexRNS_9allocatorIS1_EEEC1EmmS4_, symObjAddr: 0x4920, symBinAddr: 0x100005328, symSize: 0x44 }
  - { offsetInCU: 0x1118A, offset: 0x1118A, size: 0x8, addend: 0x0, symName: __ZNSt3__114__split_bufferI7ComplexRNS_9allocatorIS1_EEED1Ev, symObjAddr: 0x4A74, symBinAddr: 0x10000547C, symSize: 0x2C }
  - { offsetInCU: 0x111B4, offset: 0x111B4, size: 0x8, addend: 0x0, symName: __ZNKSt3__16vectorI7ComplexNS_9allocatorIS1_EEE8max_sizeEv, symObjAddr: 0x4AA0, symBinAddr: 0x1000054A8, symSize: 0x74 }
  - { offsetInCU: 0x111DB, offset: 0x111DB, size: 0x8, addend: 0x0, symName: __ZNKSt3__16vectorI7ComplexNS_9allocatorIS1_EEE20__throw_length_errorB8ue170006Ev, symObjAddr: 0x4B14, symBinAddr: 0x10000551C, symSize: 0x1C }
  - { offsetInCU: 0x1120A, offset: 0x1120A, size: 0x8, addend: 0x0, symName: __ZNSt3__116allocator_traitsINS_9allocatorI7ComplexEEE8max_sizeB8ue170006IS3_vEEmRKS3_, symObjAddr: 0x4B5C, symBinAddr: 0x100005564, symSize: 0x24 }
  - { offsetInCU: 0x11238, offset: 0x11238, size: 0x8, addend: 0x0, symName: __ZNKSt3__16vectorI7ComplexNS_9allocatorIS1_EEE7__allocB8ue170006Ev, symObjAddr: 0x4B80, symBinAddr: 0x100005588, symSize: 0x28 }
  - { offsetInCU: 0x1125D, offset: 0x1125D, size: 0x8, addend: 0x0, symName: __ZNKSt3__19allocatorI7ComplexE8max_sizeB8ue170006Ev, symObjAddr: 0x4BA8, symBinAddr: 0x1000055B0, symSize: 0x14 }
  - { offsetInCU: 0x11282, offset: 0x11282, size: 0x8, addend: 0x0, symName: __ZNKSt3__117__compressed_pairIP7ComplexNS_9allocatorIS1_EEE6secondB8ue170006Ev, symObjAddr: 0x4BBC, symBinAddr: 0x1000055C4, symSize: 0x24 }
  - { offsetInCU: 0x112A7, offset: 0x112A7, size: 0x8, addend: 0x0, symName: __ZNKSt3__122__compressed_pair_elemINS_9allocatorI7ComplexEELi1ELb1EE5__getB8ue170006Ev, symObjAddr: 0x4BE0, symBinAddr: 0x1000055E8, symSize: 0x14 }
  - { offsetInCU: 0x112CC, offset: 0x112CC, size: 0x8, addend: 0x0, symName: __ZNSt3__114__split_bufferI7ComplexRNS_9allocatorIS1_EEEC2EmmS4_, symObjAddr: 0x4C48, symBinAddr: 0x100005650, symSize: 0xD4 }
  - { offsetInCU: 0x1133F, offset: 0x1133F, size: 0x8, addend: 0x0, symName: __ZNSt3__117__compressed_pairIP7ComplexRNS_9allocatorIS1_EEEC1B8ue170006IDnS5_EEOT_OT0_, symObjAddr: 0x4D1C, symBinAddr: 0x100005724, symSize: 0x3C }
  - { offsetInCU: 0x11396, offset: 0x11396, size: 0x8, addend: 0x0, symName: __ZNSt3__114__split_bufferI7ComplexRNS_9allocatorIS1_EEE7__allocB8ue170006Ev, symObjAddr: 0x4D98, symBinAddr: 0x1000057A0, symSize: 0x28 }
  - { offsetInCU: 0x113BB, offset: 0x113BB, size: 0x8, addend: 0x0, symName: __ZNSt3__114__split_bufferI7ComplexRNS_9allocatorIS1_EEE9__end_capB8ue170006Ev, symObjAddr: 0x4DC0, symBinAddr: 0x1000057C8, symSize: 0x28 }
  - { offsetInCU: 0x113E0, offset: 0x113E0, size: 0x8, addend: 0x0, symName: __ZNSt3__117__compressed_pairIP7ComplexRNS_9allocatorIS1_EEEC2B8ue170006IDnS5_EEOT_OT0_, symObjAddr: 0x4DE8, symBinAddr: 0x1000057F0, symSize: 0x48 }
  - { offsetInCU: 0x11437, offset: 0x11437, size: 0x8, addend: 0x0, symName: __ZNSt3__122__compressed_pair_elemIRNS_9allocatorI7ComplexEELi1ELb0EEC2B8ue170006IS4_vEEOT_, symObjAddr: 0x4E30, symBinAddr: 0x100005838, symSize: 0x20 }
  - { offsetInCU: 0x11478, offset: 0x11478, size: 0x8, addend: 0x0, symName: __ZNSt3__19allocatorI7ComplexE8allocateB8ue170006Em, symObjAddr: 0x4E50, symBinAddr: 0x100005858, symSize: 0x84 }
  - { offsetInCU: 0x114AB, offset: 0x114AB, size: 0x8, addend: 0x0, symName: __ZNSt3__117__compressed_pairIP7ComplexRNS_9allocatorIS1_EEE6secondB8ue170006Ev, symObjAddr: 0x4ED4, symBinAddr: 0x1000058DC, symSize: 0x28 }
  - { offsetInCU: 0x114D0, offset: 0x114D0, size: 0x8, addend: 0x0, symName: __ZNSt3__122__compressed_pair_elemIRNS_9allocatorI7ComplexEELi1ELb0EE5__getB8ue170006Ev, symObjAddr: 0x4EFC, symBinAddr: 0x100005904, symSize: 0x18 }
  - { offsetInCU: 0x114F5, offset: 0x114F5, size: 0x8, addend: 0x0, symName: __ZNSt3__117__compressed_pairIP7ComplexRNS_9allocatorIS1_EEE5firstB8ue170006Ev, symObjAddr: 0x4F14, symBinAddr: 0x10000591C, symSize: 0x24 }
  - { offsetInCU: 0x1151A, offset: 0x1151A, size: 0x8, addend: 0x0, symName: __ZNSt3__116reverse_iteratorIP7ComplexEC1B8ue170006ES2_, symObjAddr: 0x5020, symBinAddr: 0x100005A28, symSize: 0x34 }
  - { offsetInCU: 0x11551, offset: 0x11551, size: 0x8, addend: 0x0, symName: __ZNKSt3__116reverse_iteratorIP7ComplexE4baseB8ue170006Ev, symObjAddr: 0x5054, symBinAddr: 0x100005A5C, symSize: 0x18 }
  - { offsetInCU: 0x11576, offset: 0x11576, size: 0x8, addend: 0x0, symName: __ZNKSt3__16vectorI7ComplexNS_9allocatorIS1_EEE14__annotate_newB8ue170006Em, symObjAddr: 0x50A8, symBinAddr: 0x100005AB0, symSize: 0xAC }
  - { offsetInCU: 0x115AA, offset: 0x115AA, size: 0x8, addend: 0x0, symName: __ZNKSt3__116reverse_iteratorIP7ComplexEdeB8ue170006Ev, symObjAddr: 0x51EC, symBinAddr: 0x100005BF4, symSize: 0x28 }
  - { offsetInCU: 0x115DD, offset: 0x115DD, size: 0x8, addend: 0x0, symName: __ZNSt3__116reverse_iteratorIP7ComplexEppB8ue170006Ev, symObjAddr: 0x5214, symBinAddr: 0x100005C1C, symSize: 0x20 }
  - { offsetInCU: 0x11607, offset: 0x11607, size: 0x8, addend: 0x0, symName: __ZNSt3__119__to_address_helperINS_16reverse_iteratorIP7ComplexEEvE6__callB8ue170006ERKS4_, symObjAddr: 0x52AC, symBinAddr: 0x100005CB4, symSize: 0x4C }
  - { offsetInCU: 0x1162A, offset: 0x1162A, size: 0x8, addend: 0x0, symName: __ZNKSt3__116reverse_iteratorIP7ComplexEptB8ue170006Ev, symObjAddr: 0x52F8, symBinAddr: 0x100005D00, symSize: 0x24 }
  - { offsetInCU: 0x11672, offset: 0x11672, size: 0x8, addend: 0x0, symName: __ZNKSt3__111__move_loopINS_17_ClassicAlgPolicyEEclB8ue170006INS_16reverse_iteratorIP7ComplexEES7_S7_EENS_4pairIT_T1_EES9_T0_SA_, symObjAddr: 0x5594, symBinAddr: 0x100005F9C, symSize: 0xA0 }
  - { offsetInCU: 0x116DC, offset: 0x116DC, size: 0x8, addend: 0x0, symName: __ZNSt3__18_IterOpsINS_17_ClassicAlgPolicyEE11__iter_moveB8ue170006IRNS_16reverse_iteratorIP7ComplexEEEENS_9enable_ifIXsr12is_referenceIDTdeclsr3stdE7declvalIRT_EEEEE5valueEDTclsr3stdE4movedeclsr3stdE7declvalISB_EEEEE4typeEOSA_, symObjAddr: 0x5794, symBinAddr: 0x10000619C, symSize: 0x28 }
  - { offsetInCU: 0x11708, offset: 0x11708, size: 0x8, addend: 0x0, symName: __ZNSt3__18_IterOpsINS_17_ClassicAlgPolicyEE25__validate_iter_referenceB8ue170006IRNS_16reverse_iteratorIP7ComplexEEEEvv, symObjAddr: 0x57BC, symBinAddr: 0x1000061C4, symSize: 0x4 }
  - { offsetInCU: 0x11726, offset: 0x11726, size: 0x8, addend: 0x0, symName: __ZNSt3__118__unwrap_iter_implINS_16reverse_iteratorIP7ComplexEELb0EE8__unwrapB8ue170006ES4_, symObjAddr: 0x57C0, symBinAddr: 0x1000061C8, symSize: 0x24 }
  - { offsetInCU: 0x11749, offset: 0x11749, size: 0x8, addend: 0x0, symName: __ZNSt3__14pairINS_16reverse_iteratorIP7ComplexEES4_EC1B8ue170006ERKS4_S7_, symObjAddr: 0x57E4, symBinAddr: 0x1000061EC, symSize: 0x3C }
  - { offsetInCU: 0x1178E, offset: 0x1178E, size: 0x8, addend: 0x0, symName: __ZNSt3__14pairINS_16reverse_iteratorIP7ComplexEES4_EC2B8ue170006ERKS4_S7_, symObjAddr: 0x5820, symBinAddr: 0x100006228, symSize: 0x34 }
  - { offsetInCU: 0x117D3, offset: 0x117D3, size: 0x8, addend: 0x0, symName: __ZNSt3__118__unwrap_iter_implINS_16reverse_iteratorIP7ComplexEELb0EE8__rewrapB8ue170006ES4_S4_, symObjAddr: 0x5854, symBinAddr: 0x10000625C, symSize: 0x2C }
  - { offsetInCU: 0x11801, offset: 0x11801, size: 0x8, addend: 0x0, symName: __ZNSt3__116reverse_iteratorIP7ComplexEC2B8ue170006ES2_, symObjAddr: 0x5880, symBinAddr: 0x100006288, symSize: 0x28 }
  - { offsetInCU: 0x11838, offset: 0x11838, size: 0x8, addend: 0x0, symName: __ZNSt3__114__split_bufferI7ComplexRNS_9allocatorIS1_EEED2Ev, symObjAddr: 0x58A8, symBinAddr: 0x1000062B0, symSize: 0x80 }
  - { offsetInCU: 0x11863, offset: 0x11863, size: 0x8, addend: 0x0, symName: __ZNSt3__114__split_bufferI7ComplexRNS_9allocatorIS1_EEE5clearB8ue170006Ev, symObjAddr: 0x5928, symBinAddr: 0x100006330, symSize: 0x28 }
  - { offsetInCU: 0x11888, offset: 0x11888, size: 0x8, addend: 0x0, symName: __ZNKSt3__114__split_bufferI7ComplexRNS_9allocatorIS1_EEE8capacityB8ue170006Ev, symObjAddr: 0x5950, symBinAddr: 0x100006358, symSize: 0x40 }
  - { offsetInCU: 0x118AD, offset: 0x118AD, size: 0x8, addend: 0x0, symName: __ZNSt3__114__split_bufferI7ComplexRNS_9allocatorIS1_EEE17__destruct_at_endB8ue170006EPS1_, symObjAddr: 0x5990, symBinAddr: 0x100006398, symSize: 0x2C }
  - { offsetInCU: 0x118DF, offset: 0x118DF, size: 0x8, addend: 0x0, symName: __ZNSt3__114__split_bufferI7ComplexRNS_9allocatorIS1_EEE17__destruct_at_endB8ue170006EPS1_NS_17integral_constantIbLb0EEE, symObjAddr: 0x59BC, symBinAddr: 0x1000063C4, symSize: 0x94 }
  - { offsetInCU: 0x1191F, offset: 0x1191F, size: 0x8, addend: 0x0, symName: __ZNKSt3__114__split_bufferI7ComplexRNS_9allocatorIS1_EEE9__end_capB8ue170006Ev, symObjAddr: 0x5A50, symBinAddr: 0x100006458, symSize: 0x28 }
  - { offsetInCU: 0x11944, offset: 0x11944, size: 0x8, addend: 0x0, symName: __ZNKSt3__117__compressed_pairIP7ComplexRNS_9allocatorIS1_EEE5firstB8ue170006Ev, symObjAddr: 0x5A78, symBinAddr: 0x100006480, symSize: 0x24 }
  - { offsetInCU: 0x11969, offset: 0x11969, size: 0x8, addend: 0x0, symName: __ZNSt3__16vectorIdNS_9allocatorIdEEEC2B8ue170006Ev, symObjAddr: 0x5A9C, symBinAddr: 0x1000064A4, symSize: 0x44 }
  - { offsetInCU: 0x11997, offset: 0x11997, size: 0x8, addend: 0x0, symName: __ZNSt3__16vectorIdNS_9allocatorIdEEE22__construct_one_at_endB8ue170006IJdEEEvDpOT_, symObjAddr: 0x5AE0, symBinAddr: 0x1000064E8, symSize: 0x98 }
  - { offsetInCU: 0x119E4, offset: 0x119E4, size: 0x8, addend: 0x0, symName: __ZNSt3__16vectorIdNS_9allocatorIdEEE21__push_back_slow_pathIdEEvOT_, symObjAddr: 0x5B78, symBinAddr: 0x100006580, symSize: 0xE0 }
  - { offsetInCU: 0x11A41, offset: 0x11A41, size: 0x8, addend: 0x0, symName: __ZNSt3__116allocator_traitsINS_9allocatorIdEEE9constructB8ue170006IdJdEvEEvRS2_PT_DpOT0_, symObjAddr: 0x5C58, symBinAddr: 0x100006660, symSize: 0x34 }
  - { offsetInCU: 0x11A98, offset: 0x11A98, size: 0x8, addend: 0x0, symName: __ZNSt3__19allocatorIdE9constructB8ue170006IdJdEEEvPT_DpOT0_, symObjAddr: 0x5C8C, symBinAddr: 0x100006694, symSize: 0x28 }
  - { offsetInCU: 0x11AEC, offset: 0x11AEC, size: 0x8, addend: 0x0, symName: __ZNKSt3__16vectorIdNS_9allocatorIdEEE11__recommendB8ue170006Em, symObjAddr: 0x5CB4, symBinAddr: 0x1000066BC, symSize: 0xB4 }
  - { offsetInCU: 0x11B40, offset: 0x11B40, size: 0x8, addend: 0x0, symName: __ZNSt3__114__split_bufferIdRNS_9allocatorIdEEEC1EmmS3_, symObjAddr: 0x5D68, symBinAddr: 0x100006770, symSize: 0x44 }
  - { offsetInCU: 0x11B95, offset: 0x11B95, size: 0x8, addend: 0x0, symName: __ZNSt3__114__split_bufferIdRNS_9allocatorIdEEED1Ev, symObjAddr: 0x5EBC, symBinAddr: 0x1000068C4, symSize: 0x2C }
  - { offsetInCU: 0x11BC0, offset: 0x11BC0, size: 0x8, addend: 0x0, symName: __ZNSt3__114__split_bufferIdRNS_9allocatorIdEEEC2EmmS3_, symObjAddr: 0x5EE8, symBinAddr: 0x1000068F0, symSize: 0xD4 }
  - { offsetInCU: 0x11C33, offset: 0x11C33, size: 0x8, addend: 0x0, symName: __ZNSt3__117__compressed_pairIPdRNS_9allocatorIdEEEC1B8ue170006IDnS4_EEOT_OT0_, symObjAddr: 0x5FBC, symBinAddr: 0x1000069C4, symSize: 0x3C }
  - { offsetInCU: 0x11C8A, offset: 0x11C8A, size: 0x8, addend: 0x0, symName: __ZNSt3__114__split_bufferIdRNS_9allocatorIdEEE7__allocB8ue170006Ev, symObjAddr: 0x5FF8, symBinAddr: 0x100006A00, symSize: 0x28 }
  - { offsetInCU: 0x11CAF, offset: 0x11CAF, size: 0x8, addend: 0x0, symName: __ZNSt3__114__split_bufferIdRNS_9allocatorIdEEE9__end_capB8ue170006Ev, symObjAddr: 0x6020, symBinAddr: 0x100006A28, symSize: 0x28 }
  - { offsetInCU: 0x11CD4, offset: 0x11CD4, size: 0x8, addend: 0x0, symName: __ZNSt3__117__compressed_pairIPdRNS_9allocatorIdEEEC2B8ue170006IDnS4_EEOT_OT0_, symObjAddr: 0x6048, symBinAddr: 0x100006A50, symSize: 0x48 }
  - { offsetInCU: 0x11D2B, offset: 0x11D2B, size: 0x8, addend: 0x0, symName: __ZNSt3__122__compressed_pair_elemIRNS_9allocatorIdEELi1ELb0EEC2B8ue170006IS3_vEEOT_, symObjAddr: 0x6090, symBinAddr: 0x100006A98, symSize: 0x20 }
  - { offsetInCU: 0x11D6C, offset: 0x11D6C, size: 0x8, addend: 0x0, symName: __ZNSt3__117__compressed_pairIPdRNS_9allocatorIdEEE6secondB8ue170006Ev, symObjAddr: 0x60B0, symBinAddr: 0x100006AB8, symSize: 0x28 }
  - { offsetInCU: 0x11D91, offset: 0x11D91, size: 0x8, addend: 0x0, symName: __ZNSt3__122__compressed_pair_elemIRNS_9allocatorIdEELi1ELb0EE5__getB8ue170006Ev, symObjAddr: 0x60D8, symBinAddr: 0x100006AE0, symSize: 0x18 }
  - { offsetInCU: 0x11DB6, offset: 0x11DB6, size: 0x8, addend: 0x0, symName: __ZNSt3__117__compressed_pairIPdRNS_9allocatorIdEEE5firstB8ue170006Ev, symObjAddr: 0x60F0, symBinAddr: 0x100006AF8, symSize: 0x24 }
  - { offsetInCU: 0x11DF4, offset: 0x11DF4, size: 0x8, addend: 0x0, symName: __ZNKSt3__111__move_loopINS_17_ClassicAlgPolicyEEclB8ue170006INS_16reverse_iteratorIPdEES6_S6_EENS_4pairIT_T1_EES8_T0_S9_, symObjAddr: 0x6554, symBinAddr: 0x100006F5C, symSize: 0xA0 }
  - { offsetInCU: 0x11E5E, offset: 0x11E5E, size: 0x8, addend: 0x0, symName: __ZNSt3__18_IterOpsINS_17_ClassicAlgPolicyEE11__iter_moveB8ue170006IRNS_16reverse_iteratorIPdEEEENS_9enable_ifIXsr12is_referenceIDTdeclsr3stdE7declvalIRT_EEEEE5valueEDTclsr3stdE4movedeclsr3stdE7declvalISA_EEEEE4typeEOS9_, symObjAddr: 0x6754, symBinAddr: 0x10000715C, symSize: 0x28 }
  - { offsetInCU: 0x11E8A, offset: 0x11E8A, size: 0x8, addend: 0x0, symName: __ZNSt3__18_IterOpsINS_17_ClassicAlgPolicyEE25__validate_iter_referenceB8ue170006IRNS_16reverse_iteratorIPdEEEEvv, symObjAddr: 0x677C, symBinAddr: 0x100007184, symSize: 0x4 }
  - { offsetInCU: 0x11EA8, offset: 0x11EA8, size: 0x8, addend: 0x0, symName: __ZNSt3__118__unwrap_iter_implINS_16reverse_iteratorIPdEELb0EE8__unwrapB8ue170006ES3_, symObjAddr: 0x6780, symBinAddr: 0x100007188, symSize: 0x24 }
  - { offsetInCU: 0x11ECB, offset: 0x11ECB, size: 0x8, addend: 0x0, symName: __ZNSt3__14pairINS_16reverse_iteratorIPdEES3_EC1B8ue170006ERKS3_S6_, symObjAddr: 0x67A4, symBinAddr: 0x1000071AC, symSize: 0x3C }
  - { offsetInCU: 0x11F10, offset: 0x11F10, size: 0x8, addend: 0x0, symName: __ZNSt3__14pairINS_16reverse_iteratorIPdEES3_EC2B8ue170006ERKS3_S6_, symObjAddr: 0x67E0, symBinAddr: 0x1000071E8, symSize: 0x34 }
  - { offsetInCU: 0x11F55, offset: 0x11F55, size: 0x8, addend: 0x0, symName: __ZNSt3__118__unwrap_iter_implINS_16reverse_iteratorIPdEELb0EE8__rewrapB8ue170006ES3_S3_, symObjAddr: 0x6814, symBinAddr: 0x10000721C, symSize: 0x2C }
  - { offsetInCU: 0x11F83, offset: 0x11F83, size: 0x8, addend: 0x0, symName: __ZNSt3__114__split_bufferIdRNS_9allocatorIdEEED2Ev, symObjAddr: 0x6840, symBinAddr: 0x100007248, symSize: 0x80 }
  - { offsetInCU: 0x11FAE, offset: 0x11FAE, size: 0x8, addend: 0x0, symName: __ZNSt3__114__split_bufferIdRNS_9allocatorIdEEE5clearB8ue170006Ev, symObjAddr: 0x68C0, symBinAddr: 0x1000072C8, symSize: 0x28 }
  - { offsetInCU: 0x11FD3, offset: 0x11FD3, size: 0x8, addend: 0x0, symName: __ZNKSt3__114__split_bufferIdRNS_9allocatorIdEEE8capacityB8ue170006Ev, symObjAddr: 0x68E8, symBinAddr: 0x1000072F0, symSize: 0x40 }
  - { offsetInCU: 0x11FF8, offset: 0x11FF8, size: 0x8, addend: 0x0, symName: __ZNSt3__114__split_bufferIdRNS_9allocatorIdEEE17__destruct_at_endB8ue170006EPd, symObjAddr: 0x6928, symBinAddr: 0x100007330, symSize: 0x2C }
  - { offsetInCU: 0x1202A, offset: 0x1202A, size: 0x8, addend: 0x0, symName: __ZNSt3__114__split_bufferIdRNS_9allocatorIdEEE17__destruct_at_endB8ue170006EPdNS_17integral_constantIbLb0EEE, symObjAddr: 0x6954, symBinAddr: 0x10000735C, symSize: 0x94 }
  - { offsetInCU: 0x1206A, offset: 0x1206A, size: 0x8, addend: 0x0, symName: __ZNKSt3__114__split_bufferIdRNS_9allocatorIdEEE9__end_capB8ue170006Ev, symObjAddr: 0x69E8, symBinAddr: 0x1000073F0, symSize: 0x28 }
  - { offsetInCU: 0x1208F, offset: 0x1208F, size: 0x8, addend: 0x0, symName: __ZNKSt3__117__compressed_pairIPdRNS_9allocatorIdEEE5firstB8ue170006Ev, symObjAddr: 0x6A10, symBinAddr: 0x100007418, symSize: 0x24 }
...
