---
triple:          'arm64-apple-darwin'
binary-path:     '/Users/dunnaya/projects/uni/sem4/Algorithms/lab2/bplus_tree'
relocations:
  - { offsetInCU: 0x8124, offset: 0x8124, size: 0x8, addend: 0x0, symName: __ZNSt3__17advanceB8ue170006INS_11__wrap_iterIP7ComplexEEllvEEvRT_T0_, symObjAddr: 0x4AE4, symBinAddr: 0x100007BE0, symSize: 0x38 }
  - { offsetInCU: 0x866C, offset: 0x866C, size: 0x8, addend: 0x0, symName: __ZNSt3__17advanceB8ue170006INS_11__wrap_iterIPPN9BPlusTree4NodeEEEllvEEvRT_T0_, symObjAddr: 0x8E50, symBinAddr: 0x10000BF4C, symSize: 0x38 }
  - { offsetInCU: 0x9101, offset: 0x9101, size: 0x8, addend: 0x0, symName: __ZNSt3__124__put_character_sequenceB8ue170006IcNS_11char_traitsIcEEEERNS_13basic_ostreamIT_T0_EES7_PKS4_m, symObjAddr: 0xEFD4, symBinAddr: 0x1000120D0, symSize: 0x1F4 }
  - { offsetInCU: 0xAC5A, offset: 0xAC5A, size: 0x8, addend: 0x0, symName: __ZNSt3__1lsB8ue170006INS_11char_traitsIcEEEERNS_13basic_ostreamIcT_EES6_PKc, symObjAddr: 0x540, symBinAddr: 0x10000363C, symSize: 0x48 }
  - { offsetInCU: 0xACA0, offset: 0xACA0, size: 0x8, addend: 0x0, symName: __ZNSt3__14endlB8ue170006IcNS_11char_traitsIcEEEERNS_13basic_ostreamIT_T0_EES7_, symObjAddr: 0x5B4, symBinAddr: 0x1000036B0, symSize: 0x58 }
  - { offsetInCU: 0xACE0, offset: 0xACE0, size: 0x8, addend: 0x0, symName: __ZNSt3__112__to_addressB8ue170006I7ComplexEEPT_S3_, symObjAddr: 0x1348, symBinAddr: 0x100004444, symSize: 0x14 }
  - { offsetInCU: 0xAD15, offset: 0xAD15, size: 0x8, addend: 0x0, symName: __ZNSt3__130__libcpp_is_constant_evaluatedB8ue170006Ev, symObjAddr: 0x1428, symBinAddr: 0x100004524, symSize: 0xC }
  - { offsetInCU: 0xAD32, offset: 0xAD32, size: 0x8, addend: 0x0, symName: __ZNSt3__119__libcpp_deallocateB8ue170006EPvmm, symObjAddr: 0x1434, symBinAddr: 0x100004530, symSize: 0x30 }
  - { offsetInCU: 0xAD7A, offset: 0xAD7A, size: 0x8, addend: 0x0, symName: __ZNSt3__127__do_deallocate_handle_sizeB8ue170006IJEEEvPvmDpT_, symObjAddr: 0x1464, symBinAddr: 0x100004560, symSize: 0x28 }
  - { offsetInCU: 0xADB8, offset: 0xADB8, size: 0x8, addend: 0x0, symName: __ZNSt3__124__libcpp_operator_deleteB8ue170006IJPvEEEvDpT_, symObjAddr: 0x148C, symBinAddr: 0x100004588, symSize: 0x24 }
  - { offsetInCU: 0xADED, offset: 0xADED, size: 0x8, addend: 0x0, symName: __ZNSt3__13maxB8ue170006ImEERKT_S3_S3_, symObjAddr: 0x1B0C, symBinAddr: 0x100004C08, symSize: 0x2C }
  - { offsetInCU: 0xAE30, offset: 0xAE30, size: 0x8, addend: 0x0, symName: __ZNSt3__13minB8ue170006ImEERKT_S3_S3_, symObjAddr: 0x1B38, symBinAddr: 0x100004C34, symSize: 0x2C }
  - { offsetInCU: 0xB074, offset: 0xB074, size: 0x8, addend: 0x0, symName: __ZNSt3__13minB8ue170006ImNS_6__lessIvvEEEERKT_S5_S5_T0_, symObjAddr: 0x1BC4, symBinAddr: 0x100004CC0, symSize: 0x54 }
  - { offsetInCU: 0xB113, offset: 0xB113, size: 0x8, addend: 0x0, symName: __ZNSt3__120__throw_length_errorB8ue170006EPKc, symObjAddr: 0x1CA0, symBinAddr: 0x100004D9C, symSize: 0x64 }
  - { offsetInCU: 0xB13D, offset: 0xB13D, size: 0x8, addend: 0x0, symName: __ZNSt3__13maxB8ue170006ImNS_6__lessIvvEEEERKT_S5_S5_T0_, symObjAddr: 0x1D84, symBinAddr: 0x100004E80, symSize: 0x54 }
  - { offsetInCU: 0xB197, offset: 0xB197, size: 0x8, addend: 0x0, symName: __ZNSt3__119__allocate_at_leastB8ue170006INS_9allocatorI7ComplexEEEENS_19__allocation_resultINS_16allocator_traitsIT_E7pointerEEERS6_m, symObjAddr: 0x1EE8, symBinAddr: 0x100004FE4, symSize: 0x40 }
  - { offsetInCU: 0xB1DA, offset: 0xB1DA, size: 0x8, addend: 0x0, symName: __ZNSt3__117__libcpp_allocateB8ue170006Emm, symObjAddr: 0x2098, symBinAddr: 0x100005194, symSize: 0x28 }
  - { offsetInCU: 0xB217, offset: 0xB217, size: 0x8, addend: 0x0, symName: __ZNSt3__121__libcpp_operator_newB8ue170006IJmEEEPvDpT_, symObjAddr: 0x20C0, symBinAddr: 0x1000051BC, symSize: 0x24 }
  - { offsetInCU: 0xB250, offset: 0xB250, size: 0x8, addend: 0x0, symName: __ZNSt3__142__uninitialized_allocator_move_if_noexceptB8ue170006INS_9allocatorI7ComplexEENS_16reverse_iteratorIPS2_EES6_S2_vEET1_RT_T0_SA_S7_, symObjAddr: 0x2148, symBinAddr: 0x100005244, symSize: 0xE8 }
  - { offsetInCU: 0xB2CD, offset: 0xB2CD, size: 0x8, addend: 0x0, symName: __ZNSt3__14swapB8ue170006IP7ComplexEEvRT_S4_, symObjAddr: 0x227C, symBinAddr: 0x100005378, symSize: 0x3C }
  - { offsetInCU: 0xB31E, offset: 0xB31E, size: 0x8, addend: 0x0, symName: __ZNSt3__1neB8ue170006IP7ComplexS2_EEbRKNS_16reverse_iteratorIT_EERKNS3_IT0_EE, symObjAddr: 0x2364, symBinAddr: 0x100005460, symSize: 0x48 }
  - { offsetInCU: 0xB38F, offset: 0xB38F, size: 0x8, addend: 0x0, symName: __ZNSt3__114__construct_atB8ue170006I7ComplexJS1_EPS1_EEPT_S4_DpOT0_, symObjAddr: 0x23AC, symBinAddr: 0x1000054A8, symSize: 0x2C }
  - { offsetInCU: 0xB3FF, offset: 0xB3FF, size: 0x8, addend: 0x0, symName: __ZNSt3__112__to_addressB8ue170006INS_16reverse_iteratorIP7ComplexEEvEEu7__decayIDTclsr19__to_address_helperIT_EE6__callclsr3stdE7declvalIRKS5_EEEEES7_, symObjAddr: 0x23D8, symBinAddr: 0x1000054D4, symSize: 0x24 }
  - { offsetInCU: 0xB435, offset: 0xB435, size: 0x8, addend: 0x0, symName: __ZNSt3__14moveB8ue170006INS_16reverse_iteratorIP7ComplexEES4_EET0_T_S6_S5_, symObjAddr: 0x2444, symBinAddr: 0x100005540, symSize: 0x78 }
  - { offsetInCU: 0xB4B8, offset: 0xB4B8, size: 0x8, addend: 0x0, symName: __ZNSt3__16__moveB8ue170006INS_17_ClassicAlgPolicyENS_16reverse_iteratorIP7ComplexEES5_S5_EENS_4pairIT0_T2_EES7_T1_S8_, symObjAddr: 0x252C, symBinAddr: 0x100005628, symSize: 0x64 }
  - { offsetInCU: 0xB524, offset: 0xB524, size: 0x8, addend: 0x0, symName: __ZNSt3__123__dispatch_copy_or_moveB8ue170006INS_17_ClassicAlgPolicyENS_11__move_loopIS1_EENS_14__move_trivialENS_16reverse_iteratorIP7ComplexEES8_S8_EENS_4pairIT2_T4_EESA_T3_SB_, symObjAddr: 0x2590, symBinAddr: 0x10000568C, symSize: 0x64 }
  - { offsetInCU: 0xB5A2, offset: 0xB5A2, size: 0x8, addend: 0x0, symName: __ZNSt3__121__unwrap_and_dispatchB8ue170006INS_10__overloadINS_11__move_loopINS_17_ClassicAlgPolicyEEENS_14__move_trivialEEENS_16reverse_iteratorIP7ComplexEESA_SA_Li0EEENS_4pairIT0_T2_EESC_T1_SD_, symObjAddr: 0x25F4, symBinAddr: 0x1000056F0, symSize: 0x12C }
  - { offsetInCU: 0xB632, offset: 0xB632, size: 0x8, addend: 0x0, symName: __ZNSt3__114__unwrap_rangeB8ue170006INS_16reverse_iteratorIP7ComplexEES4_EENS_4pairIT0_S6_EET_S8_, symObjAddr: 0x2720, symBinAddr: 0x10000581C, symSize: 0x84 }
  - { offsetInCU: 0xB7C5, offset: 0xB7C5, size: 0x8, addend: 0x0, symName: __ZNSt3__113__unwrap_iterB8ue170006INS_16reverse_iteratorIP7ComplexEENS_18__unwrap_iter_implIS4_Lb0EEELi0EEEDTclsrT0_8__unwrapclsr3stdE7declvalIT_EEEES8_, symObjAddr: 0x2844, symBinAddr: 0x100005940, symSize: 0x44 }
  - { offsetInCU: 0xB809, offset: 0xB809, size: 0x8, addend: 0x0, symName: __ZNSt3__19make_pairB8ue170006INS_16reverse_iteratorIP7ComplexEES4_EENS_4pairINS_18__unwrap_ref_decayIT_E4typeENS6_IT0_E4typeEEEOS7_OSA_, symObjAddr: 0x2888, symBinAddr: 0x100005984, symSize: 0x38 }
  - { offsetInCU: 0xB858, offset: 0xB858, size: 0x8, addend: 0x0, symName: __ZNSt3__114__rewrap_rangeB8ue170006INS_16reverse_iteratorIP7ComplexEES4_EET_S5_T0_, symObjAddr: 0x28C0, symBinAddr: 0x1000059BC, symSize: 0x5C }
  - { offsetInCU: 0xB8A4, offset: 0xB8A4, size: 0x8, addend: 0x0, symName: __ZNSt3__113__rewrap_iterB8ue170006INS_16reverse_iteratorIP7ComplexEES4_NS_18__unwrap_iter_implIS4_Lb0EEEEET_S7_T0_, symObjAddr: 0x291C, symBinAddr: 0x100005A18, symSize: 0x88 }
  - { offsetInCU: 0xB9FA, offset: 0xB9FA, size: 0x8, addend: 0x0, symName: __ZNSt3__1miB8ue170006IPK7ComplexPS1_EENS_11__wrap_iterIT_E15difference_typeERKS7_RKNS5_IT0_EE, symObjAddr: 0x300C, symBinAddr: 0x100006108, symSize: 0x48 }
  - { offsetInCU: 0xBA79, offset: 0xBA79, size: 0x8, addend: 0x0, symName: __ZNSt3__113move_backwardB8ue170006IP7ComplexS2_EET0_T_S4_S3_, symObjAddr: 0x35E4, symBinAddr: 0x1000066E0, symSize: 0x40 }
  - { offsetInCU: 0xBAD3, offset: 0xBAD3, size: 0x8, addend: 0x0, symName: __ZNSt3__115__move_backwardB8ue170006INS_17_ClassicAlgPolicyEP7ComplexS3_S3_EENS_4pairIT0_T2_EES5_T1_S6_, symObjAddr: 0x364C, symBinAddr: 0x100006748, symSize: 0x44 }
  - { offsetInCU: 0xBB3F, offset: 0xBB3F, size: 0x8, addend: 0x0, symName: __ZNSt3__123__dispatch_copy_or_moveB8ue170006INS_17_ClassicAlgPolicyENS_20__move_backward_loopIS1_EENS_23__move_backward_trivialEP7ComplexS6_S6_EENS_4pairIT2_T4_EES8_T3_S9_, symObjAddr: 0x3690, symBinAddr: 0x10000678C, symSize: 0x44 }
  - { offsetInCU: 0xBBBD, offset: 0xBBBD, size: 0x8, addend: 0x0, symName: __ZNSt3__121__unwrap_and_dispatchB8ue170006INS_10__overloadINS_20__move_backward_loopINS_17_ClassicAlgPolicyEEENS_23__move_backward_trivialEEEP7ComplexS8_S8_Li0EEENS_4pairIT0_T2_EESA_T1_SB_, symObjAddr: 0x36D4, symBinAddr: 0x1000067D0, symSize: 0xB4 }
  - { offsetInCU: 0xBC4B, offset: 0xBC4B, size: 0x8, addend: 0x0, symName: __ZNSt3__114__unwrap_rangeB8ue170006IP7ComplexS2_EENS_4pairIT0_S4_EET_S6_, symObjAddr: 0x3788, symBinAddr: 0x100006884, symSize: 0x60 }
  - { offsetInCU: 0xBE02, offset: 0xBE02, size: 0x8, addend: 0x0, symName: __ZNSt3__113__unwrap_iterB8ue170006IP7ComplexNS_18__unwrap_iter_implIS2_Lb1EEELi0EEEDTclsrT0_8__unwrapclsr3stdE7declvalIT_EEEES6_, symObjAddr: 0x3830, symBinAddr: 0x10000692C, symSize: 0x24 }
  - { offsetInCU: 0xBE46, offset: 0xBE46, size: 0x8, addend: 0x0, symName: __ZNSt3__19make_pairB8ue170006IP7ComplexS2_EENS_4pairINS_18__unwrap_ref_decayIT_E4typeENS4_IT0_E4typeEEEOS5_OS8_, symObjAddr: 0x3854, symBinAddr: 0x100006950, symSize: 0x38 }
  - { offsetInCU: 0xBE95, offset: 0xBE95, size: 0x8, addend: 0x0, symName: __ZNSt3__114__rewrap_rangeB8ue170006IP7ComplexS2_EET_S3_T0_, symObjAddr: 0x388C, symBinAddr: 0x100006988, symSize: 0x2C }
  - { offsetInCU: 0xBEE1, offset: 0xBEE1, size: 0x8, addend: 0x0, symName: __ZNSt3__113__rewrap_iterB8ue170006IP7ComplexS2_NS_18__unwrap_iter_implIS2_Lb1EEEEET_S5_T0_, symObjAddr: 0x38B8, symBinAddr: 0x1000069B4, symSize: 0x50 }
  - { offsetInCU: 0xBF36, offset: 0xBF36, size: 0x8, addend: 0x0, symName: __ZNSt3__128__copy_backward_trivial_implB8ue170006I7ComplexS1_EENS_4pairIPT_PT0_EES4_S4_S6_, symObjAddr: 0x3908, symBinAddr: 0x100006A04, symSize: 0x90 }
  - { offsetInCU: 0xBF9E, offset: 0xBF9E, size: 0x8, addend: 0x0, symName: __ZNSt3__119__constexpr_memmoveB8ue170006I7ComplexS1_Li0EEEPT_S3_PT0_NS_15__element_countE, symObjAddr: 0x3998, symBinAddr: 0x100006A94, symSize: 0xA0 }
  - { offsetInCU: 0xC00C, offset: 0xC00C, size: 0x8, addend: 0x0, symName: __ZNSt3__19make_pairB8ue170006IRP7ComplexS3_EENS_4pairINS_18__unwrap_ref_decayIT_E4typeENS5_IT0_E4typeEEEOS6_OS9_, symObjAddr: 0x3A38, symBinAddr: 0x100006B34, symSize: 0x38 }
  - { offsetInCU: 0xC0AE, offset: 0xC0AE, size: 0x8, addend: 0x0, symName: __ZNSt3__14moveB8ue170006IP7ComplexS2_EET0_T_S4_S3_, symObjAddr: 0x3B54, symBinAddr: 0x100006C50, symSize: 0x40 }
  - { offsetInCU: 0xC108, offset: 0xC108, size: 0x8, addend: 0x0, symName: __ZNSt3__16__moveB8ue170006INS_17_ClassicAlgPolicyEP7ComplexS3_S3_EENS_4pairIT0_T2_EES5_T1_S6_, symObjAddr: 0x3C28, symBinAddr: 0x100006D24, symSize: 0x44 }
  - { offsetInCU: 0xC174, offset: 0xC174, size: 0x8, addend: 0x0, symName: __ZNSt3__123__dispatch_copy_or_moveB8ue170006INS_17_ClassicAlgPolicyENS_11__move_loopIS1_EENS_14__move_trivialEP7ComplexS6_S6_EENS_4pairIT2_T4_EES8_T3_S9_, symObjAddr: 0x3C6C, symBinAddr: 0x100006D68, symSize: 0x44 }
  - { offsetInCU: 0xC1F2, offset: 0xC1F2, size: 0x8, addend: 0x0, symName: __ZNSt3__121__unwrap_and_dispatchB8ue170006INS_10__overloadINS_11__move_loopINS_17_ClassicAlgPolicyEEENS_14__move_trivialEEEP7ComplexS8_S8_Li0EEENS_4pairIT0_T2_EESA_T1_SB_, symObjAddr: 0x3CB0, symBinAddr: 0x100006DAC, symSize: 0xB4 }
  - { offsetInCU: 0xC33E, offset: 0xC33E, size: 0x8, addend: 0x0, symName: __ZNSt3__119__copy_trivial_implB8ue170006I7ComplexS1_EENS_4pairIPT_PT0_EES4_S4_S6_, symObjAddr: 0x3DAC, symBinAddr: 0x100006EA8, symSize: 0x80 }
  - { offsetInCU: 0xC3A6, offset: 0xC3A6, size: 0x8, addend: 0x0, symName: __ZNSt3__19make_pairB8ue170006IRP7ComplexS2_EENS_4pairINS_18__unwrap_ref_decayIT_E4typeENS5_IT0_E4typeEEEOS6_OS9_, symObjAddr: 0x3E2C, symBinAddr: 0x100006F28, symSize: 0x38 }
  - { offsetInCU: 0xC3F5, offset: 0xC3F5, size: 0x8, addend: 0x0, symName: __ZNSt3__18distanceB8ue170006INS_13move_iteratorIP7ComplexEEEENS_15iterator_traitsIT_E15difference_typeES6_S6_, symObjAddr: 0x3F48, symBinAddr: 0x100007044, symSize: 0x3C }
  - { offsetInCU: 0xC438, offset: 0xC438, size: 0x8, addend: 0x0, symName: __ZNSt3__110__distanceB8ue170006INS_13move_iteratorIP7ComplexEEEENS_15iterator_traitsIT_E15difference_typeES6_S6_NS_26random_access_iterator_tagE, symObjAddr: 0x4088, symBinAddr: 0x100007184, symSize: 0x30 }
  - { offsetInCU: 0xC485, offset: 0xC485, size: 0x8, addend: 0x0, symName: __ZNSt3__1miB8ue170006IP7ComplexS2_EENS_13move_iteratorIT_E15difference_typeERKS5_RKNS3_IT0_EE, symObjAddr: 0x40B8, symBinAddr: 0x1000071B4, symSize: 0x48 }
  - { offsetInCU: 0xC4D4, offset: 0xC4D4, size: 0x8, addend: 0x0, symName: __ZNSt3__142__uninitialized_allocator_move_if_noexceptB8ue170006INS_9allocatorI7ComplexEEPS2_S4_S2_vEET1_RT_T0_S8_S5_, symObjAddr: 0x4138, symBinAddr: 0x100007234, symSize: 0xA4 }
  - { offsetInCU: 0xC550, offset: 0xC550, size: 0x8, addend: 0x0, symName: __ZNSt3__18distanceB8ue170006INS_11__wrap_iterIP7ComplexEEEENS_15iterator_traitsIT_E15difference_typeES6_S6_, symObjAddr: 0x4798, symBinAddr: 0x100007894, symSize: 0x3C }
  - { offsetInCU: 0xC593, offset: 0xC593, size: 0x8, addend: 0x0, symName: __ZNSt3__14nextB8ue170006INS_11__wrap_iterIP7ComplexEEEENS_9enable_ifIXsr29__has_input_iterator_categoryIT_EE5valueES6_E4typeES6_NS_15iterator_traitsIS6_E15difference_typeE, symObjAddr: 0x47D4, symBinAddr: 0x1000078D0, symSize: 0x3C }
  - { offsetInCU: 0xC5D6, offset: 0xC5D6, size: 0x8, addend: 0x0, symName: __ZNSt3__14copyB8ue170006INS_11__wrap_iterIP7ComplexEES3_EET0_T_S6_S5_, symObjAddr: 0x4810, symBinAddr: 0x10000790C, symSize: 0x50 }
  - { offsetInCU: 0xC630, offset: 0xC630, size: 0x8, addend: 0x0, symName: __ZNSt3__16__copyB8ue170006INS_17_ClassicAlgPolicyENS_11__wrap_iterIP7ComplexEES5_S4_EENS_4pairIT0_T2_EES7_T1_S8_, symObjAddr: 0x4904, symBinAddr: 0x100007A00, symSize: 0x54 }
  - { offsetInCU: 0xC69C, offset: 0xC69C, size: 0x8, addend: 0x0, symName: __ZNSt3__121__convert_to_integralB8ue170006El, symObjAddr: 0x4B1C, symBinAddr: 0x100007C18, symSize: 0x14 }
  - { offsetInCU: 0xC6C8, offset: 0xC6C8, size: 0x8, addend: 0x0, symName: __ZNSt3__19__advanceB8ue170006INS_11__wrap_iterIP7ComplexEEEEvRT_NS_15iterator_traitsIS5_E15difference_typeENS_26random_access_iterator_tagE, symObjAddr: 0x4B30, symBinAddr: 0x100007C2C, symSize: 0x2C }
  - { offsetInCU: 0xC711, offset: 0xC711, size: 0x8, addend: 0x0, symName: __ZNSt3__130__uninitialized_allocator_copyB8ue170006INS_9allocatorI7ComplexEENS_11__wrap_iterIPS2_EES6_S5_EET2_RT_T0_T1_S7_, symObjAddr: 0x4B5C, symBinAddr: 0x100007C58, symSize: 0x90 }
  - { offsetInCU: 0xC7AE, offset: 0xC7AE, size: 0x8, addend: 0x0, symName: __ZNSt3__114__unwrap_rangeB8ue170006INS_11__wrap_iterIP7ComplexEES3_EENS_4pairIT0_S6_EET_S8_, symObjAddr: 0x4BEC, symBinAddr: 0x100007CE8, symSize: 0x70 }
  - { offsetInCU: 0xC7FA, offset: 0xC7FA, size: 0x8, addend: 0x0, symName: __ZNSt3__135__uninitialized_allocator_copy_implB8ue170006INS_9allocatorI7ComplexEEPS2_S4_S4_EET2_RT_T0_T1_S5_, symObjAddr: 0x4C5C, symBinAddr: 0x100007D58, symSize: 0xFC }
  - { offsetInCU: 0xC898, offset: 0xC898, size: 0x8, addend: 0x0, symName: __ZNSt3__113__unwrap_iterB8ue170006INS_11__wrap_iterIP7ComplexEENS_18__unwrap_iter_implIS4_Lb1EEELi0EEEDTclsrT0_8__unwrapclsr3stdE7declvalIT_EEEES8_, symObjAddr: 0x4D58, symBinAddr: 0x100007E54, symSize: 0x2C }
  - { offsetInCU: 0xC92F, offset: 0xC92F, size: 0x8, addend: 0x0, symName: __ZNSt3__112__to_addressB8ue170006INS_11__wrap_iterIP7ComplexEEvEEu7__decayIDTclsr19__to_address_helperIT_EE6__callclsr3stdE7declvalIRKS5_EEEEES7_, symObjAddr: 0x4DAC, symBinAddr: 0x100007EA8, symSize: 0x24 }
  - { offsetInCU: 0xCA0A, offset: 0xCA0A, size: 0x8, addend: 0x0, symName: __ZNSt3__122__make_exception_guardB8ue170006INS_29_AllocatorDestroyRangeReverseINS_9allocatorI7ComplexEEPS3_EEEENS_28__exception_guard_exceptionsIT_EES8_, symObjAddr: 0x4E2C, symBinAddr: 0x100007F28, symSize: 0x4C }
  - { offsetInCU: 0xCA40, offset: 0xCA40, size: 0x8, addend: 0x0, symName: __ZNSt3__119__allocator_destroyB8ue170006INS_9allocatorI7ComplexEENS_16reverse_iteratorIPS2_EES6_EEvRT_T0_T1_, symObjAddr: 0x50AC, symBinAddr: 0x1000081A8, symSize: 0x70 }
  - { offsetInCU: 0xCAA3, offset: 0xCAA3, size: 0x8, addend: 0x0, symName: __ZNSt3__123__dispatch_copy_or_moveB8ue170006INS_17_ClassicAlgPolicyENS_11__copy_loopIS1_EENS_14__copy_trivialENS_11__wrap_iterIP7ComplexEES8_S7_EENS_4pairIT2_T4_EESA_T3_SB_, symObjAddr: 0x511C, symBinAddr: 0x100008218, symSize: 0x54 }
  - { offsetInCU: 0xCB21, offset: 0xCB21, size: 0x8, addend: 0x0, symName: __ZNSt3__121__unwrap_and_dispatchB8ue170006INS_10__overloadINS_11__copy_loopINS_17_ClassicAlgPolicyEEENS_14__copy_trivialEEENS_11__wrap_iterIP7ComplexEESA_S9_Li0EEENS_4pairIT0_T2_EESC_T1_SD_, symObjAddr: 0x5170, symBinAddr: 0x10000826C, symSize: 0xCC }
  - { offsetInCU: 0xCC31, offset: 0xCC31, size: 0x8, addend: 0x0, symName: __ZNSt3__19make_pairB8ue170006INS_11__wrap_iterIP7ComplexEES3_EENS_4pairINS_18__unwrap_ref_decayIT_E4typeENS6_IT0_E4typeEEEOS7_OSA_, symObjAddr: 0x5284, symBinAddr: 0x100008380, symSize: 0x38 }
  - { offsetInCU: 0xCC80, offset: 0xCC80, size: 0x8, addend: 0x0, symName: __ZNSt3__114__rewrap_rangeB8ue170006INS_11__wrap_iterIP7ComplexEES3_EET_S5_T0_, symObjAddr: 0x52BC, symBinAddr: 0x1000083B8, symSize: 0x3C }
  - { offsetInCU: 0xCD79, offset: 0xCD79, size: 0x8, addend: 0x0, symName: __ZNSt3__113__rewrap_iterB8ue170006INS_11__wrap_iterIP7ComplexEES3_NS_18__unwrap_iter_implIS4_Lb1EEEEET_S7_T0_, symObjAddr: 0x5368, symBinAddr: 0x100008464, symSize: 0x60 }
  - { offsetInCU: 0xCDCE, offset: 0xCDCE, size: 0x8, addend: 0x0, symName: __ZNSt3__110__distanceB8ue170006INS_11__wrap_iterIP7ComplexEEEENS_15iterator_traitsIT_E15difference_typeES6_S6_NS_26random_access_iterator_tagE, symObjAddr: 0x551C, symBinAddr: 0x100008618, symSize: 0x30 }
  - { offsetInCU: 0xCE1B, offset: 0xCE1B, size: 0x8, addend: 0x0, symName: __ZNSt3__1miB8ue170006IP7ComplexS2_EENS_11__wrap_iterIT_E15difference_typeERKS5_RKNS3_IT0_EE, symObjAddr: 0x554C, symBinAddr: 0x100008648, symSize: 0x48 }
  - { offsetInCU: 0xCE67, offset: 0xCE67, size: 0x8, addend: 0x0, symName: __ZNSt3__1neB8ue170006IPK7ComplexEEbRKNS_11__wrap_iterIT_EES8_, symObjAddr: 0x5594, symBinAddr: 0x100008690, symSize: 0x34 }
  - { offsetInCU: 0xCEAA, offset: 0xCEAA, size: 0x8, addend: 0x0, symName: __ZNSt3__1miB8ue170006IPK7ComplexS3_EENS_11__wrap_iterIT_E15difference_typeERKS6_RKNS4_IT0_EE, symObjAddr: 0x55C8, symBinAddr: 0x1000086C4, symSize: 0x48 }
  - { offsetInCU: 0xCEF6, offset: 0xCEF6, size: 0x8, addend: 0x0, symName: __ZNSt3__1eqB8ue170006IPK7ComplexEEbRKNS_11__wrap_iterIT_EES8_, symObjAddr: 0x5610, symBinAddr: 0x10000870C, symSize: 0x48 }
  - { offsetInCU: 0xCF39, offset: 0xCF39, size: 0x8, addend: 0x0, symName: __ZNSt3__112__to_addressB8ue170006IPN9BPlusTree4NodeEEEPT_S5_, symObjAddr: 0x58C8, symBinAddr: 0x1000089C4, symSize: 0x14 }
  - { offsetInCU: 0xCF6E, offset: 0xCF6E, size: 0x8, addend: 0x0, symName: __ZNSt3__119__allocate_at_leastB8ue170006INS_9allocatorIPN9BPlusTree4NodeEEEEENS_19__allocation_resultINS_16allocator_traitsIT_E7pointerEEERS8_m, symObjAddr: 0x5F00, symBinAddr: 0x100008FFC, symSize: 0x40 }
  - { offsetInCU: 0xCFB1, offset: 0xCFB1, size: 0x8, addend: 0x0, symName: __ZNSt3__142__uninitialized_allocator_move_if_noexceptB8ue170006INS_9allocatorIPN9BPlusTree4NodeEEENS_16reverse_iteratorIPS4_EES8_S4_vEET1_RT_T0_SC_S9_, symObjAddr: 0x6198, symBinAddr: 0x100009294, symSize: 0xE8 }
  - { offsetInCU: 0xD02E, offset: 0xD02E, size: 0x8, addend: 0x0, symName: __ZNSt3__14swapB8ue170006IPPN9BPlusTree4NodeEEEvRT_S6_, symObjAddr: 0x62CC, symBinAddr: 0x1000093C8, symSize: 0x3C }
  - { offsetInCU: 0xD07F, offset: 0xD07F, size: 0x8, addend: 0x0, symName: __ZNSt3__1neB8ue170006IPPN9BPlusTree4NodeES4_EEbRKNS_16reverse_iteratorIT_EERKNS5_IT0_EE, symObjAddr: 0x63FC, symBinAddr: 0x1000094F8, symSize: 0x48 }
  - { offsetInCU: 0xD0F0, offset: 0xD0F0, size: 0x8, addend: 0x0, symName: __ZNSt3__114__construct_atB8ue170006IPN9BPlusTree4NodeEJS3_EPS3_EEPT_S6_DpOT0_, symObjAddr: 0x6444, symBinAddr: 0x100009540, symSize: 0x2C }
  - { offsetInCU: 0xD160, offset: 0xD160, size: 0x8, addend: 0x0, symName: __ZNSt3__112__to_addressB8ue170006INS_16reverse_iteratorIPPN9BPlusTree4NodeEEEvEEu7__decayIDTclsr19__to_address_helperIT_EE6__callclsr3stdE7declvalIRKS7_EEEEES9_, symObjAddr: 0x6470, symBinAddr: 0x10000956C, symSize: 0x24 }
  - { offsetInCU: 0xD196, offset: 0xD196, size: 0x8, addend: 0x0, symName: __ZNSt3__14moveB8ue170006INS_16reverse_iteratorIPPN9BPlusTree4NodeEEES6_EET0_T_S8_S7_, symObjAddr: 0x64DC, symBinAddr: 0x1000095D8, symSize: 0x78 }
  - { offsetInCU: 0xD219, offset: 0xD219, size: 0x8, addend: 0x0, symName: __ZNSt3__16__moveB8ue170006INS_17_ClassicAlgPolicyENS_16reverse_iteratorIPPN9BPlusTree4NodeEEES7_S7_EENS_4pairIT0_T2_EES9_T1_SA_, symObjAddr: 0x65C4, symBinAddr: 0x1000096C0, symSize: 0x64 }
  - { offsetInCU: 0xD285, offset: 0xD285, size: 0x8, addend: 0x0, symName: __ZNSt3__123__dispatch_copy_or_moveB8ue170006INS_17_ClassicAlgPolicyENS_11__move_loopIS1_EENS_14__move_trivialENS_16reverse_iteratorIPPN9BPlusTree4NodeEEESA_SA_EENS_4pairIT2_T4_EESC_T3_SD_, symObjAddr: 0x6628, symBinAddr: 0x100009724, symSize: 0x64 }
  - { offsetInCU: 0xD303, offset: 0xD303, size: 0x8, addend: 0x0, symName: __ZNSt3__121__unwrap_and_dispatchB8ue170006INS_10__overloadINS_11__move_loopINS_17_ClassicAlgPolicyEEENS_14__move_trivialEEENS_16reverse_iteratorIPPN9BPlusTree4NodeEEESC_SC_Li0EEENS_4pairIT0_T2_EESE_T1_SF_, symObjAddr: 0x668C, symBinAddr: 0x100009788, symSize: 0x12C }
  - { offsetInCU: 0xD393, offset: 0xD393, size: 0x8, addend: 0x0, symName: __ZNSt3__114__unwrap_rangeB8ue170006INS_16reverse_iteratorIPPN9BPlusTree4NodeEEES6_EENS_4pairIT0_S8_EET_SA_, symObjAddr: 0x67B8, symBinAddr: 0x1000098B4, symSize: 0x84 }
  - { offsetInCU: 0xD48C, offset: 0xD48C, size: 0x8, addend: 0x0, symName: __ZNSt3__113__unwrap_iterB8ue170006INS_16reverse_iteratorIPPN9BPlusTree4NodeEEENS_18__unwrap_iter_implIS6_Lb0EEELi0EEEDTclsrT0_8__unwrapclsr3stdE7declvalIT_EEEESA_, symObjAddr: 0x68DC, symBinAddr: 0x1000099D8, symSize: 0x44 }
  - { offsetInCU: 0xD4D0, offset: 0xD4D0, size: 0x8, addend: 0x0, symName: __ZNSt3__19make_pairB8ue170006INS_16reverse_iteratorIPPN9BPlusTree4NodeEEES6_EENS_4pairINS_18__unwrap_ref_decayIT_E4typeENS8_IT0_E4typeEEEOS9_OSC_, symObjAddr: 0x6920, symBinAddr: 0x100009A1C, symSize: 0x38 }
  - { offsetInCU: 0xD51F, offset: 0xD51F, size: 0x8, addend: 0x0, symName: __ZNSt3__114__rewrap_rangeB8ue170006INS_16reverse_iteratorIPPN9BPlusTree4NodeEEES6_EET_S7_T0_, symObjAddr: 0x6958, symBinAddr: 0x100009A54, symSize: 0x5C }
  - { offsetInCU: 0xD56B, offset: 0xD56B, size: 0x8, addend: 0x0, symName: __ZNSt3__113__rewrap_iterB8ue170006INS_16reverse_iteratorIPPN9BPlusTree4NodeEEES6_NS_18__unwrap_iter_implIS6_Lb0EEEEET_S9_T0_, symObjAddr: 0x69B4, symBinAddr: 0x100009AB0, symSize: 0x88 }
  - { offsetInCU: 0xD62C, offset: 0xD62C, size: 0x8, addend: 0x0, symName: __ZNSt3__1miB8ue170006IPKPN9BPlusTree4NodeEPS3_EENS_11__wrap_iterIT_E15difference_typeERKS9_RKNS7_IT0_EE, symObjAddr: 0x7578, symBinAddr: 0x10000A674, symSize: 0x48 }
  - { offsetInCU: 0xD6AB, offset: 0xD6AB, size: 0x8, addend: 0x0, symName: __ZNSt3__113move_backwardB8ue170006IPPN9BPlusTree4NodeES4_EET0_T_S6_S5_, symObjAddr: 0x7B50, symBinAddr: 0x10000AC4C, symSize: 0x40 }
  - { offsetInCU: 0xD705, offset: 0xD705, size: 0x8, addend: 0x0, symName: __ZNSt3__115__move_backwardB8ue170006INS_17_ClassicAlgPolicyEPPN9BPlusTree4NodeES5_S5_EENS_4pairIT0_T2_EES7_T1_S8_, symObjAddr: 0x7BB8, symBinAddr: 0x10000ACB4, symSize: 0x44 }
  - { offsetInCU: 0xD771, offset: 0xD771, size: 0x8, addend: 0x0, symName: __ZNSt3__123__dispatch_copy_or_moveB8ue170006INS_17_ClassicAlgPolicyENS_20__move_backward_loopIS1_EENS_23__move_backward_trivialEPPN9BPlusTree4NodeES8_S8_EENS_4pairIT2_T4_EESA_T3_SB_, symObjAddr: 0x7BFC, symBinAddr: 0x10000ACF8, symSize: 0x44 }
  - { offsetInCU: 0xD7EF, offset: 0xD7EF, size: 0x8, addend: 0x0, symName: __ZNSt3__121__unwrap_and_dispatchB8ue170006INS_10__overloadINS_20__move_backward_loopINS_17_ClassicAlgPolicyEEENS_23__move_backward_trivialEEEPPN9BPlusTree4NodeESA_SA_Li0EEENS_4pairIT0_T2_EESC_T1_SD_, symObjAddr: 0x7C40, symBinAddr: 0x10000AD3C, symSize: 0xB4 }
  - { offsetInCU: 0xD87D, offset: 0xD87D, size: 0x8, addend: 0x0, symName: __ZNSt3__114__unwrap_rangeB8ue170006IPPN9BPlusTree4NodeES4_EENS_4pairIT0_S6_EET_S8_, symObjAddr: 0x7CF4, symBinAddr: 0x10000ADF0, symSize: 0x60 }
  - { offsetInCU: 0xD976, offset: 0xD976, size: 0x8, addend: 0x0, symName: __ZNSt3__113__unwrap_iterB8ue170006IPPN9BPlusTree4NodeENS_18__unwrap_iter_implIS4_Lb1EEELi0EEEDTclsrT0_8__unwrapclsr3stdE7declvalIT_EEEES8_, symObjAddr: 0x7D9C, symBinAddr: 0x10000AE98, symSize: 0x24 }
  - { offsetInCU: 0xD9BA, offset: 0xD9BA, size: 0x8, addend: 0x0, symName: __ZNSt3__19make_pairB8ue170006IPPN9BPlusTree4NodeES4_EENS_4pairINS_18__unwrap_ref_decayIT_E4typeENS6_IT0_E4typeEEEOS7_OSA_, symObjAddr: 0x7DC0, symBinAddr: 0x10000AEBC, symSize: 0x38 }
  - { offsetInCU: 0xDA09, offset: 0xDA09, size: 0x8, addend: 0x0, symName: __ZNSt3__114__rewrap_rangeB8ue170006IPPN9BPlusTree4NodeES4_EET_S5_T0_, symObjAddr: 0x7DF8, symBinAddr: 0x10000AEF4, symSize: 0x2C }
  - { offsetInCU: 0xDA55, offset: 0xDA55, size: 0x8, addend: 0x0, symName: __ZNSt3__113__rewrap_iterB8ue170006IPPN9BPlusTree4NodeES4_NS_18__unwrap_iter_implIS4_Lb1EEEEET_S7_T0_, symObjAddr: 0x7E24, symBinAddr: 0x10000AF20, symSize: 0x50 }
  - { offsetInCU: 0xDAAA, offset: 0xDAAA, size: 0x8, addend: 0x0, symName: __ZNSt3__128__copy_backward_trivial_implB8ue170006IPN9BPlusTree4NodeES3_EENS_4pairIPT_PT0_EES6_S6_S8_, symObjAddr: 0x7E74, symBinAddr: 0x10000AF70, symSize: 0x90 }
  - { offsetInCU: 0xDB12, offset: 0xDB12, size: 0x8, addend: 0x0, symName: __ZNSt3__119__constexpr_memmoveB8ue170006IPN9BPlusTree4NodeES3_Li0EEEPT_S5_PT0_NS_15__element_countE, symObjAddr: 0x7F04, symBinAddr: 0x10000B000, symSize: 0xA0 }
  - { offsetInCU: 0xDB80, offset: 0xDB80, size: 0x8, addend: 0x0, symName: __ZNSt3__19make_pairB8ue170006IRPPN9BPlusTree4NodeES5_EENS_4pairINS_18__unwrap_ref_decayIT_E4typeENS7_IT0_E4typeEEEOS8_OSB_, symObjAddr: 0x7FA4, symBinAddr: 0x10000B0A0, symSize: 0x38 }
  - { offsetInCU: 0xDC22, offset: 0xDC22, size: 0x8, addend: 0x0, symName: __ZNSt3__14moveB8ue170006IPPN9BPlusTree4NodeES4_EET0_T_S6_S5_, symObjAddr: 0x80C0, symBinAddr: 0x10000B1BC, symSize: 0x40 }
  - { offsetInCU: 0xDC7C, offset: 0xDC7C, size: 0x8, addend: 0x0, symName: __ZNSt3__16__moveB8ue170006INS_17_ClassicAlgPolicyEPPN9BPlusTree4NodeES5_S5_EENS_4pairIT0_T2_EES7_T1_S8_, symObjAddr: 0x8194, symBinAddr: 0x10000B290, symSize: 0x44 }
  - { offsetInCU: 0xDCE8, offset: 0xDCE8, size: 0x8, addend: 0x0, symName: __ZNSt3__123__dispatch_copy_or_moveB8ue170006INS_17_ClassicAlgPolicyENS_11__move_loopIS1_EENS_14__move_trivialEPPN9BPlusTree4NodeES8_S8_EENS_4pairIT2_T4_EESA_T3_SB_, symObjAddr: 0x81D8, symBinAddr: 0x10000B2D4, symSize: 0x44 }
  - { offsetInCU: 0xDD66, offset: 0xDD66, size: 0x8, addend: 0x0, symName: __ZNSt3__121__unwrap_and_dispatchB8ue170006INS_10__overloadINS_11__move_loopINS_17_ClassicAlgPolicyEEENS_14__move_trivialEEEPPN9BPlusTree4NodeESA_SA_Li0EEENS_4pairIT0_T2_EESC_T1_SD_, symObjAddr: 0x821C, symBinAddr: 0x10000B318, symSize: 0xB4 }
  - { offsetInCU: 0xDDF4, offset: 0xDDF4, size: 0x8, addend: 0x0, symName: __ZNSt3__119__copy_trivial_implB8ue170006IPN9BPlusTree4NodeES3_EENS_4pairIPT_PT0_EES6_S6_S8_, symObjAddr: 0x8318, symBinAddr: 0x10000B414, symSize: 0x80 }
  - { offsetInCU: 0xDE5C, offset: 0xDE5C, size: 0x8, addend: 0x0, symName: __ZNSt3__19make_pairB8ue170006IRPPN9BPlusTree4NodeES4_EENS_4pairINS_18__unwrap_ref_decayIT_E4typeENS7_IT0_E4typeEEEOS8_OSB_, symObjAddr: 0x8398, symBinAddr: 0x10000B494, symSize: 0x38 }
  - { offsetInCU: 0xDEAB, offset: 0xDEAB, size: 0x8, addend: 0x0, symName: __ZNSt3__18distanceB8ue170006INS_13move_iteratorIPPN9BPlusTree4NodeEEEEENS_15iterator_traitsIT_E15difference_typeES8_S8_, symObjAddr: 0x84B4, symBinAddr: 0x10000B5B0, symSize: 0x3C }
  - { offsetInCU: 0xDEEE, offset: 0xDEEE, size: 0x8, addend: 0x0, symName: __ZNSt3__110__distanceB8ue170006INS_13move_iteratorIPPN9BPlusTree4NodeEEEEENS_15iterator_traitsIT_E15difference_typeES8_S8_NS_26random_access_iterator_tagE, symObjAddr: 0x85F4, symBinAddr: 0x10000B6F0, symSize: 0x30 }
  - { offsetInCU: 0xDF3B, offset: 0xDF3B, size: 0x8, addend: 0x0, symName: __ZNSt3__1miB8ue170006IPPN9BPlusTree4NodeES4_EENS_13move_iteratorIT_E15difference_typeERKS7_RKNS5_IT0_EE, symObjAddr: 0x8624, symBinAddr: 0x10000B720, symSize: 0x48 }
  - { offsetInCU: 0xDF8A, offset: 0xDF8A, size: 0x8, addend: 0x0, symName: __ZNSt3__142__uninitialized_allocator_move_if_noexceptB8ue170006INS_9allocatorIPN9BPlusTree4NodeEEEPS4_S6_S4_vEET1_RT_T0_SA_S7_, symObjAddr: 0x86A4, symBinAddr: 0x10000B7A0, symSize: 0xA4 }
  - { offsetInCU: 0xE006, offset: 0xE006, size: 0x8, addend: 0x0, symName: __ZNSt3__18distanceB8ue170006INS_11__wrap_iterIPPN9BPlusTree4NodeEEEEENS_15iterator_traitsIT_E15difference_typeES8_S8_, symObjAddr: 0x8B04, symBinAddr: 0x10000BC00, symSize: 0x3C }
  - { offsetInCU: 0xE049, offset: 0xE049, size: 0x8, addend: 0x0, symName: __ZNSt3__14nextB8ue170006INS_11__wrap_iterIPPN9BPlusTree4NodeEEEEENS_9enable_ifIXsr29__has_input_iterator_categoryIT_EE5valueES8_E4typeES8_NS_15iterator_traitsIS8_E15difference_typeE, symObjAddr: 0x8B40, symBinAddr: 0x10000BC3C, symSize: 0x3C }
  - { offsetInCU: 0xE08C, offset: 0xE08C, size: 0x8, addend: 0x0, symName: __ZNSt3__14copyB8ue170006INS_11__wrap_iterIPPN9BPlusTree4NodeEEES5_EET0_T_S8_S7_, symObjAddr: 0x8B7C, symBinAddr: 0x10000BC78, symSize: 0x50 }
  - { offsetInCU: 0xE0E6, offset: 0xE0E6, size: 0x8, addend: 0x0, symName: __ZNSt3__16__copyB8ue170006INS_17_ClassicAlgPolicyENS_11__wrap_iterIPPN9BPlusTree4NodeEEES7_S6_EENS_4pairIT0_T2_EES9_T1_SA_, symObjAddr: 0x8C70, symBinAddr: 0x10000BD6C, symSize: 0x54 }
  - { offsetInCU: 0xE152, offset: 0xE152, size: 0x8, addend: 0x0, symName: __ZNSt3__19__advanceB8ue170006INS_11__wrap_iterIPPN9BPlusTree4NodeEEEEEvRT_NS_15iterator_traitsIS7_E15difference_typeENS_26random_access_iterator_tagE, symObjAddr: 0x8E88, symBinAddr: 0x10000BF84, symSize: 0x2C }
  - { offsetInCU: 0xE19B, offset: 0xE19B, size: 0x8, addend: 0x0, symName: __ZNSt3__130__uninitialized_allocator_copyB8ue170006INS_9allocatorIPN9BPlusTree4NodeEEENS_11__wrap_iterIPS4_EES8_S7_EET2_RT_T0_T1_S9_, symObjAddr: 0x8EB4, symBinAddr: 0x10000BFB0, symSize: 0x90 }
  - { offsetInCU: 0xE238, offset: 0xE238, size: 0x8, addend: 0x0, symName: __ZNSt3__114__unwrap_rangeB8ue170006INS_11__wrap_iterIPPN9BPlusTree4NodeEEES5_EENS_4pairIT0_S8_EET_SA_, symObjAddr: 0x8F44, symBinAddr: 0x10000C040, symSize: 0x70 }
  - { offsetInCU: 0xE284, offset: 0xE284, size: 0x8, addend: 0x0, symName: __ZNSt3__135__uninitialized_allocator_copy_implB8ue170006INS_9allocatorIPN9BPlusTree4NodeEEEPS4_S6_S6_EET2_RT_T0_T1_S7_, symObjAddr: 0x8FB4, symBinAddr: 0x10000C0B0, symSize: 0xFC }
  - { offsetInCU: 0xE322, offset: 0xE322, size: 0x8, addend: 0x0, symName: __ZNSt3__113__unwrap_iterB8ue170006INS_11__wrap_iterIPPN9BPlusTree4NodeEEENS_18__unwrap_iter_implIS6_Lb1EEELi0EEEDTclsrT0_8__unwrapclsr3stdE7declvalIT_EEEESA_, symObjAddr: 0x90B0, symBinAddr: 0x10000C1AC, symSize: 0x2C }
  - { offsetInCU: 0xE3B9, offset: 0xE3B9, size: 0x8, addend: 0x0, symName: __ZNSt3__112__to_addressB8ue170006INS_11__wrap_iterIPPN9BPlusTree4NodeEEEvEEu7__decayIDTclsr19__to_address_helperIT_EE6__callclsr3stdE7declvalIRKS7_EEEEES9_, symObjAddr: 0x9104, symBinAddr: 0x10000C200, symSize: 0x24 }
  - { offsetInCU: 0xE494, offset: 0xE494, size: 0x8, addend: 0x0, symName: __ZNSt3__122__make_exception_guardB8ue170006INS_29_AllocatorDestroyRangeReverseINS_9allocatorIPN9BPlusTree4NodeEEEPS5_EEEENS_28__exception_guard_exceptionsIT_EESA_, symObjAddr: 0x9184, symBinAddr: 0x10000C280, symSize: 0x4C }
  - { offsetInCU: 0xE4CA, offset: 0xE4CA, size: 0x8, addend: 0x0, symName: __ZNSt3__119__allocator_destroyB8ue170006INS_9allocatorIPN9BPlusTree4NodeEEENS_16reverse_iteratorIPS4_EES8_EEvRT_T0_T1_, symObjAddr: 0x9404, symBinAddr: 0x10000C500, symSize: 0x70 }
  - { offsetInCU: 0xE52D, offset: 0xE52D, size: 0x8, addend: 0x0, symName: __ZNSt3__123__dispatch_copy_or_moveB8ue170006INS_17_ClassicAlgPolicyENS_11__copy_loopIS1_EENS_14__copy_trivialENS_11__wrap_iterIPPN9BPlusTree4NodeEEESA_S9_EENS_4pairIT2_T4_EESC_T3_SD_, symObjAddr: 0x9474, symBinAddr: 0x10000C570, symSize: 0x54 }
  - { offsetInCU: 0xE5AB, offset: 0xE5AB, size: 0x8, addend: 0x0, symName: __ZNSt3__121__unwrap_and_dispatchB8ue170006INS_10__overloadINS_11__copy_loopINS_17_ClassicAlgPolicyEEENS_14__copy_trivialEEENS_11__wrap_iterIPPN9BPlusTree4NodeEEESC_SB_Li0EEENS_4pairIT0_T2_EESE_T1_SF_, symObjAddr: 0x94C8, symBinAddr: 0x10000C5C4, symSize: 0xCC }
  - { offsetInCU: 0xE639, offset: 0xE639, size: 0x8, addend: 0x0, symName: __ZNSt3__19make_pairB8ue170006INS_11__wrap_iterIPPN9BPlusTree4NodeEEES5_EENS_4pairINS_18__unwrap_ref_decayIT_E4typeENS8_IT0_E4typeEEEOS9_OSC_, symObjAddr: 0x95DC, symBinAddr: 0x10000C6D8, symSize: 0x38 }
  - { offsetInCU: 0xE688, offset: 0xE688, size: 0x8, addend: 0x0, symName: __ZNSt3__114__rewrap_rangeB8ue170006INS_11__wrap_iterIPPN9BPlusTree4NodeEEES5_EET_S7_T0_, symObjAddr: 0x9614, symBinAddr: 0x10000C710, symSize: 0x3C }
  - { offsetInCU: 0xE781, offset: 0xE781, size: 0x8, addend: 0x0, symName: __ZNSt3__113__rewrap_iterB8ue170006INS_11__wrap_iterIPPN9BPlusTree4NodeEEES5_NS_18__unwrap_iter_implIS6_Lb1EEEEET_S9_T0_, symObjAddr: 0x96C0, symBinAddr: 0x10000C7BC, symSize: 0x60 }
  - { offsetInCU: 0xE7D6, offset: 0xE7D6, size: 0x8, addend: 0x0, symName: __ZNSt3__110__distanceB8ue170006INS_11__wrap_iterIPPN9BPlusTree4NodeEEEEENS_15iterator_traitsIT_E15difference_typeES8_S8_NS_26random_access_iterator_tagE, symObjAddr: 0x993C, symBinAddr: 0x10000CA38, symSize: 0x30 }
  - { offsetInCU: 0xE823, offset: 0xE823, size: 0x8, addend: 0x0, symName: __ZNSt3__1miB8ue170006IPPN9BPlusTree4NodeES4_EENS_11__wrap_iterIT_E15difference_typeERKS7_RKNS5_IT0_EE, symObjAddr: 0x996C, symBinAddr: 0x10000CA68, symSize: 0x48 }
  - { offsetInCU: 0xE86F, offset: 0xE86F, size: 0x8, addend: 0x0, symName: __ZNSt3__1neB8ue170006IPKPN9BPlusTree4NodeEEEbRKNS_11__wrap_iterIT_EESA_, symObjAddr: 0x99B4, symBinAddr: 0x10000CAB0, symSize: 0x34 }
  - { offsetInCU: 0xE8B2, offset: 0xE8B2, size: 0x8, addend: 0x0, symName: __ZNSt3__1miB8ue170006IPKPN9BPlusTree4NodeES5_EENS_11__wrap_iterIT_E15difference_typeERKS8_RKNS6_IT0_EE, symObjAddr: 0x99E8, symBinAddr: 0x10000CAE4, symSize: 0x48 }
  - { offsetInCU: 0xE8FE, offset: 0xE8FE, size: 0x8, addend: 0x0, symName: __ZNSt3__1eqB8ue170006IPKPN9BPlusTree4NodeEEEbRKNS_11__wrap_iterIT_EESA_, symObjAddr: 0x9A30, symBinAddr: 0x10000CB2C, symSize: 0x48 }
  - { offsetInCU: 0xEAF0, offset: 0xEAF0, size: 0x8, addend: 0x0, symName: __ZNSt3__1neB8ue170006IP7ComplexEEbRKNS_11__wrap_iterIT_EES7_, symObjAddr: 0x9B90, symBinAddr: 0x10000CC8C, symSize: 0x34 }
  - { offsetInCU: 0xEB33, offset: 0xEB33, size: 0x8, addend: 0x0, symName: __ZNSt3__1neB8ue170006IPPN9BPlusTree4NodeEEEbRKNS_11__wrap_iterIT_EES9_, symObjAddr: 0x9CAC, symBinAddr: 0x10000CDA8, symSize: 0x34 }
  - { offsetInCU: 0xEB76, offset: 0xEB76, size: 0x8, addend: 0x0, symName: __ZNSt3__112__to_addressB8ue170006IPPN9BPlusTree4NodeEEEPT_S6_, symObjAddr: 0xAA10, symBinAddr: 0x10000DB0C, symSize: 0x14 }
  - { offsetInCU: 0xEF80, offset: 0xEF80, size: 0x8, addend: 0x0, symName: __ZNSt3__14swapB8ue170006IPPPN9BPlusTree4NodeEEEvRT_S7_, symObjAddr: 0xC0E0, symBinAddr: 0x10000F1DC, symSize: 0x3C }
  - { offsetInCU: 0xEFD1, offset: 0xEFD1, size: 0x8, addend: 0x0, symName: __ZNSt3__14moveB8ue170006IPPPN9BPlusTree4NodeES5_EET0_T_S7_S6_, symObjAddr: 0xC210, symBinAddr: 0x10000F30C, symSize: 0x40 }
  - { offsetInCU: 0xF02B, offset: 0xF02B, size: 0x8, addend: 0x0, symName: __ZNSt3__16__moveB8ue170006INS_17_ClassicAlgPolicyEPPPN9BPlusTree4NodeES6_S6_EENS_4pairIT0_T2_EES8_T1_S9_, symObjAddr: 0xC318, symBinAddr: 0x10000F414, symSize: 0x44 }
  - { offsetInCU: 0xF097, offset: 0xF097, size: 0x8, addend: 0x0, symName: __ZNSt3__123__dispatch_copy_or_moveB8ue170006INS_17_ClassicAlgPolicyENS_11__move_loopIS1_EENS_14__move_trivialEPPPN9BPlusTree4NodeES9_S9_EENS_4pairIT2_T4_EESB_T3_SC_, symObjAddr: 0xC35C, symBinAddr: 0x10000F458, symSize: 0x44 }
  - { offsetInCU: 0xF115, offset: 0xF115, size: 0x8, addend: 0x0, symName: __ZNSt3__121__unwrap_and_dispatchB8ue170006INS_10__overloadINS_11__move_loopINS_17_ClassicAlgPolicyEEENS_14__move_trivialEEEPPPN9BPlusTree4NodeESB_SB_Li0EEENS_4pairIT0_T2_EESD_T1_SE_, symObjAddr: 0xC3A0, symBinAddr: 0x10000F49C, symSize: 0xB4 }
  - { offsetInCU: 0xF1A3, offset: 0xF1A3, size: 0x8, addend: 0x0, symName: __ZNSt3__114__unwrap_rangeB8ue170006IPPPN9BPlusTree4NodeES5_EENS_4pairIT0_S7_EET_S9_, symObjAddr: 0xC454, symBinAddr: 0x10000F550, symSize: 0x60 }
  - { offsetInCU: 0xF29C, offset: 0xF29C, size: 0x8, addend: 0x0, symName: __ZNSt3__113__unwrap_iterB8ue170006IPPPN9BPlusTree4NodeENS_18__unwrap_iter_implIS5_Lb1EEELi0EEEDTclsrT0_8__unwrapclsr3stdE7declvalIT_EEEES9_, symObjAddr: 0xC4FC, symBinAddr: 0x10000F5F8, symSize: 0x24 }
  - { offsetInCU: 0xF2E0, offset: 0xF2E0, size: 0x8, addend: 0x0, symName: __ZNSt3__19make_pairB8ue170006IPPPN9BPlusTree4NodeES5_EENS_4pairINS_18__unwrap_ref_decayIT_E4typeENS7_IT0_E4typeEEEOS8_OSB_, symObjAddr: 0xC520, symBinAddr: 0x10000F61C, symSize: 0x38 }
  - { offsetInCU: 0xF32F, offset: 0xF32F, size: 0x8, addend: 0x0, symName: __ZNSt3__114__rewrap_rangeB8ue170006IPPPN9BPlusTree4NodeES5_EET_S6_T0_, symObjAddr: 0xC558, symBinAddr: 0x10000F654, symSize: 0x2C }
  - { offsetInCU: 0xF37B, offset: 0xF37B, size: 0x8, addend: 0x0, symName: __ZNSt3__113__rewrap_iterB8ue170006IPPPN9BPlusTree4NodeES5_NS_18__unwrap_iter_implIS5_Lb1EEEEET_S8_T0_, symObjAddr: 0xC584, symBinAddr: 0x10000F680, symSize: 0x50 }
  - { offsetInCU: 0xF3D0, offset: 0xF3D0, size: 0x8, addend: 0x0, symName: __ZNSt3__119__copy_trivial_implB8ue170006IPPN9BPlusTree4NodeES4_EENS_4pairIPT_PT0_EES7_S7_S9_, symObjAddr: 0xC5D4, symBinAddr: 0x10000F6D0, symSize: 0x80 }
  - { offsetInCU: 0xF438, offset: 0xF438, size: 0x8, addend: 0x0, symName: __ZNSt3__119__constexpr_memmoveB8ue170006IPPN9BPlusTree4NodeES4_Li0EEEPT_S6_PT0_NS_15__element_countE, symObjAddr: 0xC654, symBinAddr: 0x10000F750, symSize: 0xA0 }
  - { offsetInCU: 0xF4A6, offset: 0xF4A6, size: 0x8, addend: 0x0, symName: __ZNSt3__19make_pairB8ue170006IRPPPN9BPlusTree4NodeES5_EENS_4pairINS_18__unwrap_ref_decayIT_E4typeENS8_IT0_E4typeEEEOS9_OSC_, symObjAddr: 0xC6F4, symBinAddr: 0x10000F7F0, symSize: 0x38 }
  - { offsetInCU: 0xF548, offset: 0xF548, size: 0x8, addend: 0x0, symName: __ZNSt3__18distanceB8ue170006INS_13move_iteratorIPPPN9BPlusTree4NodeEEEEENS_15iterator_traitsIT_E15difference_typeES9_S9_, symObjAddr: 0xC8F4, symBinAddr: 0x10000F9F0, symSize: 0x3C }
  - { offsetInCU: 0xF58B, offset: 0xF58B, size: 0x8, addend: 0x0, symName: __ZNSt3__110__distanceB8ue170006INS_13move_iteratorIPPPN9BPlusTree4NodeEEEEENS_15iterator_traitsIT_E15difference_typeES9_S9_NS_26random_access_iterator_tagE, symObjAddr: 0xCAF8, symBinAddr: 0x10000FBF4, symSize: 0x30 }
  - { offsetInCU: 0xF5D8, offset: 0xF5D8, size: 0x8, addend: 0x0, symName: __ZNSt3__1miB8ue170006IPPPN9BPlusTree4NodeES5_EENS_13move_iteratorIT_E15difference_typeERKS8_RKNS6_IT0_EE, symObjAddr: 0xCB28, symBinAddr: 0x10000FC24, symSize: 0x48 }
  - { offsetInCU: 0xF627, offset: 0xF627, size: 0x8, addend: 0x0, symName: __ZNSt3__113move_backwardB8ue170006IPPPN9BPlusTree4NodeES5_EET0_T_S7_S6_, symObjAddr: 0xCBD0, symBinAddr: 0x10000FCCC, symSize: 0x40 }
  - { offsetInCU: 0xF681, offset: 0xF681, size: 0x8, addend: 0x0, symName: __ZNSt3__115__move_backwardB8ue170006INS_17_ClassicAlgPolicyEPPPN9BPlusTree4NodeES6_S6_EENS_4pairIT0_T2_EES8_T1_S9_, symObjAddr: 0xCC10, symBinAddr: 0x10000FD0C, symSize: 0x44 }
  - { offsetInCU: 0xF6ED, offset: 0xF6ED, size: 0x8, addend: 0x0, symName: __ZNSt3__123__dispatch_copy_or_moveB8ue170006INS_17_ClassicAlgPolicyENS_20__move_backward_loopIS1_EENS_23__move_backward_trivialEPPPN9BPlusTree4NodeES9_S9_EENS_4pairIT2_T4_EESB_T3_SC_, symObjAddr: 0xCC54, symBinAddr: 0x10000FD50, symSize: 0x44 }
  - { offsetInCU: 0xF76B, offset: 0xF76B, size: 0x8, addend: 0x0, symName: __ZNSt3__121__unwrap_and_dispatchB8ue170006INS_10__overloadINS_20__move_backward_loopINS_17_ClassicAlgPolicyEEENS_23__move_backward_trivialEEEPPPN9BPlusTree4NodeESB_SB_Li0EEENS_4pairIT0_T2_EESD_T1_SE_, symObjAddr: 0xCC98, symBinAddr: 0x10000FD94, symSize: 0xB4 }
  - { offsetInCU: 0xF7F9, offset: 0xF7F9, size: 0x8, addend: 0x0, symName: __ZNSt3__128__copy_backward_trivial_implB8ue170006IPPN9BPlusTree4NodeES4_EENS_4pairIPT_PT0_EES7_S7_S9_, symObjAddr: 0xCD94, symBinAddr: 0x10000FE90, symSize: 0x90 }
  - { offsetInCU: 0xF861, offset: 0xF861, size: 0x8, addend: 0x0, symName: __ZNSt3__19make_pairB8ue170006IRPPPN9BPlusTree4NodeES6_EENS_4pairINS_18__unwrap_ref_decayIT_E4typeENS8_IT0_E4typeEEEOS9_OSC_, symObjAddr: 0xCE24, symBinAddr: 0x10000FF20, symSize: 0x38 }
  - { offsetInCU: 0xF8B0, offset: 0xF8B0, size: 0x8, addend: 0x0, symName: __ZNSt3__119__allocate_at_leastB8ue170006INS_9allocatorIPPN9BPlusTree4NodeEEEEENS_19__allocation_resultINS_16allocator_traitsIT_E7pointerEEERS9_m, symObjAddr: 0xCFB0, symBinAddr: 0x1000100AC, symSize: 0x40 }
  - { offsetInCU: 0xF8F3, offset: 0xF8F3, size: 0x8, addend: 0x0, symName: __ZNSt3__1eqB8ue170006IP7ComplexEEbRKNS_11__wrap_iterIT_EES7_, symObjAddr: 0xD98C, symBinAddr: 0x100010A88, symSize: 0x48 }
  - { offsetInCU: 0xF936, offset: 0xF936, size: 0x8, addend: 0x0, symName: __ZNSt3__1eqB8ue170006IPPN9BPlusTree4NodeEEEbRKNS_11__wrap_iterIT_EES9_, symObjAddr: 0xD9D4, symBinAddr: 0x100010AD0, symSize: 0x48 }
  - { offsetInCU: 0xF979, offset: 0xF979, size: 0x8, addend: 0x0, symName: __ZNSt3__1neB8ue170006ERKNS_16__deque_iteratorIPN9BPlusTree4NodeEPS3_RS3_PS4_lLl512EEES9_, symObjAddr: 0xDE2C, symBinAddr: 0x100010F28, symSize: 0x34 }
  - { offsetInCU: 0xF9B6, offset: 0xF9B6, size: 0x8, addend: 0x0, symName: __ZNSt3__1eqB8ue170006ERKNS_16__deque_iteratorIPN9BPlusTree4NodeEPS3_RS3_PS4_lLl512EEES9_, symObjAddr: 0xDED0, symBinAddr: 0x100010FCC, symSize: 0x30 }
  - { offsetInCU: 0xF9F3, offset: 0xF9F3, size: 0x8, addend: 0x0, symName: __ZNSt3__116__pad_and_outputB8ue170006IcNS_11char_traitsIcEEEENS_19ostreambuf_iteratorIT_T0_EES6_PKS4_S8_S8_RNS_8ios_baseES4_, symObjAddr: 0xF22C, symBinAddr: 0x100012328, symSize: 0x248 }
  - { offsetInCU: 0xFAC2, offset: 0xFAC2, size: 0x8, addend: 0x0, symName: __ZNSt3__112__to_addressB8ue170006IKcEEPT_S3_, symObjAddr: 0xF79C, symBinAddr: 0x100012898, symSize: 0x14 }
  - { offsetInCU: 0xFB2A, offset: 0xFB2A, size: 0x8, addend: 0x0, symName: __ZNSt3__19use_facetB8ue170006INS_5ctypeIcEEEERKT_RKNS_6localeE, symObjAddr: 0xFA74, symBinAddr: 0x100012B70, symSize: 0x2C }
  - { offsetInCU: 0xFFF7, offset: 0xFFF7, size: 0x8, addend: 0x0, symName: __ZNSt3__118__constexpr_strlenB8ue170006EPKc, symObjAddr: 0xFB0C, symBinAddr: 0x100012C08, symSize: 0x24 }
  - { offsetInCU: 0x10397, offset: 0x10397, size: 0x8, addend: 0x0, symName: __ZSt28__throw_bad_array_new_lengthB8ue170006v, symObjAddr: 0x2064, symBinAddr: 0x100005160, symSize: 0x34 }
  - { offsetInCU: 0x10DA0, offset: 0x10DA0, size: 0x8, addend: 0x0, symName: __ZNSt3__16vectorI7ComplexNS_9allocatorIS1_EEE26__swap_out_circular_bufferERNS_14__split_bufferIS1_RS3_EE, symObjAddr: 0x1940, symBinAddr: 0x100004A3C, symSize: 0x110 }
  - { offsetInCU: 0x10E10, offset: 0x10E10, size: 0x8, addend: 0x0, symName: __ZNSt3__16vectorI7ComplexNS_9allocatorIS1_EEE26__swap_out_circular_bufferERNS_14__split_bufferIS1_RS3_EEPS1_, symObjAddr: 0x3404, symBinAddr: 0x100006500, symSize: 0x14C }
  - { offsetInCU: 0x10E99, offset: 0x10E99, size: 0x8, addend: 0x0, symName: __ZNSt3__16vectorIPN9BPlusTree4NodeENS_9allocatorIS3_EEE26__swap_out_circular_bufferERNS_14__split_bufferIS3_RS5_EE, symObjAddr: 0x5AEC, symBinAddr: 0x100008BE8, symSize: 0x110 }
  - { offsetInCU: 0x10F09, offset: 0x10F09, size: 0x8, addend: 0x0, symName: __ZNSt3__16vectorIPN9BPlusTree4NodeENS_9allocatorIS3_EEE26__swap_out_circular_bufferERNS_14__split_bufferIS3_RS5_EEPS3_, symObjAddr: 0x7970, symBinAddr: 0x10000AA6C, symSize: 0x14C }
  - { offsetInCU: 0x13466, offset: 0x13466, size: 0x8, addend: 0x0, symName: _main, symObjAddr: 0x0, symBinAddr: 0x1000030FC, symSize: 0x168 }
  - { offsetInCU: 0x13491, offset: 0x13491, size: 0x8, addend: 0x0, symName: __ZN9BPlusTreeC1Ei, symObjAddr: 0x168, symBinAddr: 0x100003264, symSize: 0x34 }
  - { offsetInCU: 0x134C9, offset: 0x134C9, size: 0x8, addend: 0x0, symName: __ZN9BPlusTree6insertERK7Complex, symObjAddr: 0x19C, symBinAddr: 0x100003298, symSize: 0xF4 }
  - { offsetInCU: 0x1351A, offset: 0x1351A, size: 0x8, addend: 0x0, symName: __ZN7ComplexC1Edd, symObjAddr: 0x290, symBinAddr: 0x10000338C, symSize: 0x3C }
  - { offsetInCU: 0x13560, offset: 0x13560, size: 0x8, addend: 0x0, symName: __ZN9BPlusTree9printTreeEv, symObjAddr: 0x2CC, symBinAddr: 0x1000033C8, symSize: 0x274 }
  - { offsetInCU: 0x13686, offset: 0x13686, size: 0x8, addend: 0x0, symName: __ZNSt3__113basic_ostreamIcNS_11char_traitsIcEEElsB8ue170006EPFRS3_S4_E, symObjAddr: 0x588, symBinAddr: 0x100003684, symSize: 0x2C }
  - { offsetInCU: 0x136BA, offset: 0x136BA, size: 0x8, addend: 0x0, symName: __ZN9BPlusTree6removeERK7Complex, symObjAddr: 0x60C, symBinAddr: 0x100003708, symSize: 0x138 }
  - { offsetInCU: 0x13710, offset: 0x13710, size: 0x8, addend: 0x0, symName: __ZN9BPlusTreeC2Ei, symObjAddr: 0x744, symBinAddr: 0x100003840, symSize: 0x24 }
  - { offsetInCU: 0x13748, offset: 0x13748, size: 0x8, addend: 0x0, symName: __ZN9BPlusTree4NodeC1Eb, symObjAddr: 0x768, symBinAddr: 0x100003864, symSize: 0x40 }
  - { offsetInCU: 0x13780, offset: 0x13780, size: 0x8, addend: 0x0, symName: __ZNSt3__16vectorI7ComplexNS_9allocatorIS1_EEE9push_backB8ue170006ERKS1_, symObjAddr: 0x7A8, symBinAddr: 0x1000038A4, symSize: 0x6C }
  - { offsetInCU: 0x137B7, offset: 0x137B7, size: 0x8, addend: 0x0, symName: __ZN9BPlusTree8findLeafEPNS_4NodeERK7Complex, symObjAddr: 0x814, symBinAddr: 0x100003910, symSize: 0xF4 }
  - { offsetInCU: 0x13816, offset: 0x13816, size: 0x8, addend: 0x0, symName: __ZN9BPlusTree14insertIntoLeafEPNS_4NodeERK7Complex, symObjAddr: 0x908, symBinAddr: 0x100003A04, symSize: 0xDC }
  - { offsetInCU: 0x13866, offset: 0x13866, size: 0x8, addend: 0x0, symName: __ZNKSt3__16vectorI7ComplexNS_9allocatorIS1_EEE4sizeB8ue170006Ev, symObjAddr: 0x9E4, symBinAddr: 0x100003AE0, symSize: 0x28 }
  - { offsetInCU: 0x1388C, offset: 0x1388C, size: 0x8, addend: 0x0, symName: __ZN9BPlusTree9splitLeafEPNS_4NodeE, symObjAddr: 0xA0C, symBinAddr: 0x100003B08, symSize: 0x234 }
  - { offsetInCU: 0x138F1, offset: 0x138F1, size: 0x8, addend: 0x0, symName: __ZN9BPlusTree4NodeC2Eb, symObjAddr: 0xC40, symBinAddr: 0x100003D3C, symSize: 0x80 }
  - { offsetInCU: 0x13929, offset: 0x13929, size: 0x8, addend: 0x0, symName: __ZNSt3__16vectorI7ComplexNS_9allocatorIS1_EEEC1B8ue170006Ev, symObjAddr: 0xCC0, symBinAddr: 0x100003DBC, symSize: 0x2C }
  - { offsetInCU: 0x13953, offset: 0x13953, size: 0x8, addend: 0x0, symName: __ZNSt3__16vectorIPN9BPlusTree4NodeENS_9allocatorIS3_EEEC1B8ue170006Ev, symObjAddr: 0xCEC, symBinAddr: 0x100003DE8, symSize: 0x2C }
  - { offsetInCU: 0x1397D, offset: 0x1397D, size: 0x8, addend: 0x0, symName: __ZNSt3__16vectorI7ComplexNS_9allocatorIS1_EEED1B8ue170006Ev, symObjAddr: 0xD18, symBinAddr: 0x100003E14, symSize: 0x2C }
  - { offsetInCU: 0x139A7, offset: 0x139A7, size: 0x8, addend: 0x0, symName: __ZNSt3__16vectorI7ComplexNS_9allocatorIS1_EEEC2B8ue170006Ev, symObjAddr: 0xD50, symBinAddr: 0x100003E4C, symSize: 0x44 }
  - { offsetInCU: 0x139DB, offset: 0x139DB, size: 0x8, addend: 0x0, symName: __ZNSt3__117__compressed_pairIP7ComplexNS_9allocatorIS1_EEEC1B8ue170006IDnNS_18__default_init_tagEEEOT_OT0_, symObjAddr: 0xD94, symBinAddr: 0x100003E90, symSize: 0x3C }
  - { offsetInCU: 0x13A33, offset: 0x13A33, size: 0x8, addend: 0x0, symName: __ZNSt3__117__compressed_pairIP7ComplexNS_9allocatorIS1_EEEC2B8ue170006IDnNS_18__default_init_tagEEEOT_OT0_, symObjAddr: 0xDD0, symBinAddr: 0x100003ECC, symSize: 0x40 }
  - { offsetInCU: 0x13A8B, offset: 0x13A8B, size: 0x8, addend: 0x0, symName: __ZNSt3__122__compressed_pair_elemIP7ComplexLi0ELb0EEC2B8ue170006IDnvEEOT_, symObjAddr: 0xE10, symBinAddr: 0x100003F0C, symSize: 0x1C }
  - { offsetInCU: 0x13ACD, offset: 0x13ACD, size: 0x8, addend: 0x0, symName: __ZNSt3__122__compressed_pair_elemINS_9allocatorI7ComplexEELi1ELb1EEC2B8ue170006ENS_18__default_init_tagE, symObjAddr: 0xE2C, symBinAddr: 0x100003F28, symSize: 0x2C }
  - { offsetInCU: 0x13B01, offset: 0x13B01, size: 0x8, addend: 0x0, symName: __ZNSt3__19allocatorI7ComplexEC2B8ue170006Ev, symObjAddr: 0xE58, symBinAddr: 0x100003F54, symSize: 0x2C }
  - { offsetInCU: 0x13B2B, offset: 0x13B2B, size: 0x8, addend: 0x0, symName: __ZNSt3__116__non_trivial_ifILb1ENS_9allocatorI7ComplexEEEC2B8ue170006Ev, symObjAddr: 0xE84, symBinAddr: 0x100003F80, symSize: 0x14 }
  - { offsetInCU: 0x13B55, offset: 0x13B55, size: 0x8, addend: 0x0, symName: __ZNSt3__16vectorIPN9BPlusTree4NodeENS_9allocatorIS3_EEEC2B8ue170006Ev, symObjAddr: 0xE98, symBinAddr: 0x100003F94, symSize: 0x44 }
  - { offsetInCU: 0x13B7F, offset: 0x13B7F, size: 0x8, addend: 0x0, symName: __ZNSt3__117__compressed_pairIPPN9BPlusTree4NodeENS_9allocatorIS3_EEEC1B8ue170006IDnNS_18__default_init_tagEEEOT_OT0_, symObjAddr: 0xEDC, symBinAddr: 0x100003FD8, symSize: 0x3C }
  - { offsetInCU: 0x13BD7, offset: 0x13BD7, size: 0x8, addend: 0x0, symName: __ZNSt3__117__compressed_pairIPPN9BPlusTree4NodeENS_9allocatorIS3_EEEC2B8ue170006IDnNS_18__default_init_tagEEEOT_OT0_, symObjAddr: 0xF18, symBinAddr: 0x100004014, symSize: 0x40 }
  - { offsetInCU: 0x13C2F, offset: 0x13C2F, size: 0x8, addend: 0x0, symName: __ZNSt3__122__compressed_pair_elemIPPN9BPlusTree4NodeELi0ELb0EEC2B8ue170006IDnvEEOT_, symObjAddr: 0xF58, symBinAddr: 0x100004054, symSize: 0x1C }
  - { offsetInCU: 0x13C71, offset: 0x13C71, size: 0x8, addend: 0x0, symName: __ZNSt3__122__compressed_pair_elemINS_9allocatorIPN9BPlusTree4NodeEEELi1ELb1EEC2B8ue170006ENS_18__default_init_tagE, symObjAddr: 0xF74, symBinAddr: 0x100004070, symSize: 0x2C }
  - { offsetInCU: 0x13CA5, offset: 0x13CA5, size: 0x8, addend: 0x0, symName: __ZNSt3__19allocatorIPN9BPlusTree4NodeEEC2B8ue170006Ev, symObjAddr: 0xFA0, symBinAddr: 0x10000409C, symSize: 0x2C }
  - { offsetInCU: 0x13CCF, offset: 0x13CCF, size: 0x8, addend: 0x0, symName: __ZNSt3__116__non_trivial_ifILb1ENS_9allocatorIPN9BPlusTree4NodeEEEEC2B8ue170006Ev, symObjAddr: 0xFCC, symBinAddr: 0x1000040C8, symSize: 0x14 }
  - { offsetInCU: 0x13CF9, offset: 0x13CF9, size: 0x8, addend: 0x0, symName: __ZNSt3__16vectorI7ComplexNS_9allocatorIS1_EEED2B8ue170006Ev, symObjAddr: 0xFE0, symBinAddr: 0x1000040DC, symSize: 0x3C }
  - { offsetInCU: 0x13D23, offset: 0x13D23, size: 0x8, addend: 0x0, symName: __ZNSt3__16vectorI7ComplexNS_9allocatorIS1_EEE16__destroy_vectorC1B8ue170006ERS4_, symObjAddr: 0x101C, symBinAddr: 0x100004118, symSize: 0x34 }
  - { offsetInCU: 0x13D5C, offset: 0x13D5C, size: 0x8, addend: 0x0, symName: __ZNSt3__16vectorI7ComplexNS_9allocatorIS1_EEE16__destroy_vectorclB8ue170006Ev, symObjAddr: 0x1050, symBinAddr: 0x10000414C, symSize: 0x90 }
  - { offsetInCU: 0x13D82, offset: 0x13D82, size: 0x8, addend: 0x0, symName: __ZNSt3__16vectorI7ComplexNS_9allocatorIS1_EEE16__destroy_vectorC2B8ue170006ERS4_, symObjAddr: 0x10E0, symBinAddr: 0x1000041DC, symSize: 0x20 }
  - { offsetInCU: 0x13DBB, offset: 0x13DBB, size: 0x8, addend: 0x0, symName: __ZNSt3__16vectorI7ComplexNS_9allocatorIS1_EEE7__clearB8ue170006Ev, symObjAddr: 0x1100, symBinAddr: 0x1000041FC, symSize: 0x28 }
  - { offsetInCU: 0x13DE1, offset: 0x13DE1, size: 0x8, addend: 0x0, symName: __ZNKSt3__16vectorI7ComplexNS_9allocatorIS1_EEE17__annotate_deleteB8ue170006Ev, symObjAddr: 0x1128, symBinAddr: 0x100004224, symSize: 0xB8 }
  - { offsetInCU: 0x13E07, offset: 0x13E07, size: 0x8, addend: 0x0, symName: __ZNSt3__116allocator_traitsINS_9allocatorI7ComplexEEE10deallocateB8ue170006ERS3_PS2_m, symObjAddr: 0x11E0, symBinAddr: 0x1000042DC, symSize: 0x34 }
  - { offsetInCU: 0x13E49, offset: 0x13E49, size: 0x8, addend: 0x0, symName: __ZNSt3__16vectorI7ComplexNS_9allocatorIS1_EEE7__allocB8ue170006Ev, symObjAddr: 0x1214, symBinAddr: 0x100004310, symSize: 0x28 }
  - { offsetInCU: 0x13E6F, offset: 0x13E6F, size: 0x8, addend: 0x0, symName: __ZNKSt3__16vectorI7ComplexNS_9allocatorIS1_EEE8capacityB8ue170006Ev, symObjAddr: 0x123C, symBinAddr: 0x100004338, symSize: 0x40 }
  - { offsetInCU: 0x13E95, offset: 0x13E95, size: 0x8, addend: 0x0, symName: __ZNSt3__16vectorI7ComplexNS_9allocatorIS1_EEE22__base_destruct_at_endB8ue170006EPS1_, symObjAddr: 0x127C, symBinAddr: 0x100004378, symSize: 0xA0 }
  - { offsetInCU: 0x13ED9, offset: 0x13ED9, size: 0x8, addend: 0x0, symName: __ZNSt3__116allocator_traitsINS_9allocatorI7ComplexEEE7destroyB8ue170006IS2_vEEvRS3_PT_, symObjAddr: 0x131C, symBinAddr: 0x100004418, symSize: 0x2C }
  - { offsetInCU: 0x13F16, offset: 0x13F16, size: 0x8, addend: 0x0, symName: __ZNSt3__19allocatorI7ComplexE7destroyB8ue170006EPS1_, symObjAddr: 0x135C, symBinAddr: 0x100004458, symSize: 0x14 }
  - { offsetInCU: 0x13F4A, offset: 0x13F4A, size: 0x8, addend: 0x0, symName: __ZNKSt3__16vectorI7ComplexNS_9allocatorIS1_EEE31__annotate_contiguous_containerB8ue170006EPKvS6_S6_S6_, symObjAddr: 0x1370, symBinAddr: 0x10000446C, symSize: 0x20 }
  - { offsetInCU: 0x13F9C, offset: 0x13F9C, size: 0x8, addend: 0x0, symName: __ZNKSt3__16vectorI7ComplexNS_9allocatorIS1_EEE4dataB8ue170006Ev, symObjAddr: 0x1390, symBinAddr: 0x10000448C, symSize: 0x28 }
  - { offsetInCU: 0x13FC2, offset: 0x13FC2, size: 0x8, addend: 0x0, symName: __ZNSt3__19allocatorI7ComplexE10deallocateB8ue170006EPS1_m, symObjAddr: 0x13B8, symBinAddr: 0x1000044B4, symSize: 0x70 }
  - { offsetInCU: 0x14004, offset: 0x14004, size: 0x8, addend: 0x0, symName: __ZNSt3__117__compressed_pairIP7ComplexNS_9allocatorIS1_EEE6secondB8ue170006Ev, symObjAddr: 0x14B0, symBinAddr: 0x1000045AC, symSize: 0x24 }
  - { offsetInCU: 0x1402A, offset: 0x1402A, size: 0x8, addend: 0x0, symName: __ZNSt3__122__compressed_pair_elemINS_9allocatorI7ComplexEELi1ELb1EE5__getB8ue170006Ev, symObjAddr: 0x14D4, symBinAddr: 0x1000045D0, symSize: 0x14 }
  - { offsetInCU: 0x14050, offset: 0x14050, size: 0x8, addend: 0x0, symName: __ZNKSt3__16vectorI7ComplexNS_9allocatorIS1_EEE9__end_capB8ue170006Ev, symObjAddr: 0x14E8, symBinAddr: 0x1000045E4, symSize: 0x28 }
  - { offsetInCU: 0x14076, offset: 0x14076, size: 0x8, addend: 0x0, symName: __ZNKSt3__117__compressed_pairIP7ComplexNS_9allocatorIS1_EEE5firstB8ue170006Ev, symObjAddr: 0x1510, symBinAddr: 0x10000460C, symSize: 0x24 }
  - { offsetInCU: 0x1409C, offset: 0x1409C, size: 0x8, addend: 0x0, symName: __ZNKSt3__122__compressed_pair_elemIP7ComplexLi0ELb0EE5__getB8ue170006Ev, symObjAddr: 0x1534, symBinAddr: 0x100004630, symSize: 0x14 }
  - { offsetInCU: 0x140C2, offset: 0x140C2, size: 0x8, addend: 0x0, symName: __ZNSt3__16vectorI7ComplexNS_9allocatorIS1_EEE9__end_capB8ue170006Ev, symObjAddr: 0x1548, symBinAddr: 0x100004644, symSize: 0x28 }
  - { offsetInCU: 0x140E8, offset: 0x140E8, size: 0x8, addend: 0x0, symName: __ZNSt3__16vectorI7ComplexNS_9allocatorIS1_EEE22__construct_one_at_endB8ue170006IJRKS1_EEEvDpOT_, symObjAddr: 0x1570, symBinAddr: 0x10000466C, symSize: 0x98 }
  - { offsetInCU: 0x14137, offset: 0x14137, size: 0x8, addend: 0x0, symName: __ZNSt3__16vectorI7ComplexNS_9allocatorIS1_EEE21__push_back_slow_pathIRKS1_EEvOT_, symObjAddr: 0x1608, symBinAddr: 0x100004704, symSize: 0xE0 }
  - { offsetInCU: 0x14195, offset: 0x14195, size: 0x8, addend: 0x0, symName: __ZNSt3__117__compressed_pairIP7ComplexNS_9allocatorIS1_EEE5firstB8ue170006Ev, symObjAddr: 0x16E8, symBinAddr: 0x1000047E4, symSize: 0x24 }
  - { offsetInCU: 0x141BB, offset: 0x141BB, size: 0x8, addend: 0x0, symName: __ZNSt3__122__compressed_pair_elemIP7ComplexLi0ELb0EE5__getB8ue170006Ev, symObjAddr: 0x170C, symBinAddr: 0x100004808, symSize: 0x14 }
  - { offsetInCU: 0x141FA, offset: 0x141FA, size: 0x8, addend: 0x0, symName: __ZNSt3__16vectorI7ComplexNS_9allocatorIS1_EEE21_ConstructTransactionC1B8ue170006ERS4_m, symObjAddr: 0x1720, symBinAddr: 0x10000481C, symSize: 0x3C }
  - { offsetInCU: 0x14242, offset: 0x14242, size: 0x8, addend: 0x0, symName: __ZNSt3__116allocator_traitsINS_9allocatorI7ComplexEEE9constructB8ue170006IS2_JRKS2_EvEEvRS3_PT_DpOT0_, symObjAddr: 0x175C, symBinAddr: 0x100004858, symSize: 0x34 }
  - { offsetInCU: 0x14299, offset: 0x14299, size: 0x8, addend: 0x0, symName: __ZNSt3__16vectorI7ComplexNS_9allocatorIS1_EEE21_ConstructTransactionD1B8ue170006Ev, symObjAddr: 0x1790, symBinAddr: 0x10000488C, symSize: 0x2C }
  - { offsetInCU: 0x142C3, offset: 0x142C3, size: 0x8, addend: 0x0, symName: __ZNSt3__16vectorI7ComplexNS_9allocatorIS1_EEE21_ConstructTransactionC2B8ue170006ERS4_m, symObjAddr: 0x17BC, symBinAddr: 0x1000048B8, symSize: 0x44 }
  - { offsetInCU: 0x1430B, offset: 0x1430B, size: 0x8, addend: 0x0, symName: __ZNSt3__19allocatorI7ComplexE9constructB8ue170006IS1_JRKS1_EEEvPT_DpOT0_, symObjAddr: 0x1800, symBinAddr: 0x1000048FC, symSize: 0x28 }
  - { offsetInCU: 0x14361, offset: 0x14361, size: 0x8, addend: 0x0, symName: __ZNSt3__16vectorI7ComplexNS_9allocatorIS1_EEE21_ConstructTransactionD2B8ue170006Ev, symObjAddr: 0x1828, symBinAddr: 0x100004924, symSize: 0x20 }
  - { offsetInCU: 0x1438B, offset: 0x1438B, size: 0x8, addend: 0x0, symName: __ZNKSt3__16vectorI7ComplexNS_9allocatorIS1_EEE11__recommendB8ue170006Em, symObjAddr: 0x1848, symBinAddr: 0x100004944, symSize: 0xB4 }
  - { offsetInCU: 0x143E0, offset: 0x143E0, size: 0x8, addend: 0x0, symName: __ZNSt3__114__split_bufferI7ComplexRNS_9allocatorIS1_EEEC1EmmS4_, symObjAddr: 0x18FC, symBinAddr: 0x1000049F8, symSize: 0x44 }
  - { offsetInCU: 0x14436, offset: 0x14436, size: 0x8, addend: 0x0, symName: __ZNSt3__114__split_bufferI7ComplexRNS_9allocatorIS1_EEED1Ev, symObjAddr: 0x1A50, symBinAddr: 0x100004B4C, symSize: 0x2C }
  - { offsetInCU: 0x14462, offset: 0x14462, size: 0x8, addend: 0x0, symName: __ZNKSt3__16vectorI7ComplexNS_9allocatorIS1_EEE8max_sizeEv, symObjAddr: 0x1A7C, symBinAddr: 0x100004B78, symSize: 0x74 }
  - { offsetInCU: 0x1448A, offset: 0x1448A, size: 0x8, addend: 0x0, symName: __ZNKSt3__16vectorI7ComplexNS_9allocatorIS1_EEE20__throw_length_errorB8ue170006Ev, symObjAddr: 0x1AF0, symBinAddr: 0x100004BEC, symSize: 0x1C }
  - { offsetInCU: 0x144BA, offset: 0x144BA, size: 0x8, addend: 0x0, symName: __ZNSt3__116allocator_traitsINS_9allocatorI7ComplexEEE8max_sizeB8ue170006IS3_vEEmRKS3_, symObjAddr: 0x1B64, symBinAddr: 0x100004C60, symSize: 0x24 }
  - { offsetInCU: 0x144E8, offset: 0x144E8, size: 0x8, addend: 0x0, symName: __ZNKSt3__16vectorI7ComplexNS_9allocatorIS1_EEE7__allocB8ue170006Ev, symObjAddr: 0x1B88, symBinAddr: 0x100004C84, symSize: 0x28 }
  - { offsetInCU: 0x1450E, offset: 0x1450E, size: 0x8, addend: 0x0, symName: __ZNSt3__114numeric_limitsIlE3maxB8ue170006Ev, symObjAddr: 0x1BB0, symBinAddr: 0x100004CAC, symSize: 0x14 }
  - { offsetInCU: 0x1452C, offset: 0x1452C, size: 0x8, addend: 0x0, symName: __ZNKSt3__16__lessIvvEclB8ue170006ImmEEbRKT_RKT0_, symObjAddr: 0x1C18, symBinAddr: 0x100004D14, symSize: 0x34 }
  - { offsetInCU: 0x14580, offset: 0x14580, size: 0x8, addend: 0x0, symName: __ZNKSt3__19allocatorI7ComplexE8max_sizeB8ue170006Ev, symObjAddr: 0x1C4C, symBinAddr: 0x100004D48, symSize: 0x14 }
  - { offsetInCU: 0x145A6, offset: 0x145A6, size: 0x8, addend: 0x0, symName: __ZNKSt3__117__compressed_pairIP7ComplexNS_9allocatorIS1_EEE6secondB8ue170006Ev, symObjAddr: 0x1C60, symBinAddr: 0x100004D5C, symSize: 0x24 }
  - { offsetInCU: 0x145CC, offset: 0x145CC, size: 0x8, addend: 0x0, symName: __ZNKSt3__122__compressed_pair_elemINS_9allocatorI7ComplexEELi1ELb1EE5__getB8ue170006Ev, symObjAddr: 0x1C84, symBinAddr: 0x100004D80, symSize: 0x14 }
  - { offsetInCU: 0x145F2, offset: 0x145F2, size: 0x8, addend: 0x0, symName: __ZNSt3__123__libcpp_numeric_limitsIlLb1EE3maxB8ue170006Ev, symObjAddr: 0x1C98, symBinAddr: 0x100004D94, symSize: 0x8 }
  - { offsetInCU: 0x14606, offset: 0x14606, size: 0x8, addend: 0x0, symName: __ZNSt12length_errorC1B8ue170006EPKc, symObjAddr: 0x1D04, symBinAddr: 0x100004E00, symSize: 0x34 }
  - { offsetInCU: 0x1463E, offset: 0x1463E, size: 0x8, addend: 0x0, symName: __ZNSt12length_errorC2B8ue170006EPKc, symObjAddr: 0x1D38, symBinAddr: 0x100004E34, symSize: 0x4C }
  - { offsetInCU: 0x14676, offset: 0x14676, size: 0x8, addend: 0x0, symName: __ZNSt3__114__split_bufferI7ComplexRNS_9allocatorIS1_EEEC2EmmS4_, symObjAddr: 0x1DD8, symBinAddr: 0x100004ED4, symSize: 0xD4 }
  - { offsetInCU: 0x146EA, offset: 0x146EA, size: 0x8, addend: 0x0, symName: __ZNSt3__117__compressed_pairIP7ComplexRNS_9allocatorIS1_EEEC1B8ue170006IDnS5_EEOT_OT0_, symObjAddr: 0x1EAC, symBinAddr: 0x100004FA8, symSize: 0x3C }
  - { offsetInCU: 0x14742, offset: 0x14742, size: 0x8, addend: 0x0, symName: __ZNSt3__114__split_bufferI7ComplexRNS_9allocatorIS1_EEE7__allocB8ue170006Ev, symObjAddr: 0x1F28, symBinAddr: 0x100005024, symSize: 0x28 }
  - { offsetInCU: 0x14768, offset: 0x14768, size: 0x8, addend: 0x0, symName: __ZNSt3__114__split_bufferI7ComplexRNS_9allocatorIS1_EEE9__end_capB8ue170006Ev, symObjAddr: 0x1F50, symBinAddr: 0x10000504C, symSize: 0x28 }
  - { offsetInCU: 0x1478E, offset: 0x1478E, size: 0x8, addend: 0x0, symName: __ZNSt3__117__compressed_pairIP7ComplexRNS_9allocatorIS1_EEEC2B8ue170006IDnS5_EEOT_OT0_, symObjAddr: 0x1F78, symBinAddr: 0x100005074, symSize: 0x48 }
  - { offsetInCU: 0x147E6, offset: 0x147E6, size: 0x8, addend: 0x0, symName: __ZNSt3__122__compressed_pair_elemIRNS_9allocatorI7ComplexEELi1ELb0EEC2B8ue170006IS4_vEEOT_, symObjAddr: 0x1FC0, symBinAddr: 0x1000050BC, symSize: 0x20 }
  - { offsetInCU: 0x14828, offset: 0x14828, size: 0x8, addend: 0x0, symName: __ZNSt3__19allocatorI7ComplexE8allocateB8ue170006Em, symObjAddr: 0x1FE0, symBinAddr: 0x1000050DC, symSize: 0x84 }
  - { offsetInCU: 0x1485C, offset: 0x1485C, size: 0x8, addend: 0x0, symName: __ZNSt3__117__compressed_pairIP7ComplexRNS_9allocatorIS1_EEE6secondB8ue170006Ev, symObjAddr: 0x20E4, symBinAddr: 0x1000051E0, symSize: 0x28 }
  - { offsetInCU: 0x14882, offset: 0x14882, size: 0x8, addend: 0x0, symName: __ZNSt3__122__compressed_pair_elemIRNS_9allocatorI7ComplexEELi1ELb0EE5__getB8ue170006Ev, symObjAddr: 0x210C, symBinAddr: 0x100005208, symSize: 0x18 }
  - { offsetInCU: 0x148A8, offset: 0x148A8, size: 0x8, addend: 0x0, symName: __ZNSt3__117__compressed_pairIP7ComplexRNS_9allocatorIS1_EEE5firstB8ue170006Ev, symObjAddr: 0x2124, symBinAddr: 0x100005220, symSize: 0x24 }
  - { offsetInCU: 0x148CE, offset: 0x148CE, size: 0x8, addend: 0x0, symName: __ZNSt3__116reverse_iteratorIP7ComplexEC1B8ue170006ES2_, symObjAddr: 0x2230, symBinAddr: 0x10000532C, symSize: 0x34 }
  - { offsetInCU: 0x14906, offset: 0x14906, size: 0x8, addend: 0x0, symName: __ZNKSt3__116reverse_iteratorIP7ComplexE4baseB8ue170006Ev, symObjAddr: 0x2264, symBinAddr: 0x100005360, symSize: 0x18 }
  - { offsetInCU: 0x1492C, offset: 0x1492C, size: 0x8, addend: 0x0, symName: __ZNKSt3__16vectorI7ComplexNS_9allocatorIS1_EEE14__annotate_newB8ue170006Em, symObjAddr: 0x22B8, symBinAddr: 0x1000053B4, symSize: 0xAC }
  - { offsetInCU: 0x14961, offset: 0x14961, size: 0x8, addend: 0x0, symName: __ZNKSt3__116reverse_iteratorIP7ComplexEdeB8ue170006Ev, symObjAddr: 0x23FC, symBinAddr: 0x1000054F8, symSize: 0x28 }
  - { offsetInCU: 0x14995, offset: 0x14995, size: 0x8, addend: 0x0, symName: __ZNSt3__116reverse_iteratorIP7ComplexEppB8ue170006Ev, symObjAddr: 0x2424, symBinAddr: 0x100005520, symSize: 0x20 }
  - { offsetInCU: 0x149C0, offset: 0x149C0, size: 0x8, addend: 0x0, symName: __ZNSt3__119__to_address_helperINS_16reverse_iteratorIP7ComplexEEvE6__callB8ue170006ERKS4_, symObjAddr: 0x24BC, symBinAddr: 0x1000055B8, symSize: 0x4C }
  - { offsetInCU: 0x149E3, offset: 0x149E3, size: 0x8, addend: 0x0, symName: __ZNKSt3__116reverse_iteratorIP7ComplexEptB8ue170006Ev, symObjAddr: 0x2508, symBinAddr: 0x100005604, symSize: 0x24 }
  - { offsetInCU: 0x14A2C, offset: 0x14A2C, size: 0x8, addend: 0x0, symName: __ZNKSt3__111__move_loopINS_17_ClassicAlgPolicyEEclB8ue170006INS_16reverse_iteratorIP7ComplexEES7_S7_EENS_4pairIT_T1_EES9_T0_SA_, symObjAddr: 0x27A4, symBinAddr: 0x1000058A0, symSize: 0xA0 }
  - { offsetInCU: 0x14A97, offset: 0x14A97, size: 0x8, addend: 0x0, symName: __ZNSt3__18_IterOpsINS_17_ClassicAlgPolicyEE11__iter_moveB8ue170006IRNS_16reverse_iteratorIP7ComplexEEEENS_9enable_ifIXsr12is_referenceIDTdeclsr3stdE7declvalIRT_EEEEE5valueEDTclsr3stdE4movedeclsr3stdE7declvalISB_EEEEE4typeEOSA_, symObjAddr: 0x29A4, symBinAddr: 0x100005AA0, symSize: 0x28 }
  - { offsetInCU: 0x14AC3, offset: 0x14AC3, size: 0x8, addend: 0x0, symName: __ZNSt3__18_IterOpsINS_17_ClassicAlgPolicyEE25__validate_iter_referenceB8ue170006IRNS_16reverse_iteratorIP7ComplexEEEEvv, symObjAddr: 0x29CC, symBinAddr: 0x100005AC8, symSize: 0x4 }
  - { offsetInCU: 0x14AE1, offset: 0x14AE1, size: 0x8, addend: 0x0, symName: __ZNSt3__118__unwrap_iter_implINS_16reverse_iteratorIP7ComplexEELb0EE8__unwrapB8ue170006ES4_, symObjAddr: 0x29D0, symBinAddr: 0x100005ACC, symSize: 0x24 }
  - { offsetInCU: 0x14B04, offset: 0x14B04, size: 0x8, addend: 0x0, symName: __ZNSt3__14pairINS_16reverse_iteratorIP7ComplexEES4_EC1B8ue170006ERKS4_S7_, symObjAddr: 0x29F4, symBinAddr: 0x100005AF0, symSize: 0x3C }
  - { offsetInCU: 0x14B4A, offset: 0x14B4A, size: 0x8, addend: 0x0, symName: __ZNSt3__14pairINS_16reverse_iteratorIP7ComplexEES4_EC2B8ue170006ERKS4_S7_, symObjAddr: 0x2A30, symBinAddr: 0x100005B2C, symSize: 0x34 }
  - { offsetInCU: 0x14B90, offset: 0x14B90, size: 0x8, addend: 0x0, symName: __ZNSt3__118__unwrap_iter_implINS_16reverse_iteratorIP7ComplexEELb0EE8__rewrapB8ue170006ES4_S4_, symObjAddr: 0x2A64, symBinAddr: 0x100005B60, symSize: 0x2C }
  - { offsetInCU: 0x14BBD, offset: 0x14BBD, size: 0x8, addend: 0x0, symName: __ZNSt3__116reverse_iteratorIP7ComplexEC2B8ue170006ES2_, symObjAddr: 0x2A90, symBinAddr: 0x100005B8C, symSize: 0x28 }
  - { offsetInCU: 0x14BF5, offset: 0x14BF5, size: 0x8, addend: 0x0, symName: __ZNSt3__114__split_bufferI7ComplexRNS_9allocatorIS1_EEED2Ev, symObjAddr: 0x2AB8, symBinAddr: 0x100005BB4, symSize: 0x80 }
  - { offsetInCU: 0x14C21, offset: 0x14C21, size: 0x8, addend: 0x0, symName: __ZNSt3__114__split_bufferI7ComplexRNS_9allocatorIS1_EEE5clearB8ue170006Ev, symObjAddr: 0x2B38, symBinAddr: 0x100005C34, symSize: 0x28 }
  - { offsetInCU: 0x14C47, offset: 0x14C47, size: 0x8, addend: 0x0, symName: __ZNKSt3__114__split_bufferI7ComplexRNS_9allocatorIS1_EEE8capacityB8ue170006Ev, symObjAddr: 0x2B60, symBinAddr: 0x100005C5C, symSize: 0x40 }
  - { offsetInCU: 0x14C6D, offset: 0x14C6D, size: 0x8, addend: 0x0, symName: __ZNSt3__114__split_bufferI7ComplexRNS_9allocatorIS1_EEE17__destruct_at_endB8ue170006EPS1_, symObjAddr: 0x2BA0, symBinAddr: 0x100005C9C, symSize: 0x2C }
  - { offsetInCU: 0x14CA1, offset: 0x14CA1, size: 0x8, addend: 0x0, symName: __ZNSt3__114__split_bufferI7ComplexRNS_9allocatorIS1_EEE17__destruct_at_endB8ue170006EPS1_NS_17integral_constantIbLb0EEE, symObjAddr: 0x2BCC, symBinAddr: 0x100005CC8, symSize: 0x94 }
  - { offsetInCU: 0x14CE1, offset: 0x14CE1, size: 0x8, addend: 0x0, symName: __ZNKSt3__114__split_bufferI7ComplexRNS_9allocatorIS1_EEE9__end_capB8ue170006Ev, symObjAddr: 0x2C60, symBinAddr: 0x100005D5C, symSize: 0x28 }
  - { offsetInCU: 0x14D07, offset: 0x14D07, size: 0x8, addend: 0x0, symName: __ZNKSt3__117__compressed_pairIP7ComplexRNS_9allocatorIS1_EEE5firstB8ue170006Ev, symObjAddr: 0x2C88, symBinAddr: 0x100005D84, symSize: 0x24 }
  - { offsetInCU: 0x14D2D, offset: 0x14D2D, size: 0x8, addend: 0x0, symName: __ZNK7ComplexltERKS_, symObjAddr: 0x2CAC, symBinAddr: 0x100005DA8, symSize: 0x64 }
  - { offsetInCU: 0x14D61, offset: 0x14D61, size: 0x8, addend: 0x0, symName: __ZNSt3__16vectorI7ComplexNS_9allocatorIS1_EEEixB8ue170006Em, symObjAddr: 0x2D10, symBinAddr: 0x100005E0C, symSize: 0x24 }
  - { offsetInCU: 0x14D98, offset: 0x14D98, size: 0x8, addend: 0x0, symName: __ZNSt3__16vectorIPN9BPlusTree4NodeENS_9allocatorIS3_EEEixB8ue170006Em, symObjAddr: 0x2D34, symBinAddr: 0x100005E30, symSize: 0x24 }
  - { offsetInCU: 0x14DCF, offset: 0x14DCF, size: 0x8, addend: 0x0, symName: __ZNSt3__16vectorI7ComplexNS_9allocatorIS1_EEE6insertENS_11__wrap_iterIPKS1_EERS6_, symObjAddr: 0x2D58, symBinAddr: 0x100005E54, symSize: 0x20C }
  - { offsetInCU: 0x14E67, offset: 0x14E67, size: 0x8, addend: 0x0, symName: __ZNSt3__16vectorI7ComplexNS_9allocatorIS1_EEE5beginB8ue170006Ev, symObjAddr: 0x2F64, symBinAddr: 0x100006060, symSize: 0x30 }
  - { offsetInCU: 0x14E8F, offset: 0x14E8F, size: 0x8, addend: 0x0, symName: __ZNKSt3__111__wrap_iterIP7ComplexEplB8ue170006El, symObjAddr: 0x2F94, symBinAddr: 0x100006090, symSize: 0x3C }
  - { offsetInCU: 0x14EDB, offset: 0x14EDB, size: 0x8, addend: 0x0, symName: __ZNSt3__111__wrap_iterIPK7ComplexEC1B8ue170006IPS1_EERKNS0_IT_EEPNS_9enable_ifIXsr14is_convertibleIS7_S3_EE5valueEvE4typeE, symObjAddr: 0x2FD0, symBinAddr: 0x1000060CC, symSize: 0x3C }
  - { offsetInCU: 0x14F26, offset: 0x14F26, size: 0x8, addend: 0x0, symName: __ZNSt3__16vectorI7ComplexNS_9allocatorIS1_EEE12__move_rangeEPS1_S5_S5_, symObjAddr: 0x3054, symBinAddr: 0x100006150, symSize: 0x134 }
  - { offsetInCU: 0x14FE4, offset: 0x14FE4, size: 0x8, addend: 0x0, symName: __ZNSt3__114pointer_traitsIPK7ComplexE10pointer_toB8ue170006ERS2_, symObjAddr: 0x3188, symBinAddr: 0x100006284, symSize: 0x14 }
  - { offsetInCU: 0x15007, offset: 0x15007, size: 0x8, addend: 0x0, symName: __ZNSt3__114__split_bufferI7ComplexRNS_9allocatorIS1_EEE9push_backB8ue170006ERKS1_, symObjAddr: 0x319C, symBinAddr: 0x100006298, symSize: 0x268 }
  - { offsetInCU: 0x15080, offset: 0x15080, size: 0x8, addend: 0x0, symName: __ZNSt3__16vectorI7ComplexNS_9allocatorIS1_EEE11__make_iterB8ue170006EPS1_, symObjAddr: 0x3550, symBinAddr: 0x10000664C, symSize: 0x30 }
  - { offsetInCU: 0x150B5, offset: 0x150B5, size: 0x8, addend: 0x0, symName: __ZNKSt3__111__wrap_iterIPK7ComplexE4baseB8ue170006Ev, symObjAddr: 0x3580, symBinAddr: 0x10000667C, symSize: 0x18 }
  - { offsetInCU: 0x150DB, offset: 0x150DB, size: 0x8, addend: 0x0, symName: __ZNKSt3__111__wrap_iterIP7ComplexE4baseB8ue170006Ev, symObjAddr: 0x3598, symBinAddr: 0x100006694, symSize: 0x18 }
  - { offsetInCU: 0x15101, offset: 0x15101, size: 0x8, addend: 0x0, symName: __ZNSt3__116allocator_traitsINS_9allocatorI7ComplexEEE9constructB8ue170006IS2_JS2_EvEEvRS3_PT_DpOT0_, symObjAddr: 0x35B0, symBinAddr: 0x1000066AC, symSize: 0x34 }
  - { offsetInCU: 0x15158, offset: 0x15158, size: 0x8, addend: 0x0, symName: __ZNSt3__19allocatorI7ComplexE9constructB8ue170006IS1_JS1_EEEvPT_DpOT0_, symObjAddr: 0x3624, symBinAddr: 0x100006720, symSize: 0x28 }
  - { offsetInCU: 0x151D1, offset: 0x151D1, size: 0x8, addend: 0x0, symName: __ZNKSt3__123__move_backward_trivialclB8ue170006I7ComplexS2_Li0EEENS_4pairIPT_PT0_EES5_S5_S7_, symObjAddr: 0x37E8, symBinAddr: 0x1000068E4, symSize: 0x48 }
  - { offsetInCU: 0x15239, offset: 0x15239, size: 0x8, addend: 0x0, symName: __ZNSt3__14pairIP7ComplexS2_EC1B8ue170006ERKS2_S5_, symObjAddr: 0x3A70, symBinAddr: 0x100006B6C, symSize: 0x3C }
  - { offsetInCU: 0x1527F, offset: 0x1527F, size: 0x8, addend: 0x0, symName: __ZNSt3__14pairIP7ComplexS2_EC2B8ue170006ERKS2_S5_, symObjAddr: 0x3AAC, symBinAddr: 0x100006BA8, symSize: 0x34 }
  - { offsetInCU: 0x152C5, offset: 0x152C5, size: 0x8, addend: 0x0, symName: __ZNSt3__118__unwrap_iter_implIP7ComplexLb1EE8__unwrapB8ue170006ES2_, symObjAddr: 0x3AE0, symBinAddr: 0x100006BDC, symSize: 0x24 }
  - { offsetInCU: 0x152E8, offset: 0x152E8, size: 0x8, addend: 0x0, symName: __ZNSt3__118__unwrap_iter_implIP7ComplexLb1EE8__rewrapB8ue170006ES2_S2_, symObjAddr: 0x3B04, symBinAddr: 0x100006C00, symSize: 0x50 }
  - { offsetInCU: 0x15319, offset: 0x15319, size: 0x8, addend: 0x0, symName: __ZNSt3__114__split_bufferI7ComplexRNS_9allocatorIS1_EEE18__construct_at_endINS_13move_iteratorIPS1_EEEENS_9enable_ifIXsr31__has_forward_iterator_categoryIT_EE5valueEvE4typeESB_SB_, symObjAddr: 0x3B94, symBinAddr: 0x100006C90, symSize: 0x60 }
  - { offsetInCU: 0x15366, offset: 0x15366, size: 0x8, addend: 0x0, symName: __ZNSt3__113move_iteratorIP7ComplexEC1B8ue170006ES2_, symObjAddr: 0x3BF4, symBinAddr: 0x100006CF0, symSize: 0x34 }
  - { offsetInCU: 0x153A8, offset: 0x153A8, size: 0x8, addend: 0x0, symName: __ZNKSt3__114__move_trivialclB8ue170006I7ComplexS2_Li0EEENS_4pairIPT_PT0_EES5_S5_S7_, symObjAddr: 0x3D64, symBinAddr: 0x100006E60, symSize: 0x48 }
  - { offsetInCU: 0x15410, offset: 0x15410, size: 0x8, addend: 0x0, symName: __ZNSt3__114__split_bufferI7ComplexRNS_9allocatorIS1_EEE28__construct_at_end_with_sizeINS_13move_iteratorIPS1_EEEEvT_m, symObjAddr: 0x3E64, symBinAddr: 0x100006F60, symSize: 0xE4 }
  - { offsetInCU: 0x15476, offset: 0x15476, size: 0x8, addend: 0x0, symName: __ZNSt3__114__split_bufferI7ComplexRNS_9allocatorIS1_EEE21_ConstructTransactionC1B8ue170006EPPS1_m, symObjAddr: 0x3F84, symBinAddr: 0x100007080, symSize: 0x3C }
  - { offsetInCU: 0x154BC, offset: 0x154BC, size: 0x8, addend: 0x0, symName: __ZNKSt3__113move_iteratorIP7ComplexEdeB8ue170006Ev, symObjAddr: 0x3FC0, symBinAddr: 0x1000070BC, symSize: 0x18 }
  - { offsetInCU: 0x154E2, offset: 0x154E2, size: 0x8, addend: 0x0, symName: __ZNSt3__113move_iteratorIP7ComplexEppB8ue170006Ev, symObjAddr: 0x3FD8, symBinAddr: 0x1000070D4, symSize: 0x20 }
  - { offsetInCU: 0x15508, offset: 0x15508, size: 0x8, addend: 0x0, symName: __ZNSt3__114__split_bufferI7ComplexRNS_9allocatorIS1_EEE21_ConstructTransactionD1B8ue170006Ev, symObjAddr: 0x3FF8, symBinAddr: 0x1000070F4, symSize: 0x2C }
  - { offsetInCU: 0x15532, offset: 0x15532, size: 0x8, addend: 0x0, symName: __ZNSt3__114__split_bufferI7ComplexRNS_9allocatorIS1_EEE21_ConstructTransactionC2B8ue170006EPPS1_m, symObjAddr: 0x4024, symBinAddr: 0x100007120, symSize: 0x44 }
  - { offsetInCU: 0x15578, offset: 0x15578, size: 0x8, addend: 0x0, symName: __ZNSt3__114__split_bufferI7ComplexRNS_9allocatorIS1_EEE21_ConstructTransactionD2B8ue170006Ev, symObjAddr: 0x4068, symBinAddr: 0x100007164, symSize: 0x20 }
  - { offsetInCU: 0x155A2, offset: 0x155A2, size: 0x8, addend: 0x0, symName: __ZNKSt3__113move_iteratorIP7ComplexE4baseB8ue170006Ev, symObjAddr: 0x4100, symBinAddr: 0x1000071FC, symSize: 0x18 }
  - { offsetInCU: 0x155C8, offset: 0x155C8, size: 0x8, addend: 0x0, symName: __ZNSt3__113move_iteratorIP7ComplexEC2B8ue170006ES2_, symObjAddr: 0x4118, symBinAddr: 0x100007214, symSize: 0x20 }
  - { offsetInCU: 0x15600, offset: 0x15600, size: 0x8, addend: 0x0, symName: __ZNSt3__111__wrap_iterIP7ComplexEC1B8ue170006ES2_, symObjAddr: 0x41DC, symBinAddr: 0x1000072D8, symSize: 0x34 }
  - { offsetInCU: 0x15638, offset: 0x15638, size: 0x8, addend: 0x0, symName: __ZNSt3__111__wrap_iterIP7ComplexEC2B8ue170006ES2_, symObjAddr: 0x4210, symBinAddr: 0x10000730C, symSize: 0x20 }
  - { offsetInCU: 0x15670, offset: 0x15670, size: 0x8, addend: 0x0, symName: __ZNSt3__111__wrap_iterIP7ComplexEpLB8ue170006El, symObjAddr: 0x4230, symBinAddr: 0x10000732C, symSize: 0x28 }
  - { offsetInCU: 0x156A4, offset: 0x156A4, size: 0x8, addend: 0x0, symName: __ZNSt3__111__wrap_iterIPK7ComplexEC2B8ue170006IPS1_EERKNS0_IT_EEPNS_9enable_ifIXsr14is_convertibleIS7_S3_EE5valueEvE4typeE, symObjAddr: 0x4258, symBinAddr: 0x100007354, symSize: 0x40 }
  - { offsetInCU: 0x156EF, offset: 0x156EF, size: 0x8, addend: 0x0, symName: __ZNSt3__16vectorI7ComplexNS_9allocatorIS1_EEE6assignINS_11__wrap_iterIPS1_EELi0EEEvT_S9_, symObjAddr: 0x4298, symBinAddr: 0x100007394, symSize: 0x6C }
  - { offsetInCU: 0x15744, offset: 0x15744, size: 0x8, addend: 0x0, symName: __ZNSt3__16vectorI7ComplexNS_9allocatorIS1_EEE3endB8ue170006Ev, symObjAddr: 0x4304, symBinAddr: 0x100007400, symSize: 0x30 }
  - { offsetInCU: 0x1576C, offset: 0x1576C, size: 0x8, addend: 0x0, symName: __ZNSt3__16vectorI7ComplexNS_9allocatorIS1_EEE5eraseENS_11__wrap_iterIPKS1_EES8_, symObjAddr: 0x4334, symBinAddr: 0x100007430, symSize: 0xD0 }
  - { offsetInCU: 0x157C1, offset: 0x157C1, size: 0x8, addend: 0x0, symName: __ZNSt3__16vectorIPN9BPlusTree4NodeENS_9allocatorIS3_EEE9push_backB8ue170006ERKS3_, symObjAddr: 0x4404, symBinAddr: 0x100007500, symSize: 0x6C }
  - { offsetInCU: 0x157F8, offset: 0x157F8, size: 0x8, addend: 0x0, symName: __ZN9BPlusTree16insertIntoParentEPNS_4NodeERK7ComplexS1_, symObjAddr: 0x4470, symBinAddr: 0x10000756C, symSize: 0x194 }
  - { offsetInCU: 0x15869, offset: 0x15869, size: 0x8, addend: 0x0, symName: __ZNSt3__16vectorI7ComplexNS_9allocatorIS1_EEE18__assign_with_sizeB8ue170006INS_11__wrap_iterIPS1_EES8_EEvT_T0_l, symObjAddr: 0x4604, symBinAddr: 0x100007700, symSize: 0x194 }
  - { offsetInCU: 0x1591C, offset: 0x1591C, size: 0x8, addend: 0x0, symName: __ZNSt3__16vectorI7ComplexNS_9allocatorIS1_EEE18__construct_at_endINS_11__wrap_iterIPS1_EES8_EEvT_T0_m, symObjAddr: 0x4860, symBinAddr: 0x10000795C, symSize: 0xA4 }
  - { offsetInCU: 0x15992, offset: 0x15992, size: 0x8, addend: 0x0, symName: __ZNSt3__16vectorI7ComplexNS_9allocatorIS1_EEE17__destruct_at_endB8ue170006EPS1_, symObjAddr: 0x4958, symBinAddr: 0x100007A54, symSize: 0x4C }
  - { offsetInCU: 0x159D6, offset: 0x159D6, size: 0x8, addend: 0x0, symName: __ZNSt3__16vectorI7ComplexNS_9allocatorIS1_EEE13__vdeallocateEv, symObjAddr: 0x49A4, symBinAddr: 0x100007AA0, symSize: 0x94 }
  - { offsetInCU: 0x159FE, offset: 0x159FE, size: 0x8, addend: 0x0, symName: __ZNSt3__16vectorI7ComplexNS_9allocatorIS1_EEE11__vallocateB8ue170006Em, symObjAddr: 0x4A38, symBinAddr: 0x100007B34, symSize: 0xAC }
  - { offsetInCU: 0x15A42, offset: 0x15A42, size: 0x8, addend: 0x0, symName: __ZNSt3__118__unwrap_iter_implINS_11__wrap_iterIP7ComplexEELb1EE8__unwrapB8ue170006ES4_, symObjAddr: 0x4D84, symBinAddr: 0x100007E80, symSize: 0x28 }
  - { offsetInCU: 0x15A6A, offset: 0x15A6A, size: 0x8, addend: 0x0, symName: __ZNSt3__119__to_address_helperINS_11__wrap_iterIP7ComplexEEvE6__callB8ue170006ERKS4_, symObjAddr: 0x4DD0, symBinAddr: 0x100007ECC, symSize: 0x30 }
  - { offsetInCU: 0x15A8D, offset: 0x15A8D, size: 0x8, addend: 0x0, symName: __ZNSt3__114pointer_traitsINS_11__wrap_iterIP7ComplexEEE10to_addressB8ue170006ES4_, symObjAddr: 0x4E00, symBinAddr: 0x100007EFC, symSize: 0x2C }
  - { offsetInCU: 0x15AB0, offset: 0x15AB0, size: 0x8, addend: 0x0, symName: __ZNSt3__129_AllocatorDestroyRangeReverseINS_9allocatorI7ComplexEEPS2_EC1B8ue170006ERS3_RS4_S7_, symObjAddr: 0x4E78, symBinAddr: 0x100007F74, symSize: 0x44 }
  - { offsetInCU: 0x15B07, offset: 0x15B07, size: 0x8, addend: 0x0, symName: __ZNSt3__116allocator_traitsINS_9allocatorI7ComplexEEE9constructB8ue170006IS2_JRS2_EvEEvRS3_PT_DpOT0_, symObjAddr: 0x4EBC, symBinAddr: 0x100007FB8, symSize: 0x34 }
  - { offsetInCU: 0x15B5E, offset: 0x15B5E, size: 0x8, addend: 0x0, symName: __ZNSt3__128__exception_guard_exceptionsINS_29_AllocatorDestroyRangeReverseINS_9allocatorI7ComplexEEPS3_EEE10__completeB8ue170006Ev, symObjAddr: 0x4EF0, symBinAddr: 0x100007FEC, symSize: 0x1C }
  - { offsetInCU: 0x15B84, offset: 0x15B84, size: 0x8, addend: 0x0, symName: __ZNSt3__128__exception_guard_exceptionsINS_29_AllocatorDestroyRangeReverseINS_9allocatorI7ComplexEEPS3_EEED1B8ue170006Ev, symObjAddr: 0x4F0C, symBinAddr: 0x100008008, symSize: 0x2C }
  - { offsetInCU: 0x15BAE, offset: 0x15BAE, size: 0x8, addend: 0x0, symName: __ZNSt3__128__exception_guard_exceptionsINS_29_AllocatorDestroyRangeReverseINS_9allocatorI7ComplexEEPS3_EEEC1B8ue170006ES6_, symObjAddr: 0x4F38, symBinAddr: 0x100008034, symSize: 0x34 }
  - { offsetInCU: 0x15BE7, offset: 0x15BE7, size: 0x8, addend: 0x0, symName: __ZNSt3__128__exception_guard_exceptionsINS_29_AllocatorDestroyRangeReverseINS_9allocatorI7ComplexEEPS3_EEEC2B8ue170006ES6_, symObjAddr: 0x4F6C, symBinAddr: 0x100008068, symSize: 0x30 }
  - { offsetInCU: 0x15C20, offset: 0x15C20, size: 0x8, addend: 0x0, symName: __ZNSt3__129_AllocatorDestroyRangeReverseINS_9allocatorI7ComplexEEPS2_EC2B8ue170006ERS3_RS4_S7_, symObjAddr: 0x4F9C, symBinAddr: 0x100008098, symSize: 0x38 }
  - { offsetInCU: 0x15C77, offset: 0x15C77, size: 0x8, addend: 0x0, symName: __ZNSt3__19allocatorI7ComplexE9constructB8ue170006IS1_JRS1_EEEvPT_DpOT0_, symObjAddr: 0x4FD4, symBinAddr: 0x1000080D0, symSize: 0x28 }
  - { offsetInCU: 0x15CCD, offset: 0x15CCD, size: 0x8, addend: 0x0, symName: __ZNSt3__128__exception_guard_exceptionsINS_29_AllocatorDestroyRangeReverseINS_9allocatorI7ComplexEEPS3_EEED2B8ue170006Ev, symObjAddr: 0x4FFC, symBinAddr: 0x1000080F8, symSize: 0x48 }
  - { offsetInCU: 0x15CF7, offset: 0x15CF7, size: 0x8, addend: 0x0, symName: __ZNKSt3__129_AllocatorDestroyRangeReverseINS_9allocatorI7ComplexEEPS2_EclB8ue170006Ev, symObjAddr: 0x5044, symBinAddr: 0x100008140, symSize: 0x68 }
  - { offsetInCU: 0x15D27, offset: 0x15D27, size: 0x8, addend: 0x0, symName: __ZNKSt3__114__copy_trivialclB8ue170006I7ComplexS2_Li0EEENS_4pairIPT_PT0_EES5_S5_S7_, symObjAddr: 0x523C, symBinAddr: 0x100008338, symSize: 0x48 }
  - { offsetInCU: 0x15DA8, offset: 0x15DA8, size: 0x8, addend: 0x0, symName: __ZNSt3__14pairINS_11__wrap_iterIP7ComplexEES3_EC1B8ue170006ERKS4_RKS3_, symObjAddr: 0x52F8, symBinAddr: 0x1000083F4, symSize: 0x3C }
  - { offsetInCU: 0x15DEE, offset: 0x15DEE, size: 0x8, addend: 0x0, symName: __ZNSt3__14pairINS_11__wrap_iterIP7ComplexEES3_EC2B8ue170006ERKS4_RKS3_, symObjAddr: 0x5334, symBinAddr: 0x100008430, symSize: 0x34 }
  - { offsetInCU: 0x15E34, offset: 0x15E34, size: 0x8, addend: 0x0, symName: __ZNSt3__118__unwrap_iter_implINS_11__wrap_iterIP7ComplexEELb1EE8__rewrapB8ue170006ES4_S3_, symObjAddr: 0x53C8, symBinAddr: 0x1000084C4, symSize: 0x5C }
  - { offsetInCU: 0x15E65, offset: 0x15E65, size: 0x8, addend: 0x0, symName: __ZNKSt3__16vectorI7ComplexNS_9allocatorIS1_EEE17__annotate_shrinkB8ue170006Em, symObjAddr: 0x5424, symBinAddr: 0x100008520, symSize: 0xB4 }
  - { offsetInCU: 0x15E9A, offset: 0x15E9A, size: 0x8, addend: 0x0, symName: __ZNSt3__16vectorI7ComplexNS_9allocatorIS1_EEE5clearB8ue170006Ev, symObjAddr: 0x54D8, symBinAddr: 0x1000085D4, symSize: 0x44 }
  - { offsetInCU: 0x15ECF, offset: 0x15ECF, size: 0x8, addend: 0x0, symName: __ZNSt3__16vectorIPN9BPlusTree4NodeENS_9allocatorIS3_EEE9__end_capB8ue170006Ev, symObjAddr: 0x5658, symBinAddr: 0x100008754, symSize: 0x28 }
  - { offsetInCU: 0x15EF5, offset: 0x15EF5, size: 0x8, addend: 0x0, symName: __ZNSt3__16vectorIPN9BPlusTree4NodeENS_9allocatorIS3_EEE22__construct_one_at_endB8ue170006IJRKS3_EEEvDpOT_, symObjAddr: 0x5680, symBinAddr: 0x10000877C, symSize: 0x98 }
  - { offsetInCU: 0x15F44, offset: 0x15F44, size: 0x8, addend: 0x0, symName: __ZNSt3__16vectorIPN9BPlusTree4NodeENS_9allocatorIS3_EEE21__push_back_slow_pathIRKS3_EEvOT_, symObjAddr: 0x5718, symBinAddr: 0x100008814, symSize: 0xE0 }
  - { offsetInCU: 0x15FA2, offset: 0x15FA2, size: 0x8, addend: 0x0, symName: __ZNSt3__117__compressed_pairIPPN9BPlusTree4NodeENS_9allocatorIS3_EEE5firstB8ue170006Ev, symObjAddr: 0x57F8, symBinAddr: 0x1000088F4, symSize: 0x24 }
  - { offsetInCU: 0x15FC8, offset: 0x15FC8, size: 0x8, addend: 0x0, symName: __ZNSt3__122__compressed_pair_elemIPPN9BPlusTree4NodeELi0ELb0EE5__getB8ue170006Ev, symObjAddr: 0x581C, symBinAddr: 0x100008918, symSize: 0x14 }
  - { offsetInCU: 0x16007, offset: 0x16007, size: 0x8, addend: 0x0, symName: __ZNSt3__16vectorIPN9BPlusTree4NodeENS_9allocatorIS3_EEE21_ConstructTransactionC1B8ue170006ERS6_m, symObjAddr: 0x5830, symBinAddr: 0x10000892C, symSize: 0x3C }
  - { offsetInCU: 0x1604F, offset: 0x1604F, size: 0x8, addend: 0x0, symName: __ZNSt3__116allocator_traitsINS_9allocatorIPN9BPlusTree4NodeEEEE9constructB8ue170006IS4_JRKS4_EvEEvRS5_PT_DpOT0_, symObjAddr: 0x586C, symBinAddr: 0x100008968, symSize: 0x34 }
  - { offsetInCU: 0x160A6, offset: 0x160A6, size: 0x8, addend: 0x0, symName: __ZNSt3__16vectorIPN9BPlusTree4NodeENS_9allocatorIS3_EEE7__allocB8ue170006Ev, symObjAddr: 0x58A0, symBinAddr: 0x10000899C, symSize: 0x28 }
  - { offsetInCU: 0x160CC, offset: 0x160CC, size: 0x8, addend: 0x0, symName: __ZNSt3__16vectorIPN9BPlusTree4NodeENS_9allocatorIS3_EEE21_ConstructTransactionD1B8ue170006Ev, symObjAddr: 0x58DC, symBinAddr: 0x1000089D8, symSize: 0x2C }
  - { offsetInCU: 0x160F6, offset: 0x160F6, size: 0x8, addend: 0x0, symName: __ZNSt3__16vectorIPN9BPlusTree4NodeENS_9allocatorIS3_EEE21_ConstructTransactionC2B8ue170006ERS6_m, symObjAddr: 0x5908, symBinAddr: 0x100008A04, symSize: 0x44 }
  - { offsetInCU: 0x1613E, offset: 0x1613E, size: 0x8, addend: 0x0, symName: __ZNSt3__19allocatorIPN9BPlusTree4NodeEE9constructB8ue170006IS3_JRKS3_EEEvPT_DpOT0_, symObjAddr: 0x594C, symBinAddr: 0x100008A48, symSize: 0x28 }
  - { offsetInCU: 0x16194, offset: 0x16194, size: 0x8, addend: 0x0, symName: __ZNSt3__117__compressed_pairIPPN9BPlusTree4NodeENS_9allocatorIS3_EEE6secondB8ue170006Ev, symObjAddr: 0x5974, symBinAddr: 0x100008A70, symSize: 0x24 }
  - { offsetInCU: 0x161BA, offset: 0x161BA, size: 0x8, addend: 0x0, symName: __ZNSt3__122__compressed_pair_elemINS_9allocatorIPN9BPlusTree4NodeEEELi1ELb1EE5__getB8ue170006Ev, symObjAddr: 0x5998, symBinAddr: 0x100008A94, symSize: 0x14 }
  - { offsetInCU: 0x161E0, offset: 0x161E0, size: 0x8, addend: 0x0, symName: __ZNSt3__16vectorIPN9BPlusTree4NodeENS_9allocatorIS3_EEE21_ConstructTransactionD2B8ue170006Ev, symObjAddr: 0x59AC, symBinAddr: 0x100008AA8, symSize: 0x20 }
  - { offsetInCU: 0x1620A, offset: 0x1620A, size: 0x8, addend: 0x0, symName: __ZNKSt3__16vectorIPN9BPlusTree4NodeENS_9allocatorIS3_EEE11__recommendB8ue170006Em, symObjAddr: 0x59CC, symBinAddr: 0x100008AC8, symSize: 0xB4 }
  - { offsetInCU: 0x1625F, offset: 0x1625F, size: 0x8, addend: 0x0, symName: __ZNKSt3__16vectorIPN9BPlusTree4NodeENS_9allocatorIS3_EEE4sizeB8ue170006Ev, symObjAddr: 0x5A80, symBinAddr: 0x100008B7C, symSize: 0x28 }
  - { offsetInCU: 0x16285, offset: 0x16285, size: 0x8, addend: 0x0, symName: __ZNSt3__114__split_bufferIPN9BPlusTree4NodeERNS_9allocatorIS3_EEEC1EmmS6_, symObjAddr: 0x5AA8, symBinAddr: 0x100008BA4, symSize: 0x44 }
  - { offsetInCU: 0x162DB, offset: 0x162DB, size: 0x8, addend: 0x0, symName: __ZNSt3__114__split_bufferIPN9BPlusTree4NodeERNS_9allocatorIS3_EEED1Ev, symObjAddr: 0x5BFC, symBinAddr: 0x100008CF8, symSize: 0x2C }
  - { offsetInCU: 0x16307, offset: 0x16307, size: 0x8, addend: 0x0, symName: __ZNKSt3__16vectorIPN9BPlusTree4NodeENS_9allocatorIS3_EEE8max_sizeEv, symObjAddr: 0x5C28, symBinAddr: 0x100008D24, symSize: 0x74 }
  - { offsetInCU: 0x1632F, offset: 0x1632F, size: 0x8, addend: 0x0, symName: __ZNKSt3__16vectorIPN9BPlusTree4NodeENS_9allocatorIS3_EEE20__throw_length_errorB8ue170006Ev, symObjAddr: 0x5C9C, symBinAddr: 0x100008D98, symSize: 0x1C }
  - { offsetInCU: 0x16355, offset: 0x16355, size: 0x8, addend: 0x0, symName: __ZNKSt3__16vectorIPN9BPlusTree4NodeENS_9allocatorIS3_EEE8capacityB8ue170006Ev, symObjAddr: 0x5CB8, symBinAddr: 0x100008DB4, symSize: 0x40 }
  - { offsetInCU: 0x16385, offset: 0x16385, size: 0x8, addend: 0x0, symName: __ZNSt3__116allocator_traitsINS_9allocatorIPN9BPlusTree4NodeEEEE8max_sizeB8ue170006IS5_vEEmRKS5_, symObjAddr: 0x5CF8, symBinAddr: 0x100008DF4, symSize: 0x24 }
  - { offsetInCU: 0x163B3, offset: 0x163B3, size: 0x8, addend: 0x0, symName: __ZNKSt3__16vectorIPN9BPlusTree4NodeENS_9allocatorIS3_EEE7__allocB8ue170006Ev, symObjAddr: 0x5D1C, symBinAddr: 0x100008E18, symSize: 0x28 }
  - { offsetInCU: 0x163D9, offset: 0x163D9, size: 0x8, addend: 0x0, symName: __ZNKSt3__19allocatorIPN9BPlusTree4NodeEE8max_sizeB8ue170006Ev, symObjAddr: 0x5D44, symBinAddr: 0x100008E40, symSize: 0x14 }
  - { offsetInCU: 0x163FF, offset: 0x163FF, size: 0x8, addend: 0x0, symName: __ZNKSt3__117__compressed_pairIPPN9BPlusTree4NodeENS_9allocatorIS3_EEE6secondB8ue170006Ev, symObjAddr: 0x5D58, symBinAddr: 0x100008E54, symSize: 0x24 }
  - { offsetInCU: 0x16425, offset: 0x16425, size: 0x8, addend: 0x0, symName: __ZNKSt3__122__compressed_pair_elemINS_9allocatorIPN9BPlusTree4NodeEEELi1ELb1EE5__getB8ue170006Ev, symObjAddr: 0x5D7C, symBinAddr: 0x100008E78, symSize: 0x14 }
  - { offsetInCU: 0x1644B, offset: 0x1644B, size: 0x8, addend: 0x0, symName: __ZNKSt3__16vectorIPN9BPlusTree4NodeENS_9allocatorIS3_EEE9__end_capB8ue170006Ev, symObjAddr: 0x5D90, symBinAddr: 0x100008E8C, symSize: 0x28 }
  - { offsetInCU: 0x16471, offset: 0x16471, size: 0x8, addend: 0x0, symName: __ZNKSt3__117__compressed_pairIPPN9BPlusTree4NodeENS_9allocatorIS3_EEE5firstB8ue170006Ev, symObjAddr: 0x5DB8, symBinAddr: 0x100008EB4, symSize: 0x24 }
  - { offsetInCU: 0x16497, offset: 0x16497, size: 0x8, addend: 0x0, symName: __ZNKSt3__122__compressed_pair_elemIPPN9BPlusTree4NodeELi0ELb0EE5__getB8ue170006Ev, symObjAddr: 0x5DDC, symBinAddr: 0x100008ED8, symSize: 0x14 }
  - { offsetInCU: 0x164BD, offset: 0x164BD, size: 0x8, addend: 0x0, symName: __ZNSt3__114__split_bufferIPN9BPlusTree4NodeERNS_9allocatorIS3_EEEC2EmmS6_, symObjAddr: 0x5DF0, symBinAddr: 0x100008EEC, symSize: 0xD4 }
  - { offsetInCU: 0x16531, offset: 0x16531, size: 0x8, addend: 0x0, symName: __ZNSt3__117__compressed_pairIPPN9BPlusTree4NodeERNS_9allocatorIS3_EEEC1B8ue170006IDnS7_EEOT_OT0_, symObjAddr: 0x5EC4, symBinAddr: 0x100008FC0, symSize: 0x3C }
  - { offsetInCU: 0x16589, offset: 0x16589, size: 0x8, addend: 0x0, symName: __ZNSt3__114__split_bufferIPN9BPlusTree4NodeERNS_9allocatorIS3_EEE7__allocB8ue170006Ev, symObjAddr: 0x5F40, symBinAddr: 0x10000903C, symSize: 0x28 }
  - { offsetInCU: 0x165AF, offset: 0x165AF, size: 0x8, addend: 0x0, symName: __ZNSt3__114__split_bufferIPN9BPlusTree4NodeERNS_9allocatorIS3_EEE9__end_capB8ue170006Ev, symObjAddr: 0x5F68, symBinAddr: 0x100009064, symSize: 0x28 }
  - { offsetInCU: 0x165D5, offset: 0x165D5, size: 0x8, addend: 0x0, symName: __ZNSt3__117__compressed_pairIPPN9BPlusTree4NodeERNS_9allocatorIS3_EEEC2B8ue170006IDnS7_EEOT_OT0_, symObjAddr: 0x5F90, symBinAddr: 0x10000908C, symSize: 0x48 }
  - { offsetInCU: 0x1662D, offset: 0x1662D, size: 0x8, addend: 0x0, symName: __ZNSt3__122__compressed_pair_elemIRNS_9allocatorIPN9BPlusTree4NodeEEELi1ELb0EEC2B8ue170006IS6_vEEOT_, symObjAddr: 0x5FD8, symBinAddr: 0x1000090D4, symSize: 0x20 }
  - { offsetInCU: 0x1666F, offset: 0x1666F, size: 0x8, addend: 0x0, symName: __ZNSt3__19allocatorIPN9BPlusTree4NodeEE8allocateB8ue170006Em, symObjAddr: 0x5FF8, symBinAddr: 0x1000090F4, symSize: 0x84 }
  - { offsetInCU: 0x166A3, offset: 0x166A3, size: 0x8, addend: 0x0, symName: __ZNSt3__117__compressed_pairIPPN9BPlusTree4NodeERNS_9allocatorIS3_EEE6secondB8ue170006Ev, symObjAddr: 0x607C, symBinAddr: 0x100009178, symSize: 0x28 }
  - { offsetInCU: 0x166C9, offset: 0x166C9, size: 0x8, addend: 0x0, symName: __ZNSt3__122__compressed_pair_elemIRNS_9allocatorIPN9BPlusTree4NodeEEELi1ELb0EE5__getB8ue170006Ev, symObjAddr: 0x60A4, symBinAddr: 0x1000091A0, symSize: 0x18 }
  - { offsetInCU: 0x166EF, offset: 0x166EF, size: 0x8, addend: 0x0, symName: __ZNSt3__117__compressed_pairIPPN9BPlusTree4NodeERNS_9allocatorIS3_EEE5firstB8ue170006Ev, symObjAddr: 0x60BC, symBinAddr: 0x1000091B8, symSize: 0x24 }
  - { offsetInCU: 0x16715, offset: 0x16715, size: 0x8, addend: 0x0, symName: __ZNKSt3__16vectorIPN9BPlusTree4NodeENS_9allocatorIS3_EEE17__annotate_deleteB8ue170006Ev, symObjAddr: 0x60E0, symBinAddr: 0x1000091DC, symSize: 0xB8 }
  - { offsetInCU: 0x1673B, offset: 0x1673B, size: 0x8, addend: 0x0, symName: __ZNSt3__116reverse_iteratorIPPN9BPlusTree4NodeEEC1B8ue170006ES4_, symObjAddr: 0x6280, symBinAddr: 0x10000937C, symSize: 0x34 }
  - { offsetInCU: 0x16773, offset: 0x16773, size: 0x8, addend: 0x0, symName: __ZNKSt3__116reverse_iteratorIPPN9BPlusTree4NodeEE4baseB8ue170006Ev, symObjAddr: 0x62B4, symBinAddr: 0x1000093B0, symSize: 0x18 }
  - { offsetInCU: 0x16799, offset: 0x16799, size: 0x8, addend: 0x0, symName: __ZNKSt3__16vectorIPN9BPlusTree4NodeENS_9allocatorIS3_EEE14__annotate_newB8ue170006Em, symObjAddr: 0x6308, symBinAddr: 0x100009404, symSize: 0xAC }
  - { offsetInCU: 0x167CE, offset: 0x167CE, size: 0x8, addend: 0x0, symName: __ZNKSt3__16vectorIPN9BPlusTree4NodeENS_9allocatorIS3_EEE31__annotate_contiguous_containerB8ue170006EPKvS8_S8_S8_, symObjAddr: 0x63B4, symBinAddr: 0x1000094B0, symSize: 0x20 }
  - { offsetInCU: 0x16820, offset: 0x16820, size: 0x8, addend: 0x0, symName: __ZNKSt3__16vectorIPN9BPlusTree4NodeENS_9allocatorIS3_EEE4dataB8ue170006Ev, symObjAddr: 0x63D4, symBinAddr: 0x1000094D0, symSize: 0x28 }
  - { offsetInCU: 0x16846, offset: 0x16846, size: 0x8, addend: 0x0, symName: __ZNKSt3__116reverse_iteratorIPPN9BPlusTree4NodeEEdeB8ue170006Ev, symObjAddr: 0x6494, symBinAddr: 0x100009590, symSize: 0x28 }
  - { offsetInCU: 0x1687A, offset: 0x1687A, size: 0x8, addend: 0x0, symName: __ZNSt3__116reverse_iteratorIPPN9BPlusTree4NodeEEppB8ue170006Ev, symObjAddr: 0x64BC, symBinAddr: 0x1000095B8, symSize: 0x20 }
  - { offsetInCU: 0x168A5, offset: 0x168A5, size: 0x8, addend: 0x0, symName: __ZNSt3__119__to_address_helperINS_16reverse_iteratorIPPN9BPlusTree4NodeEEEvE6__callB8ue170006ERKS6_, symObjAddr: 0x6554, symBinAddr: 0x100009650, symSize: 0x4C }
  - { offsetInCU: 0x168C8, offset: 0x168C8, size: 0x8, addend: 0x0, symName: __ZNKSt3__116reverse_iteratorIPPN9BPlusTree4NodeEEptB8ue170006Ev, symObjAddr: 0x65A0, symBinAddr: 0x10000969C, symSize: 0x24 }
  - { offsetInCU: 0x16907, offset: 0x16907, size: 0x8, addend: 0x0, symName: __ZNKSt3__111__move_loopINS_17_ClassicAlgPolicyEEclB8ue170006INS_16reverse_iteratorIPPN9BPlusTree4NodeEEES9_S9_EENS_4pairIT_T1_EESB_T0_SC_, symObjAddr: 0x683C, symBinAddr: 0x100009938, symSize: 0xA0 }
  - { offsetInCU: 0x16972, offset: 0x16972, size: 0x8, addend: 0x0, symName: __ZNSt3__18_IterOpsINS_17_ClassicAlgPolicyEE11__iter_moveB8ue170006IRNS_16reverse_iteratorIPPN9BPlusTree4NodeEEEEENS_9enable_ifIXsr12is_referenceIDTdeclsr3stdE7declvalIRT_EEEEE5valueEDTclsr3stdE4movedeclsr3stdE7declvalISD_EEEEE4typeEOSC_, symObjAddr: 0x6A3C, symBinAddr: 0x100009B38, symSize: 0x28 }
  - { offsetInCU: 0x1699E, offset: 0x1699E, size: 0x8, addend: 0x0, symName: __ZNSt3__18_IterOpsINS_17_ClassicAlgPolicyEE25__validate_iter_referenceB8ue170006IRNS_16reverse_iteratorIPPN9BPlusTree4NodeEEEEEvv, symObjAddr: 0x6A64, symBinAddr: 0x100009B60, symSize: 0x4 }
  - { offsetInCU: 0x169BC, offset: 0x169BC, size: 0x8, addend: 0x0, symName: __ZNSt3__118__unwrap_iter_implINS_16reverse_iteratorIPPN9BPlusTree4NodeEEELb0EE8__unwrapB8ue170006ES6_, symObjAddr: 0x6A68, symBinAddr: 0x100009B64, symSize: 0x24 }
  - { offsetInCU: 0x169DF, offset: 0x169DF, size: 0x8, addend: 0x0, symName: __ZNSt3__14pairINS_16reverse_iteratorIPPN9BPlusTree4NodeEEES6_EC1B8ue170006ERKS6_S9_, symObjAddr: 0x6A8C, symBinAddr: 0x100009B88, symSize: 0x3C }
  - { offsetInCU: 0x16A25, offset: 0x16A25, size: 0x8, addend: 0x0, symName: __ZNSt3__14pairINS_16reverse_iteratorIPPN9BPlusTree4NodeEEES6_EC2B8ue170006ERKS6_S9_, symObjAddr: 0x6AC8, symBinAddr: 0x100009BC4, symSize: 0x34 }
  - { offsetInCU: 0x16A6B, offset: 0x16A6B, size: 0x8, addend: 0x0, symName: __ZNSt3__118__unwrap_iter_implINS_16reverse_iteratorIPPN9BPlusTree4NodeEEELb0EE8__rewrapB8ue170006ES6_S6_, symObjAddr: 0x6AFC, symBinAddr: 0x100009BF8, symSize: 0x2C }
  - { offsetInCU: 0x16A98, offset: 0x16A98, size: 0x8, addend: 0x0, symName: __ZNSt3__116reverse_iteratorIPPN9BPlusTree4NodeEEC2B8ue170006ES4_, symObjAddr: 0x6B28, symBinAddr: 0x100009C24, symSize: 0x28 }
  - { offsetInCU: 0x16AD0, offset: 0x16AD0, size: 0x8, addend: 0x0, symName: __ZNSt3__114__split_bufferIPN9BPlusTree4NodeERNS_9allocatorIS3_EEED2Ev, symObjAddr: 0x6B50, symBinAddr: 0x100009C4C, symSize: 0x80 }
  - { offsetInCU: 0x16AFC, offset: 0x16AFC, size: 0x8, addend: 0x0, symName: __ZNSt3__114__split_bufferIPN9BPlusTree4NodeERNS_9allocatorIS3_EEE5clearB8ue170006Ev, symObjAddr: 0x6BD0, symBinAddr: 0x100009CCC, symSize: 0x28 }
  - { offsetInCU: 0x16B22, offset: 0x16B22, size: 0x8, addend: 0x0, symName: __ZNSt3__116allocator_traitsINS_9allocatorIPN9BPlusTree4NodeEEEE10deallocateB8ue170006ERS5_PS4_m, symObjAddr: 0x6BF8, symBinAddr: 0x100009CF4, symSize: 0x34 }
  - { offsetInCU: 0x16B64, offset: 0x16B64, size: 0x8, addend: 0x0, symName: __ZNKSt3__114__split_bufferIPN9BPlusTree4NodeERNS_9allocatorIS3_EEE8capacityB8ue170006Ev, symObjAddr: 0x6C2C, symBinAddr: 0x100009D28, symSize: 0x40 }
  - { offsetInCU: 0x16B8A, offset: 0x16B8A, size: 0x8, addend: 0x0, symName: __ZNSt3__114__split_bufferIPN9BPlusTree4NodeERNS_9allocatorIS3_EEE17__destruct_at_endB8ue170006EPS3_, symObjAddr: 0x6C6C, symBinAddr: 0x100009D68, symSize: 0x2C }
  - { offsetInCU: 0x16BBE, offset: 0x16BBE, size: 0x8, addend: 0x0, symName: __ZNSt3__114__split_bufferIPN9BPlusTree4NodeERNS_9allocatorIS3_EEE17__destruct_at_endB8ue170006EPS3_NS_17integral_constantIbLb0EEE, symObjAddr: 0x6C98, symBinAddr: 0x100009D94, symSize: 0x94 }
  - { offsetInCU: 0x16BFE, offset: 0x16BFE, size: 0x8, addend: 0x0, symName: __ZNSt3__116allocator_traitsINS_9allocatorIPN9BPlusTree4NodeEEEE7destroyB8ue170006IS4_vEEvRS5_PT_, symObjAddr: 0x6D2C, symBinAddr: 0x100009E28, symSize: 0x2C }
  - { offsetInCU: 0x16C3B, offset: 0x16C3B, size: 0x8, addend: 0x0, symName: __ZNSt3__19allocatorIPN9BPlusTree4NodeEE7destroyB8ue170006EPS3_, symObjAddr: 0x6D58, symBinAddr: 0x100009E54, symSize: 0x14 }
  - { offsetInCU: 0x16C6F, offset: 0x16C6F, size: 0x8, addend: 0x0, symName: __ZNSt3__19allocatorIPN9BPlusTree4NodeEE10deallocateB8ue170006EPS3_m, symObjAddr: 0x6D6C, symBinAddr: 0x100009E68, symSize: 0x70 }
  - { offsetInCU: 0x16CB1, offset: 0x16CB1, size: 0x8, addend: 0x0, symName: __ZNKSt3__114__split_bufferIPN9BPlusTree4NodeERNS_9allocatorIS3_EEE9__end_capB8ue170006Ev, symObjAddr: 0x6DDC, symBinAddr: 0x100009ED8, symSize: 0x28 }
  - { offsetInCU: 0x16CD7, offset: 0x16CD7, size: 0x8, addend: 0x0, symName: __ZNKSt3__117__compressed_pairIPPN9BPlusTree4NodeERNS_9allocatorIS3_EEE5firstB8ue170006Ev, symObjAddr: 0x6E04, symBinAddr: 0x100009F00, symSize: 0x24 }
  - { offsetInCU: 0x16CFD, offset: 0x16CFD, size: 0x8, addend: 0x0, symName: __ZN9BPlusTree9getParentEPNS_4NodeES1_, symObjAddr: 0x6E28, symBinAddr: 0x100009F24, symSize: 0x174 }
  - { offsetInCU: 0x16D96, offset: 0x16D96, size: 0x8, addend: 0x0, symName: __ZNSt3__16vectorIPN9BPlusTree4NodeENS_9allocatorIS3_EEE6insertENS_11__wrap_iterIPKS3_EERS8_, symObjAddr: 0x6F9C, symBinAddr: 0x10000A098, symSize: 0x20C }
  - { offsetInCU: 0x16E2E, offset: 0x16E2E, size: 0x8, addend: 0x0, symName: __ZNSt3__16vectorIPN9BPlusTree4NodeENS_9allocatorIS3_EEE5beginB8ue170006Ev, symObjAddr: 0x71A8, symBinAddr: 0x10000A2A4, symSize: 0x30 }
  - { offsetInCU: 0x16E56, offset: 0x16E56, size: 0x8, addend: 0x0, symName: __ZNKSt3__111__wrap_iterIPPN9BPlusTree4NodeEEplB8ue170006El, symObjAddr: 0x71D8, symBinAddr: 0x10000A2D4, symSize: 0x3C }
  - { offsetInCU: 0x16E9D, offset: 0x16E9D, size: 0x8, addend: 0x0, symName: __ZNSt3__111__wrap_iterIPKPN9BPlusTree4NodeEEC1B8ue170006IPS3_EERKNS0_IT_EEPNS_9enable_ifIXsr14is_convertibleIS9_S5_EE5valueEvE4typeE, symObjAddr: 0x7214, symBinAddr: 0x10000A310, symSize: 0x3C }
  - { offsetInCU: 0x16EE8, offset: 0x16EE8, size: 0x8, addend: 0x0, symName: __ZN9BPlusTree9splitNodeEPNS_4NodeE, symObjAddr: 0x7250, symBinAddr: 0x10000A34C, symSize: 0x328 }
  - { offsetInCU: 0x16F6A, offset: 0x16F6A, size: 0x8, addend: 0x0, symName: __ZNSt3__16vectorIPN9BPlusTree4NodeENS_9allocatorIS3_EEE12__move_rangeEPS3_S7_S7_, symObjAddr: 0x75C0, symBinAddr: 0x10000A6BC, symSize: 0x134 }
  - { offsetInCU: 0x17028, offset: 0x17028, size: 0x8, addend: 0x0, symName: __ZNSt3__114pointer_traitsIPKPN9BPlusTree4NodeEE10pointer_toB8ue170006ERS4_, symObjAddr: 0x76F4, symBinAddr: 0x10000A7F0, symSize: 0x14 }
  - { offsetInCU: 0x1704B, offset: 0x1704B, size: 0x8, addend: 0x0, symName: __ZNSt3__114__split_bufferIPN9BPlusTree4NodeERNS_9allocatorIS3_EEE9push_backB8ue170006ERKS3_, symObjAddr: 0x7708, symBinAddr: 0x10000A804, symSize: 0x268 }
  - { offsetInCU: 0x170C4, offset: 0x170C4, size: 0x8, addend: 0x0, symName: __ZNSt3__16vectorIPN9BPlusTree4NodeENS_9allocatorIS3_EEE11__make_iterB8ue170006EPS3_, symObjAddr: 0x7ABC, symBinAddr: 0x10000ABB8, symSize: 0x30 }
  - { offsetInCU: 0x170F9, offset: 0x170F9, size: 0x8, addend: 0x0, symName: __ZNKSt3__111__wrap_iterIPKPN9BPlusTree4NodeEE4baseB8ue170006Ev, symObjAddr: 0x7AEC, symBinAddr: 0x10000ABE8, symSize: 0x18 }
  - { offsetInCU: 0x1711F, offset: 0x1711F, size: 0x8, addend: 0x0, symName: __ZNKSt3__111__wrap_iterIPPN9BPlusTree4NodeEE4baseB8ue170006Ev, symObjAddr: 0x7B04, symBinAddr: 0x10000AC00, symSize: 0x18 }
  - { offsetInCU: 0x17145, offset: 0x17145, size: 0x8, addend: 0x0, symName: __ZNSt3__116allocator_traitsINS_9allocatorIPN9BPlusTree4NodeEEEE9constructB8ue170006IS4_JS4_EvEEvRS5_PT_DpOT0_, symObjAddr: 0x7B1C, symBinAddr: 0x10000AC18, symSize: 0x34 }
  - { offsetInCU: 0x1719C, offset: 0x1719C, size: 0x8, addend: 0x0, symName: __ZNSt3__19allocatorIPN9BPlusTree4NodeEE9constructB8ue170006IS3_JS3_EEEvPT_DpOT0_, symObjAddr: 0x7B90, symBinAddr: 0x10000AC8C, symSize: 0x28 }
  - { offsetInCU: 0x1720B, offset: 0x1720B, size: 0x8, addend: 0x0, symName: __ZNKSt3__123__move_backward_trivialclB8ue170006IPN9BPlusTree4NodeES4_Li0EEENS_4pairIPT_PT0_EES7_S7_S9_, symObjAddr: 0x7D54, symBinAddr: 0x10000AE50, symSize: 0x48 }
  - { offsetInCU: 0x17273, offset: 0x17273, size: 0x8, addend: 0x0, symName: __ZNSt3__14pairIPPN9BPlusTree4NodeES4_EC1B8ue170006ERKS4_S7_, symObjAddr: 0x7FDC, symBinAddr: 0x10000B0D8, symSize: 0x3C }
  - { offsetInCU: 0x172B9, offset: 0x172B9, size: 0x8, addend: 0x0, symName: __ZNSt3__14pairIPPN9BPlusTree4NodeES4_EC2B8ue170006ERKS4_S7_, symObjAddr: 0x8018, symBinAddr: 0x10000B114, symSize: 0x34 }
  - { offsetInCU: 0x172FF, offset: 0x172FF, size: 0x8, addend: 0x0, symName: __ZNSt3__118__unwrap_iter_implIPPN9BPlusTree4NodeELb1EE8__unwrapB8ue170006ES4_, symObjAddr: 0x804C, symBinAddr: 0x10000B148, symSize: 0x24 }
  - { offsetInCU: 0x17322, offset: 0x17322, size: 0x8, addend: 0x0, symName: __ZNSt3__118__unwrap_iter_implIPPN9BPlusTree4NodeELb1EE8__rewrapB8ue170006ES4_S4_, symObjAddr: 0x8070, symBinAddr: 0x10000B16C, symSize: 0x50 }
  - { offsetInCU: 0x17353, offset: 0x17353, size: 0x8, addend: 0x0, symName: __ZNSt3__114__split_bufferIPN9BPlusTree4NodeERNS_9allocatorIS3_EEE18__construct_at_endINS_13move_iteratorIPS3_EEEENS_9enable_ifIXsr31__has_forward_iterator_categoryIT_EE5valueEvE4typeESD_SD_, symObjAddr: 0x8100, symBinAddr: 0x10000B1FC, symSize: 0x60 }
  - { offsetInCU: 0x173A0, offset: 0x173A0, size: 0x8, addend: 0x0, symName: __ZNSt3__113move_iteratorIPPN9BPlusTree4NodeEEC1B8ue170006ES4_, symObjAddr: 0x8160, symBinAddr: 0x10000B25C, symSize: 0x34 }
  - { offsetInCU: 0x173D8, offset: 0x173D8, size: 0x8, addend: 0x0, symName: __ZNKSt3__114__move_trivialclB8ue170006IPN9BPlusTree4NodeES4_Li0EEENS_4pairIPT_PT0_EES7_S7_S9_, symObjAddr: 0x82D0, symBinAddr: 0x10000B3CC, symSize: 0x48 }
  - { offsetInCU: 0x17440, offset: 0x17440, size: 0x8, addend: 0x0, symName: __ZNSt3__114__split_bufferIPN9BPlusTree4NodeERNS_9allocatorIS3_EEE28__construct_at_end_with_sizeINS_13move_iteratorIPS3_EEEEvT_m, symObjAddr: 0x83D0, symBinAddr: 0x10000B4CC, symSize: 0xE4 }
  - { offsetInCU: 0x174A6, offset: 0x174A6, size: 0x8, addend: 0x0, symName: __ZNSt3__114__split_bufferIPN9BPlusTree4NodeERNS_9allocatorIS3_EEE21_ConstructTransactionC1B8ue170006EPPS3_m, symObjAddr: 0x84F0, symBinAddr: 0x10000B5EC, symSize: 0x3C }
  - { offsetInCU: 0x174EC, offset: 0x174EC, size: 0x8, addend: 0x0, symName: __ZNKSt3__113move_iteratorIPPN9BPlusTree4NodeEEdeB8ue170006Ev, symObjAddr: 0x852C, symBinAddr: 0x10000B628, symSize: 0x18 }
  - { offsetInCU: 0x17512, offset: 0x17512, size: 0x8, addend: 0x0, symName: __ZNSt3__113move_iteratorIPPN9BPlusTree4NodeEEppB8ue170006Ev, symObjAddr: 0x8544, symBinAddr: 0x10000B640, symSize: 0x20 }
  - { offsetInCU: 0x17538, offset: 0x17538, size: 0x8, addend: 0x0, symName: __ZNSt3__114__split_bufferIPN9BPlusTree4NodeERNS_9allocatorIS3_EEE21_ConstructTransactionD1B8ue170006Ev, symObjAddr: 0x8564, symBinAddr: 0x10000B660, symSize: 0x2C }
  - { offsetInCU: 0x17562, offset: 0x17562, size: 0x8, addend: 0x0, symName: __ZNSt3__114__split_bufferIPN9BPlusTree4NodeERNS_9allocatorIS3_EEE21_ConstructTransactionC2B8ue170006EPPS3_m, symObjAddr: 0x8590, symBinAddr: 0x10000B68C, symSize: 0x44 }
  - { offsetInCU: 0x175A8, offset: 0x175A8, size: 0x8, addend: 0x0, symName: __ZNSt3__114__split_bufferIPN9BPlusTree4NodeERNS_9allocatorIS3_EEE21_ConstructTransactionD2B8ue170006Ev, symObjAddr: 0x85D4, symBinAddr: 0x10000B6D0, symSize: 0x20 }
  - { offsetInCU: 0x175D2, offset: 0x175D2, size: 0x8, addend: 0x0, symName: __ZNKSt3__113move_iteratorIPPN9BPlusTree4NodeEE4baseB8ue170006Ev, symObjAddr: 0x866C, symBinAddr: 0x10000B768, symSize: 0x18 }
  - { offsetInCU: 0x175F8, offset: 0x175F8, size: 0x8, addend: 0x0, symName: __ZNSt3__113move_iteratorIPPN9BPlusTree4NodeEEC2B8ue170006ES4_, symObjAddr: 0x8684, symBinAddr: 0x10000B780, symSize: 0x20 }
  - { offsetInCU: 0x17630, offset: 0x17630, size: 0x8, addend: 0x0, symName: __ZNSt3__111__wrap_iterIPPN9BPlusTree4NodeEEC1B8ue170006ES4_, symObjAddr: 0x8748, symBinAddr: 0x10000B844, symSize: 0x34 }
  - { offsetInCU: 0x17668, offset: 0x17668, size: 0x8, addend: 0x0, symName: __ZNSt3__111__wrap_iterIPPN9BPlusTree4NodeEEC2B8ue170006ES4_, symObjAddr: 0x877C, symBinAddr: 0x10000B878, symSize: 0x20 }
  - { offsetInCU: 0x176A0, offset: 0x176A0, size: 0x8, addend: 0x0, symName: __ZNSt3__111__wrap_iterIPPN9BPlusTree4NodeEEpLB8ue170006El, symObjAddr: 0x879C, symBinAddr: 0x10000B898, symSize: 0x28 }
  - { offsetInCU: 0x176D4, offset: 0x176D4, size: 0x8, addend: 0x0, symName: __ZNSt3__111__wrap_iterIPKPN9BPlusTree4NodeEEC2B8ue170006IPS3_EERKNS0_IT_EEPNS_9enable_ifIXsr14is_convertibleIS9_S5_EE5valueEvE4typeE, symObjAddr: 0x87C4, symBinAddr: 0x10000B8C0, symSize: 0x40 }
  - { offsetInCU: 0x1771F, offset: 0x1771F, size: 0x8, addend: 0x0, symName: __ZNSt3__16vectorIPN9BPlusTree4NodeENS_9allocatorIS3_EEE6assignINS_11__wrap_iterIPS3_EELi0EEEvT_SB_, symObjAddr: 0x8804, symBinAddr: 0x10000B900, symSize: 0x6C }
  - { offsetInCU: 0x17774, offset: 0x17774, size: 0x8, addend: 0x0, symName: __ZNSt3__16vectorIPN9BPlusTree4NodeENS_9allocatorIS3_EEE3endB8ue170006Ev, symObjAddr: 0x8870, symBinAddr: 0x10000B96C, symSize: 0x30 }
  - { offsetInCU: 0x1779C, offset: 0x1779C, size: 0x8, addend: 0x0, symName: __ZNSt3__16vectorIPN9BPlusTree4NodeENS_9allocatorIS3_EEE5eraseENS_11__wrap_iterIPKS3_EESA_, symObjAddr: 0x88A0, symBinAddr: 0x10000B99C, symSize: 0xD0 }
  - { offsetInCU: 0x177F1, offset: 0x177F1, size: 0x8, addend: 0x0, symName: __ZNSt3__16vectorIPN9BPlusTree4NodeENS_9allocatorIS3_EEE18__assign_with_sizeB8ue170006INS_11__wrap_iterIPS3_EESA_EEvT_T0_l, symObjAddr: 0x8970, symBinAddr: 0x10000BA6C, symSize: 0x194 }
  - { offsetInCU: 0x178A4, offset: 0x178A4, size: 0x8, addend: 0x0, symName: __ZNSt3__16vectorIPN9BPlusTree4NodeENS_9allocatorIS3_EEE18__construct_at_endINS_11__wrap_iterIPS3_EESA_EEvT_T0_m, symObjAddr: 0x8BCC, symBinAddr: 0x10000BCC8, symSize: 0xA4 }
  - { offsetInCU: 0x1791A, offset: 0x1791A, size: 0x8, addend: 0x0, symName: __ZNSt3__16vectorIPN9BPlusTree4NodeENS_9allocatorIS3_EEE17__destruct_at_endB8ue170006EPS3_, symObjAddr: 0x8CC4, symBinAddr: 0x10000BDC0, symSize: 0x4C }
  - { offsetInCU: 0x1795E, offset: 0x1795E, size: 0x8, addend: 0x0, symName: __ZNSt3__16vectorIPN9BPlusTree4NodeENS_9allocatorIS3_EEE13__vdeallocateEv, symObjAddr: 0x8D10, symBinAddr: 0x10000BE0C, symSize: 0x94 }
  - { offsetInCU: 0x17986, offset: 0x17986, size: 0x8, addend: 0x0, symName: __ZNSt3__16vectorIPN9BPlusTree4NodeENS_9allocatorIS3_EEE11__vallocateB8ue170006Em, symObjAddr: 0x8DA4, symBinAddr: 0x10000BEA0, symSize: 0xAC }
  - { offsetInCU: 0x179CA, offset: 0x179CA, size: 0x8, addend: 0x0, symName: __ZNSt3__118__unwrap_iter_implINS_11__wrap_iterIPPN9BPlusTree4NodeEEELb1EE8__unwrapB8ue170006ES6_, symObjAddr: 0x90DC, symBinAddr: 0x10000C1D8, symSize: 0x28 }
  - { offsetInCU: 0x179F2, offset: 0x179F2, size: 0x8, addend: 0x0, symName: __ZNSt3__119__to_address_helperINS_11__wrap_iterIPPN9BPlusTree4NodeEEEvE6__callB8ue170006ERKS6_, symObjAddr: 0x9128, symBinAddr: 0x10000C224, symSize: 0x30 }
  - { offsetInCU: 0x17A15, offset: 0x17A15, size: 0x8, addend: 0x0, symName: __ZNSt3__114pointer_traitsINS_11__wrap_iterIPPN9BPlusTree4NodeEEEE10to_addressB8ue170006ES6_, symObjAddr: 0x9158, symBinAddr: 0x10000C254, symSize: 0x2C }
  - { offsetInCU: 0x17A38, offset: 0x17A38, size: 0x8, addend: 0x0, symName: __ZNSt3__129_AllocatorDestroyRangeReverseINS_9allocatorIPN9BPlusTree4NodeEEEPS4_EC1B8ue170006ERS5_RS6_S9_, symObjAddr: 0x91D0, symBinAddr: 0x10000C2CC, symSize: 0x44 }
  - { offsetInCU: 0x17A8F, offset: 0x17A8F, size: 0x8, addend: 0x0, symName: __ZNSt3__116allocator_traitsINS_9allocatorIPN9BPlusTree4NodeEEEE9constructB8ue170006IS4_JRS4_EvEEvRS5_PT_DpOT0_, symObjAddr: 0x9214, symBinAddr: 0x10000C310, symSize: 0x34 }
  - { offsetInCU: 0x17AE6, offset: 0x17AE6, size: 0x8, addend: 0x0, symName: __ZNSt3__128__exception_guard_exceptionsINS_29_AllocatorDestroyRangeReverseINS_9allocatorIPN9BPlusTree4NodeEEEPS5_EEE10__completeB8ue170006Ev, symObjAddr: 0x9248, symBinAddr: 0x10000C344, symSize: 0x1C }
  - { offsetInCU: 0x17B0C, offset: 0x17B0C, size: 0x8, addend: 0x0, symName: __ZNSt3__128__exception_guard_exceptionsINS_29_AllocatorDestroyRangeReverseINS_9allocatorIPN9BPlusTree4NodeEEEPS5_EEED1B8ue170006Ev, symObjAddr: 0x9264, symBinAddr: 0x10000C360, symSize: 0x2C }
  - { offsetInCU: 0x17B36, offset: 0x17B36, size: 0x8, addend: 0x0, symName: __ZNSt3__128__exception_guard_exceptionsINS_29_AllocatorDestroyRangeReverseINS_9allocatorIPN9BPlusTree4NodeEEEPS5_EEEC1B8ue170006ES8_, symObjAddr: 0x9290, symBinAddr: 0x10000C38C, symSize: 0x34 }
  - { offsetInCU: 0x17B6F, offset: 0x17B6F, size: 0x8, addend: 0x0, symName: __ZNSt3__128__exception_guard_exceptionsINS_29_AllocatorDestroyRangeReverseINS_9allocatorIPN9BPlusTree4NodeEEEPS5_EEEC2B8ue170006ES8_, symObjAddr: 0x92C4, symBinAddr: 0x10000C3C0, symSize: 0x30 }
  - { offsetInCU: 0x17BA8, offset: 0x17BA8, size: 0x8, addend: 0x0, symName: __ZNSt3__129_AllocatorDestroyRangeReverseINS_9allocatorIPN9BPlusTree4NodeEEEPS4_EC2B8ue170006ERS5_RS6_S9_, symObjAddr: 0x92F4, symBinAddr: 0x10000C3F0, symSize: 0x38 }
  - { offsetInCU: 0x17BFF, offset: 0x17BFF, size: 0x8, addend: 0x0, symName: __ZNSt3__19allocatorIPN9BPlusTree4NodeEE9constructB8ue170006IS3_JRS3_EEEvPT_DpOT0_, symObjAddr: 0x932C, symBinAddr: 0x10000C428, symSize: 0x28 }
  - { offsetInCU: 0x17C55, offset: 0x17C55, size: 0x8, addend: 0x0, symName: __ZNSt3__128__exception_guard_exceptionsINS_29_AllocatorDestroyRangeReverseINS_9allocatorIPN9BPlusTree4NodeEEEPS5_EEED2B8ue170006Ev, symObjAddr: 0x9354, symBinAddr: 0x10000C450, symSize: 0x48 }
  - { offsetInCU: 0x17C7F, offset: 0x17C7F, size: 0x8, addend: 0x0, symName: __ZNKSt3__129_AllocatorDestroyRangeReverseINS_9allocatorIPN9BPlusTree4NodeEEEPS4_EclB8ue170006Ev, symObjAddr: 0x939C, symBinAddr: 0x10000C498, symSize: 0x68 }
  - { offsetInCU: 0x17CA5, offset: 0x17CA5, size: 0x8, addend: 0x0, symName: __ZNKSt3__114__copy_trivialclB8ue170006IPN9BPlusTree4NodeES4_Li0EEENS_4pairIPT_PT0_EES7_S7_S9_, symObjAddr: 0x9594, symBinAddr: 0x10000C690, symSize: 0x48 }
  - { offsetInCU: 0x17D26, offset: 0x17D26, size: 0x8, addend: 0x0, symName: __ZNSt3__14pairINS_11__wrap_iterIPPN9BPlusTree4NodeEEES5_EC1B8ue170006ERKS6_RKS5_, symObjAddr: 0x9650, symBinAddr: 0x10000C74C, symSize: 0x3C }
  - { offsetInCU: 0x17D6C, offset: 0x17D6C, size: 0x8, addend: 0x0, symName: __ZNSt3__14pairINS_11__wrap_iterIPPN9BPlusTree4NodeEEES5_EC2B8ue170006ERKS6_RKS5_, symObjAddr: 0x968C, symBinAddr: 0x10000C788, symSize: 0x34 }
  - { offsetInCU: 0x17DB2, offset: 0x17DB2, size: 0x8, addend: 0x0, symName: __ZNSt3__118__unwrap_iter_implINS_11__wrap_iterIPPN9BPlusTree4NodeEEELb1EE8__rewrapB8ue170006ES6_S5_, symObjAddr: 0x9720, symBinAddr: 0x10000C81C, symSize: 0x5C }
  - { offsetInCU: 0x17DE3, offset: 0x17DE3, size: 0x8, addend: 0x0, symName: __ZNSt3__16vectorIPN9BPlusTree4NodeENS_9allocatorIS3_EEE22__base_destruct_at_endB8ue170006EPS3_, symObjAddr: 0x977C, symBinAddr: 0x10000C878, symSize: 0xA0 }
  - { offsetInCU: 0x17E27, offset: 0x17E27, size: 0x8, addend: 0x0, symName: __ZNKSt3__16vectorIPN9BPlusTree4NodeENS_9allocatorIS3_EEE17__annotate_shrinkB8ue170006Em, symObjAddr: 0x981C, symBinAddr: 0x10000C918, symSize: 0xB4 }
  - { offsetInCU: 0x17E5C, offset: 0x17E5C, size: 0x8, addend: 0x0, symName: __ZNSt3__16vectorIPN9BPlusTree4NodeENS_9allocatorIS3_EEE5clearB8ue170006Ev, symObjAddr: 0x98D0, symBinAddr: 0x10000C9CC, symSize: 0x44 }
  - { offsetInCU: 0x17E91, offset: 0x17E91, size: 0x8, addend: 0x0, symName: __ZNSt3__16vectorIPN9BPlusTree4NodeENS_9allocatorIS3_EEE7__clearB8ue170006Ev, symObjAddr: 0x9914, symBinAddr: 0x10000CA10, symSize: 0x28 }
  - { offsetInCU: 0x17EB7, offset: 0x17EB7, size: 0x8, addend: 0x0, symName: __ZN7ComplexC2Edd, symObjAddr: 0x9A78, symBinAddr: 0x10000CB74, symSize: 0x2C }
  - { offsetInCU: 0x17F2A, offset: 0x17F2A, size: 0x8, addend: 0x0, symName: __ZNSt3__15queueIPN9BPlusTree4NodeENS_5dequeIS3_NS_9allocatorIS3_EEEEEC1B8ue170006Ev, symObjAddr: 0x9AA4, symBinAddr: 0x10000CBA0, symSize: 0x2C }
  - { offsetInCU: 0x17F54, offset: 0x17F54, size: 0x8, addend: 0x0, symName: __ZNSt3__15queueIPN9BPlusTree4NodeENS_5dequeIS3_NS_9allocatorIS3_EEEEE4pushB8ue170006ERKS3_, symObjAddr: 0x9AD0, symBinAddr: 0x10000CBCC, symSize: 0x2C }
  - { offsetInCU: 0x17F89, offset: 0x17F89, size: 0x8, addend: 0x0, symName: __ZNKSt3__15queueIPN9BPlusTree4NodeENS_5dequeIS3_NS_9allocatorIS3_EEEEE5emptyB8ue170006Ev, symObjAddr: 0x9AFC, symBinAddr: 0x10000CBF8, symSize: 0x28 }
  - { offsetInCU: 0x17FAF, offset: 0x17FAF, size: 0x8, addend: 0x0, symName: __ZNKSt3__15queueIPN9BPlusTree4NodeENS_5dequeIS3_NS_9allocatorIS3_EEEEE4sizeB8ue170006Ev, symObjAddr: 0x9B24, symBinAddr: 0x10000CC20, symSize: 0x24 }
  - { offsetInCU: 0x17FD5, offset: 0x17FD5, size: 0x8, addend: 0x0, symName: __ZNSt3__15queueIPN9BPlusTree4NodeENS_5dequeIS3_NS_9allocatorIS3_EEEEE5frontB8ue170006Ev, symObjAddr: 0x9B48, symBinAddr: 0x10000CC44, symSize: 0x24 }
  - { offsetInCU: 0x17FFB, offset: 0x17FFB, size: 0x8, addend: 0x0, symName: __ZNSt3__15queueIPN9BPlusTree4NodeENS_5dequeIS3_NS_9allocatorIS3_EEEEE3popB8ue170006Ev, symObjAddr: 0x9B6C, symBinAddr: 0x10000CC68, symSize: 0x24 }
  - { offsetInCU: 0x18021, offset: 0x18021, size: 0x8, addend: 0x0, symName: __ZNKSt3__111__wrap_iterIP7ComplexEdeB8ue170006Ev, symObjAddr: 0x9BC4, symBinAddr: 0x10000CCC0, symSize: 0x18 }
  - { offsetInCU: 0x18046, offset: 0x18046, size: 0x8, addend: 0x0, symName: __ZlsRNSt3__113basic_ostreamIcNS_11char_traitsIcEEEERK7Complex, symObjAddr: 0x9BDC, symBinAddr: 0x10000CCD8, symSize: 0xB0 }
  - { offsetInCU: 0x18081, offset: 0x18081, size: 0x8, addend: 0x0, symName: __ZNSt3__111__wrap_iterIP7ComplexEppB8ue170006Ev, symObjAddr: 0x9C8C, symBinAddr: 0x10000CD88, symSize: 0x20 }
  - { offsetInCU: 0x180A7, offset: 0x180A7, size: 0x8, addend: 0x0, symName: __ZNKSt3__111__wrap_iterIPPN9BPlusTree4NodeEEdeB8ue170006Ev, symObjAddr: 0x9CE0, symBinAddr: 0x10000CDDC, symSize: 0x18 }
  - { offsetInCU: 0x180CD, offset: 0x180CD, size: 0x8, addend: 0x0, symName: __ZNSt3__111__wrap_iterIPPN9BPlusTree4NodeEEppB8ue170006Ev, symObjAddr: 0x9CF8, symBinAddr: 0x10000CDF4, symSize: 0x20 }
  - { offsetInCU: 0x180F3, offset: 0x180F3, size: 0x8, addend: 0x0, symName: __ZNSt3__15queueIPN9BPlusTree4NodeENS_5dequeIS3_NS_9allocatorIS3_EEEEED1Ev, symObjAddr: 0x9D18, symBinAddr: 0x10000CE14, symSize: 0x2C }
  - { offsetInCU: 0x18120, offset: 0x18120, size: 0x8, addend: 0x0, symName: __ZNSt3__15queueIPN9BPlusTree4NodeENS_5dequeIS3_NS_9allocatorIS3_EEEEEC2B8ue170006Ev, symObjAddr: 0x9D44, symBinAddr: 0x10000CE40, symSize: 0x2C }
  - { offsetInCU: 0x1814A, offset: 0x1814A, size: 0x8, addend: 0x0, symName: __ZNSt3__15dequeIPN9BPlusTree4NodeENS_9allocatorIS3_EEEC1B8ue170006Ev, symObjAddr: 0x9D70, symBinAddr: 0x10000CE6C, symSize: 0x2C }
  - { offsetInCU: 0x18174, offset: 0x18174, size: 0x8, addend: 0x0, symName: __ZNSt3__15dequeIPN9BPlusTree4NodeENS_9allocatorIS3_EEEC2B8ue170006Ev, symObjAddr: 0x9D9C, symBinAddr: 0x10000CE98, symSize: 0x84 }
  - { offsetInCU: 0x1819E, offset: 0x1819E, size: 0x8, addend: 0x0, symName: __ZNSt3__114__split_bufferIPPN9BPlusTree4NodeENS_9allocatorIS4_EEEC1B8ue170006Ev, symObjAddr: 0x9E20, symBinAddr: 0x10000CF1C, symSize: 0x2C }
  - { offsetInCU: 0x181CD, offset: 0x181CD, size: 0x8, addend: 0x0, symName: __ZNSt3__117__compressed_pairImNS_9allocatorIPN9BPlusTree4NodeEEEEC1B8ue170006IiNS_18__default_init_tagEEEOT_OT0_, symObjAddr: 0x9E4C, symBinAddr: 0x10000CF48, symSize: 0x3C }
  - { offsetInCU: 0x18225, offset: 0x18225, size: 0x8, addend: 0x0, symName: __ZNKSt3__15dequeIPN9BPlusTree4NodeENS_9allocatorIS3_EEE14__annotate_newB8ue170006Em, symObjAddr: 0x9E88, symBinAddr: 0x10000CF84, symSize: 0xDC }
  - { offsetInCU: 0x1825A, offset: 0x1825A, size: 0x8, addend: 0x0, symName: __ZNSt3__114__split_bufferIPPN9BPlusTree4NodeENS_9allocatorIS4_EEED1Ev, symObjAddr: 0x9F64, symBinAddr: 0x10000D060, symSize: 0x2C }
  - { offsetInCU: 0x18286, offset: 0x18286, size: 0x8, addend: 0x0, symName: __ZNSt3__114__split_bufferIPPN9BPlusTree4NodeENS_9allocatorIS4_EEEC2B8ue170006Ev, symObjAddr: 0x9F90, symBinAddr: 0x10000D08C, symSize: 0x48 }
  - { offsetInCU: 0x182B0, offset: 0x182B0, size: 0x8, addend: 0x0, symName: __ZNSt3__117__compressed_pairIPPPN9BPlusTree4NodeENS_9allocatorIS4_EEEC1B8ue170006IDnNS_18__default_init_tagEEEOT_OT0_, symObjAddr: 0x9FD8, symBinAddr: 0x10000D0D4, symSize: 0x3C }
  - { offsetInCU: 0x18308, offset: 0x18308, size: 0x8, addend: 0x0, symName: __ZNSt3__117__compressed_pairIPPPN9BPlusTree4NodeENS_9allocatorIS4_EEEC2B8ue170006IDnNS_18__default_init_tagEEEOT_OT0_, symObjAddr: 0xA014, symBinAddr: 0x10000D110, symSize: 0x40 }
  - { offsetInCU: 0x18360, offset: 0x18360, size: 0x8, addend: 0x0, symName: __ZNSt3__122__compressed_pair_elemIPPPN9BPlusTree4NodeELi0ELb0EEC2B8ue170006IDnvEEOT_, symObjAddr: 0xA054, symBinAddr: 0x10000D150, symSize: 0x1C }
  - { offsetInCU: 0x183A2, offset: 0x183A2, size: 0x8, addend: 0x0, symName: __ZNSt3__122__compressed_pair_elemINS_9allocatorIPPN9BPlusTree4NodeEEELi1ELb1EEC2B8ue170006ENS_18__default_init_tagE, symObjAddr: 0xA070, symBinAddr: 0x10000D16C, symSize: 0x2C }
  - { offsetInCU: 0x183D6, offset: 0x183D6, size: 0x8, addend: 0x0, symName: __ZNSt3__19allocatorIPPN9BPlusTree4NodeEEC2B8ue170006Ev, symObjAddr: 0xA09C, symBinAddr: 0x10000D198, symSize: 0x2C }
  - { offsetInCU: 0x18400, offset: 0x18400, size: 0x8, addend: 0x0, symName: __ZNSt3__116__non_trivial_ifILb1ENS_9allocatorIPPN9BPlusTree4NodeEEEEC2B8ue170006Ev, symObjAddr: 0xA0C8, symBinAddr: 0x10000D1C4, symSize: 0x14 }
  - { offsetInCU: 0x1842A, offset: 0x1842A, size: 0x8, addend: 0x0, symName: __ZNSt3__117__compressed_pairImNS_9allocatorIPN9BPlusTree4NodeEEEEC2B8ue170006IiNS_18__default_init_tagEEEOT_OT0_, symObjAddr: 0xA0DC, symBinAddr: 0x10000D1D8, symSize: 0x40 }
  - { offsetInCU: 0x18482, offset: 0x18482, size: 0x8, addend: 0x0, symName: __ZNSt3__122__compressed_pair_elemImLi0ELb0EEC2B8ue170006IivEEOT_, symObjAddr: 0xA11C, symBinAddr: 0x10000D218, symSize: 0x24 }
  - { offsetInCU: 0x184C4, offset: 0x184C4, size: 0x8, addend: 0x0, symName: __ZNKSt3__15dequeIPN9BPlusTree4NodeENS_9allocatorIS3_EEE18__annotate_from_toB8ue170006EmmNS6_22__asan_annotation_typeENS6_23__asan_annotation_placeE, symObjAddr: 0xA140, symBinAddr: 0x10000D23C, symSize: 0x580 }
  - { offsetInCU: 0x18682, offset: 0x18682, size: 0x8, addend: 0x0, symName: __ZNKSt3__114__split_bufferIPPN9BPlusTree4NodeENS_9allocatorIS4_EEE4sizeB8ue170006Ev, symObjAddr: 0xA6C0, symBinAddr: 0x10000D7BC, symSize: 0x28 }
  - { offsetInCU: 0x186A8, offset: 0x186A8, size: 0x8, addend: 0x0, symName: __ZNKSt3__114__split_bufferIPPN9BPlusTree4NodeENS_9allocatorIS4_EEE5beginB8ue170006Ev, symObjAddr: 0xA6E8, symBinAddr: 0x10000D7E4, symSize: 0x18 }
  - { offsetInCU: 0x186CE, offset: 0x186CE, size: 0x8, addend: 0x0, symName: __ZNKSt3__15dequeIPN9BPlusTree4NodeENS_9allocatorIS3_EEE4sizeB8ue170006Ev, symObjAddr: 0xA700, symBinAddr: 0x10000D7FC, symSize: 0x28 }
  - { offsetInCU: 0x186F4, offset: 0x186F4, size: 0x8, addend: 0x0, symName: __ZNKSt3__15dequeIPN9BPlusTree4NodeENS_9allocatorIS3_EEE5emptyB8ue170006Ev, symObjAddr: 0xA728, symBinAddr: 0x10000D824, symSize: 0x30 }
  - { offsetInCU: 0x1871A, offset: 0x1871A, size: 0x8, addend: 0x0, symName: __ZNKSt3__15dequeIPN9BPlusTree4NodeENS_9allocatorIS3_EEE44__annotate_double_ended_contiguous_containerB8ue170006EPKvS8_S8_S8_S8_S8_, symObjAddr: 0xA758, symBinAddr: 0x10000D854, symSize: 0x28 }
  - { offsetInCU: 0x18782, offset: 0x18782, size: 0x8, addend: 0x0, symName: __ZNKSt3__15dequeIPN9BPlusTree4NodeENS_9allocatorIS3_EEE6__sizeB8ue170006Ev, symObjAddr: 0xA780, symBinAddr: 0x10000D87C, symSize: 0x28 }
  - { offsetInCU: 0x187A8, offset: 0x187A8, size: 0x8, addend: 0x0, symName: __ZNKSt3__117__compressed_pairImNS_9allocatorIPN9BPlusTree4NodeEEEE5firstB8ue170006Ev, symObjAddr: 0xA7A8, symBinAddr: 0x10000D8A4, symSize: 0x24 }
  - { offsetInCU: 0x187CE, offset: 0x187CE, size: 0x8, addend: 0x0, symName: __ZNKSt3__122__compressed_pair_elemImLi0ELb0EE5__getB8ue170006Ev, symObjAddr: 0xA7CC, symBinAddr: 0x10000D8C8, symSize: 0x14 }
  - { offsetInCU: 0x187F4, offset: 0x187F4, size: 0x8, addend: 0x0, symName: __ZNSt3__114__split_bufferIPPN9BPlusTree4NodeENS_9allocatorIS4_EEED2Ev, symObjAddr: 0xA7E0, symBinAddr: 0x10000D8DC, symSize: 0x80 }
  - { offsetInCU: 0x18820, offset: 0x18820, size: 0x8, addend: 0x0, symName: __ZNSt3__114__split_bufferIPPN9BPlusTree4NodeENS_9allocatorIS4_EEE5clearB8ue170006Ev, symObjAddr: 0xA860, symBinAddr: 0x10000D95C, symSize: 0x28 }
  - { offsetInCU: 0x18846, offset: 0x18846, size: 0x8, addend: 0x0, symName: __ZNSt3__116allocator_traitsINS_9allocatorIPPN9BPlusTree4NodeEEEE10deallocateB8ue170006ERS6_PS5_m, symObjAddr: 0xA888, symBinAddr: 0x10000D984, symSize: 0x34 }
  - { offsetInCU: 0x18888, offset: 0x18888, size: 0x8, addend: 0x0, symName: __ZNSt3__114__split_bufferIPPN9BPlusTree4NodeENS_9allocatorIS4_EEE7__allocB8ue170006Ev, symObjAddr: 0xA8BC, symBinAddr: 0x10000D9B8, symSize: 0x28 }
  - { offsetInCU: 0x188AE, offset: 0x188AE, size: 0x8, addend: 0x0, symName: __ZNKSt3__114__split_bufferIPPN9BPlusTree4NodeENS_9allocatorIS4_EEE8capacityB8ue170006Ev, symObjAddr: 0xA8E4, symBinAddr: 0x10000D9E0, symSize: 0x40 }
  - { offsetInCU: 0x188D4, offset: 0x188D4, size: 0x8, addend: 0x0, symName: __ZNSt3__114__split_bufferIPPN9BPlusTree4NodeENS_9allocatorIS4_EEE17__destruct_at_endB8ue170006EPS4_, symObjAddr: 0xA924, symBinAddr: 0x10000DA20, symSize: 0x2C }
  - { offsetInCU: 0x18908, offset: 0x18908, size: 0x8, addend: 0x0, symName: __ZNSt3__114__split_bufferIPPN9BPlusTree4NodeENS_9allocatorIS4_EEE17__destruct_at_endB8ue170006EPS4_NS_17integral_constantIbLb0EEE, symObjAddr: 0xA950, symBinAddr: 0x10000DA4C, symSize: 0x94 }
  - { offsetInCU: 0x18948, offset: 0x18948, size: 0x8, addend: 0x0, symName: __ZNSt3__116allocator_traitsINS_9allocatorIPPN9BPlusTree4NodeEEEE7destroyB8ue170006IS5_vEEvRS6_PT_, symObjAddr: 0xA9E4, symBinAddr: 0x10000DAE0, symSize: 0x2C }
  - { offsetInCU: 0x18985, offset: 0x18985, size: 0x8, addend: 0x0, symName: __ZNSt3__19allocatorIPPN9BPlusTree4NodeEE7destroyB8ue170006EPS4_, symObjAddr: 0xAA24, symBinAddr: 0x10000DB20, symSize: 0x14 }
  - { offsetInCU: 0x189B9, offset: 0x189B9, size: 0x8, addend: 0x0, symName: __ZNSt3__19allocatorIPPN9BPlusTree4NodeEE10deallocateB8ue170006EPS4_m, symObjAddr: 0xAA38, symBinAddr: 0x10000DB34, symSize: 0x70 }
  - { offsetInCU: 0x189FB, offset: 0x189FB, size: 0x8, addend: 0x0, symName: __ZNSt3__117__compressed_pairIPPPN9BPlusTree4NodeENS_9allocatorIS4_EEE6secondB8ue170006Ev, symObjAddr: 0xAAA8, symBinAddr: 0x10000DBA4, symSize: 0x24 }
  - { offsetInCU: 0x18A21, offset: 0x18A21, size: 0x8, addend: 0x0, symName: __ZNSt3__122__compressed_pair_elemINS_9allocatorIPPN9BPlusTree4NodeEEELi1ELb1EE5__getB8ue170006Ev, symObjAddr: 0xAACC, symBinAddr: 0x10000DBC8, symSize: 0x14 }
  - { offsetInCU: 0x18A47, offset: 0x18A47, size: 0x8, addend: 0x0, symName: __ZNKSt3__114__split_bufferIPPN9BPlusTree4NodeENS_9allocatorIS4_EEE9__end_capB8ue170006Ev, symObjAddr: 0xAAE0, symBinAddr: 0x10000DBDC, symSize: 0x28 }
  - { offsetInCU: 0x18A6D, offset: 0x18A6D, size: 0x8, addend: 0x0, symName: __ZNKSt3__117__compressed_pairIPPPN9BPlusTree4NodeENS_9allocatorIS4_EEE5firstB8ue170006Ev, symObjAddr: 0xAB08, symBinAddr: 0x10000DC04, symSize: 0x24 }
  - { offsetInCU: 0x18A93, offset: 0x18A93, size: 0x8, addend: 0x0, symName: __ZNKSt3__122__compressed_pair_elemIPPPN9BPlusTree4NodeELi0ELb0EE5__getB8ue170006Ev, symObjAddr: 0xAB2C, symBinAddr: 0x10000DC28, symSize: 0x14 }
  - { offsetInCU: 0x18AB9, offset: 0x18AB9, size: 0x8, addend: 0x0, symName: __ZNSt3__15dequeIPN9BPlusTree4NodeENS_9allocatorIS3_EEE9push_backERKS3_, symObjAddr: 0xAB40, symBinAddr: 0x10000DC3C, symSize: 0xAC }
  - { offsetInCU: 0x18AFF, offset: 0x18AFF, size: 0x8, addend: 0x0, symName: __ZNSt3__15dequeIPN9BPlusTree4NodeENS_9allocatorIS3_EEE7__allocB8ue170006Ev, symObjAddr: 0xABEC, symBinAddr: 0x10000DCE8, symSize: 0x28 }
  - { offsetInCU: 0x18B25, offset: 0x18B25, size: 0x8, addend: 0x0, symName: __ZNKSt3__15dequeIPN9BPlusTree4NodeENS_9allocatorIS3_EEE12__back_spareB8ue170006Ev, symObjAddr: 0xAC14, symBinAddr: 0x10000DD10, symSize: 0x54 }
  - { offsetInCU: 0x18B4B, offset: 0x18B4B, size: 0x8, addend: 0x0, symName: __ZNSt3__15dequeIPN9BPlusTree4NodeENS_9allocatorIS3_EEE19__add_back_capacityEv, symObjAddr: 0xAC68, symBinAddr: 0x10000DD64, symSize: 0x364 }
  - { offsetInCU: 0x18C03, offset: 0x18C03, size: 0x8, addend: 0x0, symName: __ZNKSt3__15dequeIPN9BPlusTree4NodeENS_9allocatorIS3_EEE24__annotate_increase_backB8ue170006Em, symObjAddr: 0xAFCC, symBinAddr: 0x10000E0C8, symSize: 0x7C }
  - { offsetInCU: 0x18C38, offset: 0x18C38, size: 0x8, addend: 0x0, symName: __ZNSt3__15dequeIPN9BPlusTree4NodeENS_9allocatorIS3_EEE3endB8ue170006Ev, symObjAddr: 0xB048, symBinAddr: 0x10000E144, symSize: 0xE0 }
  - { offsetInCU: 0x18C7C, offset: 0x18C7C, size: 0x8, addend: 0x0, symName: __ZNKSt3__116__deque_iteratorIPN9BPlusTree4NodeEPS3_RS3_PS4_lLl512EEdeB8ue170006Ev, symObjAddr: 0xB128, symBinAddr: 0x10000E224, symSize: 0x18 }
  - { offsetInCU: 0x18CA2, offset: 0x18CA2, size: 0x8, addend: 0x0, symName: __ZNSt3__15dequeIPN9BPlusTree4NodeENS_9allocatorIS3_EEE6__sizeB8ue170006Ev, symObjAddr: 0xB140, symBinAddr: 0x10000E23C, symSize: 0x28 }
  - { offsetInCU: 0x18CC8, offset: 0x18CC8, size: 0x8, addend: 0x0, symName: __ZNSt3__117__compressed_pairImNS_9allocatorIPN9BPlusTree4NodeEEEE6secondB8ue170006Ev, symObjAddr: 0xB168, symBinAddr: 0x10000E264, symSize: 0x24 }
  - { offsetInCU: 0x18CEE, offset: 0x18CEE, size: 0x8, addend: 0x0, symName: __ZNKSt3__15dequeIPN9BPlusTree4NodeENS_9allocatorIS3_EEE10__capacityB8ue170006Ev, symObjAddr: 0xB18C, symBinAddr: 0x10000E288, symSize: 0x60 }
  - { offsetInCU: 0x18D14, offset: 0x18D14, size: 0x8, addend: 0x0, symName: __ZNKSt3__15dequeIPN9BPlusTree4NodeENS_9allocatorIS3_EEE13__front_spareB8ue170006Ev, symObjAddr: 0xB1EC, symBinAddr: 0x10000E2E8, symSize: 0x18 }
  - { offsetInCU: 0x18D3A, offset: 0x18D3A, size: 0x8, addend: 0x0, symName: __ZNSt3__114__split_bufferIPPN9BPlusTree4NodeENS_9allocatorIS4_EEE5frontB8ue170006Ev, symObjAddr: 0xB204, symBinAddr: 0x10000E300, symSize: 0x18 }
  - { offsetInCU: 0x18D60, offset: 0x18D60, size: 0x8, addend: 0x0, symName: __ZNSt3__114__split_bufferIPPN9BPlusTree4NodeENS_9allocatorIS4_EEE9pop_frontB8ue170006Ev, symObjAddr: 0xB21C, symBinAddr: 0x10000E318, symSize: 0x2C }
  - { offsetInCU: 0x18D86, offset: 0x18D86, size: 0x8, addend: 0x0, symName: __ZNSt3__114__split_bufferIPPN9BPlusTree4NodeENS_9allocatorIS4_EEE9push_backB8ue170006ERKS4_, symObjAddr: 0xB248, symBinAddr: 0x10000E344, symSize: 0x270 }
  - { offsetInCU: 0x18DFF, offset: 0x18DFF, size: 0x8, addend: 0x0, symName: __ZNKSt3__114__split_bufferIPPN9BPlusTree4NodeENS_9allocatorIS4_EEE12__back_spareB8ue170006Ev, symObjAddr: 0xB4B8, symBinAddr: 0x10000E5B4, symSize: 0x40 }
  - { offsetInCU: 0x18E25, offset: 0x18E25, size: 0x8, addend: 0x0, symName: __ZNSt3__114__split_bufferIPPN9BPlusTree4NodeENS_9allocatorIS4_EEE9push_backEOS4_, symObjAddr: 0xB4F8, symBinAddr: 0x10000E5F4, symSize: 0x270 }
  - { offsetInCU: 0x18E9E, offset: 0x18E9E, size: 0x8, addend: 0x0, symName: __ZNSt3__116allocator_traitsINS_9allocatorIPN9BPlusTree4NodeEEEE8allocateB8ue170006ERS5_m, symObjAddr: 0xB768, symBinAddr: 0x10000E864, symSize: 0x2C }
  - { offsetInCU: 0x18ED1, offset: 0x18ED1, size: 0x8, addend: 0x0, symName: __ZNSt3__114__split_bufferIPPN9BPlusTree4NodeENS_9allocatorIS4_EEE10push_frontEOS4_, symObjAddr: 0xB794, symBinAddr: 0x10000E890, symSize: 0x26C }
  - { offsetInCU: 0x18F4A, offset: 0x18F4A, size: 0x8, addend: 0x0, symName: __ZNKSt3__15dequeIPN9BPlusTree4NodeENS_9allocatorIS3_EEE22__annotate_whole_blockB8ue170006EmNS6_22__asan_annotation_typeE, symObjAddr: 0xBA00, symBinAddr: 0x10000EAFC, symSize: 0xAC }
  - { offsetInCU: 0x18FBB, offset: 0x18FBB, size: 0x8, addend: 0x0, symName: __ZNSt3__114__split_bufferIPPN9BPlusTree4NodeERNS_9allocatorIS4_EEEC1EmmS7_, symObjAddr: 0xBAAC, symBinAddr: 0x10000EBA8, symSize: 0x44 }
  - { offsetInCU: 0x19016, offset: 0x19016, size: 0x8, addend: 0x0, symName: __ZNSt3__122__allocator_destructorINS_9allocatorIPN9BPlusTree4NodeEEEEC1B8ue170006ERS5_m, symObjAddr: 0xBAF0, symBinAddr: 0x10000EBEC, symSize: 0x3C }
  - { offsetInCU: 0x190CA, offset: 0x190CA, size: 0x8, addend: 0x0, symName: __ZNSt3__110unique_ptrIPPN9BPlusTree4NodeENS_22__allocator_destructorINS_9allocatorIS3_EEEEEC1B8ue170006ILb1EvEES4_NS_16__dependent_typeINS_27__unique_ptr_deleter_sfinaeIS8_EEXT_EE20__good_rval_ref_typeE, symObjAddr: 0xBB2C, symBinAddr: 0x10000EC28, symSize: 0x3C }
  - { offsetInCU: 0x1911B, offset: 0x1911B, size: 0x8, addend: 0x0, symName: __ZNSt3__114__split_bufferIPPN9BPlusTree4NodeERNS_9allocatorIS4_EEE9push_backEOS4_, symObjAddr: 0xBB68, symBinAddr: 0x10000EC64, symSize: 0x270 }
  - { offsetInCU: 0x19194, offset: 0x19194, size: 0x8, addend: 0x0, symName: __ZNKSt3__110unique_ptrIPPN9BPlusTree4NodeENS_22__allocator_destructorINS_9allocatorIS3_EEEEE3getB8ue170006Ev, symObjAddr: 0xBDD8, symBinAddr: 0x10000EED4, symSize: 0x28 }
  - { offsetInCU: 0x191BA, offset: 0x191BA, size: 0x8, addend: 0x0, symName: __ZNSt3__110unique_ptrIPPN9BPlusTree4NodeENS_22__allocator_destructorINS_9allocatorIS3_EEEEE7releaseB8ue170006Ev, symObjAddr: 0xBE00, symBinAddr: 0x10000EEFC, symSize: 0x44 }
  - { offsetInCU: 0x191EF, offset: 0x191EF, size: 0x8, addend: 0x0, symName: __ZNSt3__114__split_bufferIPPN9BPlusTree4NodeENS_9allocatorIS4_EEE3endB8ue170006Ev, symObjAddr: 0xBE44, symBinAddr: 0x10000EF40, symSize: 0x18 }
  - { offsetInCU: 0x19215, offset: 0x19215, size: 0x8, addend: 0x0, symName: __ZNSt3__114__split_bufferIPPN9BPlusTree4NodeENS_9allocatorIS4_EEE5beginB8ue170006Ev, symObjAddr: 0xBE5C, symBinAddr: 0x10000EF58, symSize: 0x18 }
  - { offsetInCU: 0x1923B, offset: 0x1923B, size: 0x8, addend: 0x0, symName: __ZNSt3__114__split_bufferIPPN9BPlusTree4NodeERNS_9allocatorIS4_EEE10push_frontERKS4_, symObjAddr: 0xBE74, symBinAddr: 0x10000EF70, symSize: 0x26C }
  - { offsetInCU: 0x192B4, offset: 0x192B4, size: 0x8, addend: 0x0, symName: __ZNSt3__114__split_bufferIPPN9BPlusTree4NodeENS_9allocatorIS4_EEE9__end_capB8ue170006Ev, symObjAddr: 0xC11C, symBinAddr: 0x10000F218, symSize: 0x28 }
  - { offsetInCU: 0x192DA, offset: 0x192DA, size: 0x8, addend: 0x0, symName: __ZNSt3__114__split_bufferIPPN9BPlusTree4NodeERNS_9allocatorIS4_EEE9__end_capB8ue170006Ev, symObjAddr: 0xC144, symBinAddr: 0x10000F240, symSize: 0x28 }
  - { offsetInCU: 0x19300, offset: 0x19300, size: 0x8, addend: 0x0, symName: __ZNSt3__110unique_ptrIPPN9BPlusTree4NodeENS_22__allocator_destructorINS_9allocatorIS3_EEEEED1B8ue170006Ev, symObjAddr: 0xC16C, symBinAddr: 0x10000F268, symSize: 0x2C }
  - { offsetInCU: 0x1932A, offset: 0x1932A, size: 0x8, addend: 0x0, symName: __ZNSt3__114__split_bufferIPPN9BPlusTree4NodeERNS_9allocatorIS4_EEED1Ev, symObjAddr: 0xC198, symBinAddr: 0x10000F294, symSize: 0x2C }
  - { offsetInCU: 0x19356, offset: 0x19356, size: 0x8, addend: 0x0, symName: __ZNSt3__114__split_bufferIPPN9BPlusTree4NodeENS_9allocatorIS4_EEE19__destruct_at_beginB8ue170006EPS4_, symObjAddr: 0xC1C4, symBinAddr: 0x10000F2C0, symSize: 0x2C }
  - { offsetInCU: 0x1938A, offset: 0x1938A, size: 0x8, addend: 0x0, symName: __ZNSt3__114__split_bufferIPPN9BPlusTree4NodeENS_9allocatorIS4_EEE19__destruct_at_beginEPS4_NS_17integral_constantIbLb1EEE, symObjAddr: 0xC1F0, symBinAddr: 0x10000F2EC, symSize: 0x20 }
  - { offsetInCU: 0x193CA, offset: 0x193CA, size: 0x8, addend: 0x0, symName: __ZNSt3__114__split_bufferIPPN9BPlusTree4NodeERNS_9allocatorIS4_EEE18__construct_at_endINS_13move_iteratorIPS4_EEEENS_9enable_ifIXsr31__has_forward_iterator_categoryIT_EE5valueEvE4typeESE_SE_, symObjAddr: 0xC250, symBinAddr: 0x10000F34C, symSize: 0x60 }
  - { offsetInCU: 0x19417, offset: 0x19417, size: 0x8, addend: 0x0, symName: __ZNSt3__113move_iteratorIPPPN9BPlusTree4NodeEEC1B8ue170006ES5_, symObjAddr: 0xC2B0, symBinAddr: 0x10000F3AC, symSize: 0x34 }
  - { offsetInCU: 0x1944F, offset: 0x1944F, size: 0x8, addend: 0x0, symName: __ZNSt3__116allocator_traitsINS_9allocatorIPPN9BPlusTree4NodeEEEE9constructB8ue170006IS5_JRKS5_EvEEvRS6_PT_DpOT0_, symObjAddr: 0xC2E4, symBinAddr: 0x10000F3E0, symSize: 0x34 }
  - { offsetInCU: 0x194BF, offset: 0x194BF, size: 0x8, addend: 0x0, symName: __ZNKSt3__114__move_trivialclB8ue170006IPPN9BPlusTree4NodeES5_Li0EEENS_4pairIPT_PT0_EES8_S8_SA_, symObjAddr: 0xC4B4, symBinAddr: 0x10000F5B0, symSize: 0x48 }
  - { offsetInCU: 0x19527, offset: 0x19527, size: 0x8, addend: 0x0, symName: __ZNSt3__14pairIPPPN9BPlusTree4NodeES5_EC1B8ue170006ERKS5_S8_, symObjAddr: 0xC72C, symBinAddr: 0x10000F828, symSize: 0x3C }
  - { offsetInCU: 0x1956D, offset: 0x1956D, size: 0x8, addend: 0x0, symName: __ZNSt3__14pairIPPPN9BPlusTree4NodeES5_EC2B8ue170006ERKS5_S8_, symObjAddr: 0xC768, symBinAddr: 0x10000F864, symSize: 0x34 }
  - { offsetInCU: 0x195B3, offset: 0x195B3, size: 0x8, addend: 0x0, symName: __ZNSt3__118__unwrap_iter_implIPPPN9BPlusTree4NodeELb1EE8__unwrapB8ue170006ES5_, symObjAddr: 0xC79C, symBinAddr: 0x10000F898, symSize: 0x24 }
  - { offsetInCU: 0x195D6, offset: 0x195D6, size: 0x8, addend: 0x0, symName: __ZNSt3__118__unwrap_iter_implIPPPN9BPlusTree4NodeELb1EE8__rewrapB8ue170006ES5_S5_, symObjAddr: 0xC7C0, symBinAddr: 0x10000F8BC, symSize: 0x50 }
  - { offsetInCU: 0x19607, offset: 0x19607, size: 0x8, addend: 0x0, symName: __ZNSt3__114__split_bufferIPPN9BPlusTree4NodeERNS_9allocatorIS4_EEE28__construct_at_end_with_sizeINS_13move_iteratorIPS4_EEEEvT_m, symObjAddr: 0xC810, symBinAddr: 0x10000F90C, symSize: 0xE4 }
  - { offsetInCU: 0x1966D, offset: 0x1966D, size: 0x8, addend: 0x0, symName: __ZNSt3__114__split_bufferIPPN9BPlusTree4NodeERNS_9allocatorIS4_EEE21_ConstructTransactionC1B8ue170006EPPS4_m, symObjAddr: 0xC930, symBinAddr: 0x10000FA2C, symSize: 0x3C }
  - { offsetInCU: 0x196B3, offset: 0x196B3, size: 0x8, addend: 0x0, symName: __ZNSt3__116allocator_traitsINS_9allocatorIPPN9BPlusTree4NodeEEEE9constructB8ue170006IS5_JS5_EvEEvRS6_PT_DpOT0_, symObjAddr: 0xC96C, symBinAddr: 0x10000FA68, symSize: 0x34 }
  - { offsetInCU: 0x1970A, offset: 0x1970A, size: 0x8, addend: 0x0, symName: __ZNSt3__114__split_bufferIPPN9BPlusTree4NodeERNS_9allocatorIS4_EEE7__allocB8ue170006Ev, symObjAddr: 0xC9A0, symBinAddr: 0x10000FA9C, symSize: 0x28 }
  - { offsetInCU: 0x19730, offset: 0x19730, size: 0x8, addend: 0x0, symName: __ZNKSt3__113move_iteratorIPPPN9BPlusTree4NodeEEdeB8ue170006Ev, symObjAddr: 0xC9C8, symBinAddr: 0x10000FAC4, symSize: 0x18 }
  - { offsetInCU: 0x19756, offset: 0x19756, size: 0x8, addend: 0x0, symName: __ZNSt3__113move_iteratorIPPPN9BPlusTree4NodeEEppB8ue170006Ev, symObjAddr: 0xC9E0, symBinAddr: 0x10000FADC, symSize: 0x20 }
  - { offsetInCU: 0x1977C, offset: 0x1977C, size: 0x8, addend: 0x0, symName: __ZNSt3__114__split_bufferIPPN9BPlusTree4NodeERNS_9allocatorIS4_EEE21_ConstructTransactionD1B8ue170006Ev, symObjAddr: 0xCA00, symBinAddr: 0x10000FAFC, symSize: 0x2C }
  - { offsetInCU: 0x197A6, offset: 0x197A6, size: 0x8, addend: 0x0, symName: __ZNSt3__114__split_bufferIPPN9BPlusTree4NodeERNS_9allocatorIS4_EEE21_ConstructTransactionC2B8ue170006EPPS4_m, symObjAddr: 0xCA2C, symBinAddr: 0x10000FB28, symSize: 0x44 }
  - { offsetInCU: 0x197EC, offset: 0x197EC, size: 0x8, addend: 0x0, symName: __ZNSt3__19allocatorIPPN9BPlusTree4NodeEE9constructB8ue170006IS4_JS4_EEEvPT_DpOT0_, symObjAddr: 0xCA70, symBinAddr: 0x10000FB6C, symSize: 0x28 }
  - { offsetInCU: 0x19842, offset: 0x19842, size: 0x8, addend: 0x0, symName: __ZNSt3__117__compressed_pairIPPPN9BPlusTree4NodeERNS_9allocatorIS4_EEE6secondB8ue170006Ev, symObjAddr: 0xCA98, symBinAddr: 0x10000FB94, symSize: 0x28 }
  - { offsetInCU: 0x19868, offset: 0x19868, size: 0x8, addend: 0x0, symName: __ZNSt3__122__compressed_pair_elemIRNS_9allocatorIPPN9BPlusTree4NodeEEELi1ELb0EE5__getB8ue170006Ev, symObjAddr: 0xCAC0, symBinAddr: 0x10000FBBC, symSize: 0x18 }
  - { offsetInCU: 0x1988E, offset: 0x1988E, size: 0x8, addend: 0x0, symName: __ZNSt3__114__split_bufferIPPN9BPlusTree4NodeERNS_9allocatorIS4_EEE21_ConstructTransactionD2B8ue170006Ev, symObjAddr: 0xCAD8, symBinAddr: 0x10000FBD4, symSize: 0x20 }
  - { offsetInCU: 0x198B8, offset: 0x198B8, size: 0x8, addend: 0x0, symName: __ZNKSt3__113move_iteratorIPPPN9BPlusTree4NodeEE4baseB8ue170006Ev, symObjAddr: 0xCB70, symBinAddr: 0x10000FC6C, symSize: 0x18 }
  - { offsetInCU: 0x198DE, offset: 0x198DE, size: 0x8, addend: 0x0, symName: __ZNSt3__113move_iteratorIPPPN9BPlusTree4NodeEEC2B8ue170006ES5_, symObjAddr: 0xCB88, symBinAddr: 0x10000FC84, symSize: 0x20 }
  - { offsetInCU: 0x19916, offset: 0x19916, size: 0x8, addend: 0x0, symName: __ZNSt3__19allocatorIPPN9BPlusTree4NodeEE9constructB8ue170006IS4_JRKS4_EEEvPT_DpOT0_, symObjAddr: 0xCBA8, symBinAddr: 0x10000FCA4, symSize: 0x28 }
  - { offsetInCU: 0x1996C, offset: 0x1996C, size: 0x8, addend: 0x0, symName: __ZNKSt3__123__move_backward_trivialclB8ue170006IPPN9BPlusTree4NodeES5_Li0EEENS_4pairIPT_PT0_EES8_S8_SA_, symObjAddr: 0xCD4C, symBinAddr: 0x10000FE48, symSize: 0x48 }
  - { offsetInCU: 0x199D4, offset: 0x199D4, size: 0x8, addend: 0x0, symName: __ZNKSt3__15dequeIPN9BPlusTree4NodeENS_9allocatorIS3_EEE23__annotate_poison_blockB8ue170006EPKvS8_, symObjAddr: 0xCE5C, symBinAddr: 0x10000FF58, symSize: 0x44 }
  - { offsetInCU: 0x19A18, offset: 0x19A18, size: 0x8, addend: 0x0, symName: __ZNSt3__114__split_bufferIPPN9BPlusTree4NodeERNS_9allocatorIS4_EEEC2EmmS7_, symObjAddr: 0xCEA0, symBinAddr: 0x10000FF9C, symSize: 0xD4 }
  - { offsetInCU: 0x19A8C, offset: 0x19A8C, size: 0x8, addend: 0x0, symName: __ZNSt3__117__compressed_pairIPPPN9BPlusTree4NodeERNS_9allocatorIS4_EEEC1B8ue170006IDnS8_EEOT_OT0_, symObjAddr: 0xCF74, symBinAddr: 0x100010070, symSize: 0x3C }
  - { offsetInCU: 0x19AE4, offset: 0x19AE4, size: 0x8, addend: 0x0, symName: __ZNSt3__117__compressed_pairIPPPN9BPlusTree4NodeERNS_9allocatorIS4_EEEC2B8ue170006IDnS8_EEOT_OT0_, symObjAddr: 0xCFF0, symBinAddr: 0x1000100EC, symSize: 0x48 }
  - { offsetInCU: 0x19B3C, offset: 0x19B3C, size: 0x8, addend: 0x0, symName: __ZNSt3__122__compressed_pair_elemIRNS_9allocatorIPPN9BPlusTree4NodeEEELi1ELb0EEC2B8ue170006IS7_vEEOT_, symObjAddr: 0xD038, symBinAddr: 0x100010134, symSize: 0x20 }
  - { offsetInCU: 0x19B7E, offset: 0x19B7E, size: 0x8, addend: 0x0, symName: __ZNSt3__19allocatorIPPN9BPlusTree4NodeEE8allocateB8ue170006Em, symObjAddr: 0xD058, symBinAddr: 0x100010154, symSize: 0x84 }
  - { offsetInCU: 0x19BBC, offset: 0x19BBC, size: 0x8, addend: 0x0, symName: __ZNSt3__116allocator_traitsINS_9allocatorIPPN9BPlusTree4NodeEEEE8max_sizeB8ue170006IS6_vEEmRKS6_, symObjAddr: 0xD0DC, symBinAddr: 0x1000101D8, symSize: 0x24 }
  - { offsetInCU: 0x19BEA, offset: 0x19BEA, size: 0x8, addend: 0x0, symName: __ZNKSt3__19allocatorIPPN9BPlusTree4NodeEE8max_sizeB8ue170006Ev, symObjAddr: 0xD100, symBinAddr: 0x1000101FC, symSize: 0x14 }
  - { offsetInCU: 0x19C10, offset: 0x19C10, size: 0x8, addend: 0x0, symName: __ZNSt3__122__allocator_destructorINS_9allocatorIPN9BPlusTree4NodeEEEEC2B8ue170006ERS5_m, symObjAddr: 0xD114, symBinAddr: 0x100010210, symSize: 0x2C }
  - { offsetInCU: 0x19C56, offset: 0x19C56, size: 0x8, addend: 0x0, symName: __ZNSt3__110unique_ptrIPPN9BPlusTree4NodeENS_22__allocator_destructorINS_9allocatorIS3_EEEEEC2B8ue170006ILb1EvEES4_NS_16__dependent_typeINS_27__unique_ptr_deleter_sfinaeIS8_EEXT_EE20__good_rval_ref_typeE, symObjAddr: 0xD140, symBinAddr: 0x10001023C, symSize: 0x5C }
  - { offsetInCU: 0x19CA7, offset: 0x19CA7, size: 0x8, addend: 0x0, symName: __ZNSt3__117__compressed_pairIPPN9BPlusTree4NodeENS_22__allocator_destructorINS_9allocatorIS3_EEEEEC1B8ue170006IRS4_S8_EEOT_OT0_, symObjAddr: 0xD19C, symBinAddr: 0x100010298, symSize: 0x3C }
  - { offsetInCU: 0x19CFF, offset: 0x19CFF, size: 0x8, addend: 0x0, symName: __ZNSt3__117__compressed_pairIPPN9BPlusTree4NodeENS_22__allocator_destructorINS_9allocatorIS3_EEEEEC2B8ue170006IRS4_S8_EEOT_OT0_, symObjAddr: 0xD1D8, symBinAddr: 0x1000102D4, symSize: 0x48 }
  - { offsetInCU: 0x19D57, offset: 0x19D57, size: 0x8, addend: 0x0, symName: __ZNSt3__122__compressed_pair_elemIPPN9BPlusTree4NodeELi0ELb0EEC2B8ue170006IRS4_vEEOT_, symObjAddr: 0xD220, symBinAddr: 0x10001031C, symSize: 0x24 }
  - { offsetInCU: 0x19D99, offset: 0x19D99, size: 0x8, addend: 0x0, symName: __ZNSt3__122__compressed_pair_elemINS_22__allocator_destructorINS_9allocatorIPN9BPlusTree4NodeEEEEELi1ELb0EEC2B8ue170006IS7_vEEOT_, symObjAddr: 0xD244, symBinAddr: 0x100010340, symSize: 0x24 }
  - { offsetInCU: 0x19DDB, offset: 0x19DDB, size: 0x8, addend: 0x0, symName: __ZNKSt3__117__compressed_pairIPPN9BPlusTree4NodeENS_22__allocator_destructorINS_9allocatorIS3_EEEEE5firstB8ue170006Ev, symObjAddr: 0xD268, symBinAddr: 0x100010364, symSize: 0x24 }
  - { offsetInCU: 0x19E01, offset: 0x19E01, size: 0x8, addend: 0x0, symName: __ZNSt3__117__compressed_pairIPPN9BPlusTree4NodeENS_22__allocator_destructorINS_9allocatorIS3_EEEEE5firstB8ue170006Ev, symObjAddr: 0xD28C, symBinAddr: 0x100010388, symSize: 0x24 }
  - { offsetInCU: 0x19E27, offset: 0x19E27, size: 0x8, addend: 0x0, symName: __ZNSt3__117__compressed_pairIPPPN9BPlusTree4NodeENS_9allocatorIS4_EEE5firstB8ue170006Ev, symObjAddr: 0xD2B0, symBinAddr: 0x1000103AC, symSize: 0x24 }
  - { offsetInCU: 0x19E4D, offset: 0x19E4D, size: 0x8, addend: 0x0, symName: __ZNSt3__122__compressed_pair_elemIPPPN9BPlusTree4NodeELi0ELb0EE5__getB8ue170006Ev, symObjAddr: 0xD2D4, symBinAddr: 0x1000103D0, symSize: 0x14 }
  - { offsetInCU: 0x19E73, offset: 0x19E73, size: 0x8, addend: 0x0, symName: __ZNSt3__117__compressed_pairIPPPN9BPlusTree4NodeERNS_9allocatorIS4_EEE5firstB8ue170006Ev, symObjAddr: 0xD2E8, symBinAddr: 0x1000103E4, symSize: 0x24 }
  - { offsetInCU: 0x19E99, offset: 0x19E99, size: 0x8, addend: 0x0, symName: __ZNSt3__110unique_ptrIPPN9BPlusTree4NodeENS_22__allocator_destructorINS_9allocatorIS3_EEEEED2B8ue170006Ev, symObjAddr: 0xD30C, symBinAddr: 0x100010408, symSize: 0x30 }
  - { offsetInCU: 0x19EC3, offset: 0x19EC3, size: 0x8, addend: 0x0, symName: __ZNSt3__110unique_ptrIPPN9BPlusTree4NodeENS_22__allocator_destructorINS_9allocatorIS3_EEEEE5resetB8ue170006ES4_, symObjAddr: 0xD33C, symBinAddr: 0x100010438, symSize: 0x78 }
  - { offsetInCU: 0x19F07, offset: 0x19F07, size: 0x8, addend: 0x0, symName: __ZNSt3__117__compressed_pairIPPN9BPlusTree4NodeENS_22__allocator_destructorINS_9allocatorIS3_EEEEE6secondB8ue170006Ev, symObjAddr: 0xD3B4, symBinAddr: 0x1000104B0, symSize: 0x28 }
  - { offsetInCU: 0x19F2D, offset: 0x19F2D, size: 0x8, addend: 0x0, symName: __ZNSt3__122__allocator_destructorINS_9allocatorIPN9BPlusTree4NodeEEEEclB8ue170006EPS4_, symObjAddr: 0xD3DC, symBinAddr: 0x1000104D8, symSize: 0x34 }
  - { offsetInCU: 0x19F61, offset: 0x19F61, size: 0x8, addend: 0x0, symName: __ZNSt3__122__compressed_pair_elemINS_22__allocator_destructorINS_9allocatorIPN9BPlusTree4NodeEEEEELi1ELb0EE5__getB8ue170006Ev, symObjAddr: 0xD410, symBinAddr: 0x10001050C, symSize: 0x14 }
  - { offsetInCU: 0x19F87, offset: 0x19F87, size: 0x8, addend: 0x0, symName: __ZNSt3__114__split_bufferIPPN9BPlusTree4NodeERNS_9allocatorIS4_EEED2Ev, symObjAddr: 0xD424, symBinAddr: 0x100010520, symSize: 0x80 }
  - { offsetInCU: 0x19FB3, offset: 0x19FB3, size: 0x8, addend: 0x0, symName: __ZNSt3__114__split_bufferIPPN9BPlusTree4NodeERNS_9allocatorIS4_EEE5clearB8ue170006Ev, symObjAddr: 0xD4A4, symBinAddr: 0x1000105A0, symSize: 0x28 }
  - { offsetInCU: 0x19FD9, offset: 0x19FD9, size: 0x8, addend: 0x0, symName: __ZNKSt3__114__split_bufferIPPN9BPlusTree4NodeERNS_9allocatorIS4_EEE8capacityB8ue170006Ev, symObjAddr: 0xD4CC, symBinAddr: 0x1000105C8, symSize: 0x40 }
  - { offsetInCU: 0x19FFF, offset: 0x19FFF, size: 0x8, addend: 0x0, symName: __ZNSt3__114__split_bufferIPPN9BPlusTree4NodeERNS_9allocatorIS4_EEE17__destruct_at_endB8ue170006EPS4_, symObjAddr: 0xD50C, symBinAddr: 0x100010608, symSize: 0x2C }
  - { offsetInCU: 0x1A033, offset: 0x1A033, size: 0x8, addend: 0x0, symName: __ZNSt3__114__split_bufferIPPN9BPlusTree4NodeERNS_9allocatorIS4_EEE17__destruct_at_endB8ue170006EPS4_NS_17integral_constantIbLb0EEE, symObjAddr: 0xD538, symBinAddr: 0x100010634, symSize: 0x94 }
  - { offsetInCU: 0x1A073, offset: 0x1A073, size: 0x8, addend: 0x0, symName: __ZNKSt3__114__split_bufferIPPN9BPlusTree4NodeERNS_9allocatorIS4_EEE9__end_capB8ue170006Ev, symObjAddr: 0xD5CC, symBinAddr: 0x1000106C8, symSize: 0x28 }
  - { offsetInCU: 0x1A099, offset: 0x1A099, size: 0x8, addend: 0x0, symName: __ZNKSt3__117__compressed_pairIPPPN9BPlusTree4NodeERNS_9allocatorIS4_EEE5firstB8ue170006Ev, symObjAddr: 0xD5F4, symBinAddr: 0x1000106F0, symSize: 0x24 }
  - { offsetInCU: 0x1A0BF, offset: 0x1A0BF, size: 0x8, addend: 0x0, symName: __ZNKSt3__114__split_bufferIPPN9BPlusTree4NodeENS_9allocatorIS4_EEE5emptyB8ue170006Ev, symObjAddr: 0xD618, symBinAddr: 0x100010714, symSize: 0x28 }
  - { offsetInCU: 0x1A0E5, offset: 0x1A0E5, size: 0x8, addend: 0x0, symName: __ZNSt3__116__deque_iteratorIPN9BPlusTree4NodeEPS3_RS3_PS4_lLl512EEC1B8ue170006ES6_S4_, symObjAddr: 0xD640, symBinAddr: 0x10001073C, symSize: 0x3C }
  - { offsetInCU: 0x1A12D, offset: 0x1A12D, size: 0x8, addend: 0x0, symName: __ZNSt3__116__deque_iteratorIPN9BPlusTree4NodeEPS3_RS3_PS4_lLl512EEC2B8ue170006ES6_S4_, symObjAddr: 0xD67C, symBinAddr: 0x100010778, symSize: 0x2C }
  - { offsetInCU: 0x1A175, offset: 0x1A175, size: 0x8, addend: 0x0, symName: __ZNSt3__117__compressed_pairImNS_9allocatorIPN9BPlusTree4NodeEEEE5firstB8ue170006Ev, symObjAddr: 0xD6A8, symBinAddr: 0x1000107A4, symSize: 0x24 }
  - { offsetInCU: 0x1A19B, offset: 0x1A19B, size: 0x8, addend: 0x0, symName: __ZNSt3__122__compressed_pair_elemImLi0ELb0EE5__getB8ue170006Ev, symObjAddr: 0xD6CC, symBinAddr: 0x1000107C8, symSize: 0x14 }
  - { offsetInCU: 0x1A1C1, offset: 0x1A1C1, size: 0x8, addend: 0x0, symName: __ZNSt3__15dequeIPN9BPlusTree4NodeENS_9allocatorIS3_EEE5frontEv, symObjAddr: 0xD6E0, symBinAddr: 0x1000107DC, symSize: 0x50 }
  - { offsetInCU: 0x1A1E9, offset: 0x1A1E9, size: 0x8, addend: 0x0, symName: __ZNSt3__15dequeIPN9BPlusTree4NodeENS_9allocatorIS3_EEE9pop_frontEv, symObjAddr: 0xD730, symBinAddr: 0x10001082C, symSize: 0xD4 }
  - { offsetInCU: 0x1A23E, offset: 0x1A23E, size: 0x8, addend: 0x0, symName: __ZNKSt3__15dequeIPN9BPlusTree4NodeENS_9allocatorIS3_EEE23__annotate_shrink_frontB8ue170006Emm, symObjAddr: 0xD804, symBinAddr: 0x100010900, symSize: 0x70 }
  - { offsetInCU: 0x1A282, offset: 0x1A282, size: 0x8, addend: 0x0, symName: __ZNSt3__15dequeIPN9BPlusTree4NodeENS_9allocatorIS3_EEE26__maybe_remove_front_spareB8ue170006Eb, symObjAddr: 0xD874, symBinAddr: 0x100010970, symSize: 0xEC }
  - { offsetInCU: 0x1A2B7, offset: 0x1A2B7, size: 0x8, addend: 0x0, symName: __ZNKSt3__15dequeIPN9BPlusTree4NodeENS_9allocatorIS3_EEE20__front_spare_blocksB8ue170006Ev, symObjAddr: 0xD960, symBinAddr: 0x100010A5C, symSize: 0x2C }
  - { offsetInCU: 0x1A2DD, offset: 0x1A2DD, size: 0x8, addend: 0x0, symName: __ZNSt3__15queueIPN9BPlusTree4NodeENS_5dequeIS3_NS_9allocatorIS3_EEEEED2Ev, symObjAddr: 0xDA1C, symBinAddr: 0x100010B18, symSize: 0x2C }
  - { offsetInCU: 0x1A30A, offset: 0x1A30A, size: 0x8, addend: 0x0, symName: __ZNSt3__15dequeIPN9BPlusTree4NodeENS_9allocatorIS3_EEED1B8ue170006Ev, symObjAddr: 0xDA48, symBinAddr: 0x100010B44, symSize: 0x2C }
  - { offsetInCU: 0x1A334, offset: 0x1A334, size: 0x8, addend: 0x0, symName: __ZNSt3__15dequeIPN9BPlusTree4NodeENS_9allocatorIS3_EEED2B8ue170006Ev, symObjAddr: 0xDA74, symBinAddr: 0x100010B70, symSize: 0xA4 }
  - { offsetInCU: 0x1A38B, offset: 0x1A38B, size: 0x8, addend: 0x0, symName: __ZNSt3__15dequeIPN9BPlusTree4NodeENS_9allocatorIS3_EEE5clearEv, symObjAddr: 0xDB18, symBinAddr: 0x100010C14, symSize: 0x184 }
  - { offsetInCU: 0x1A3EF, offset: 0x1A3EF, size: 0x8, addend: 0x0, symName: __ZNKSt3__15dequeIPN9BPlusTree4NodeENS_9allocatorIS3_EEE17__annotate_deleteB8ue170006Ev, symObjAddr: 0xDC9C, symBinAddr: 0x100010D98, symSize: 0xE8 }
  - { offsetInCU: 0x1A433, offset: 0x1A433, size: 0x8, addend: 0x0, symName: __ZNSt3__15dequeIPN9BPlusTree4NodeENS_9allocatorIS3_EEE5beginB8ue170006Ev, symObjAddr: 0xDD84, symBinAddr: 0x100010E80, symSize: 0xA8 }
  - { offsetInCU: 0x1A468, offset: 0x1A468, size: 0x8, addend: 0x0, symName: __ZNSt3__116__deque_iteratorIPN9BPlusTree4NodeEPS3_RS3_PS4_lLl512EEppB8ue170006Ev, symObjAddr: 0xDE60, symBinAddr: 0x100010F5C, symSize: 0x70 }
  - { offsetInCU: 0x1A48E, offset: 0x1A48E, size: 0x8, addend: 0x0, symName: __ZN9BPlusTree15removeRecursiveEPNS_4NodeERK7ComplexS1_i, symObjAddr: 0xDF00, symBinAddr: 0x100010FFC, symSize: 0x6CC }
  - { offsetInCU: 0x1A58C, offset: 0x1A58C, size: 0x8, addend: 0x0, symName: __ZNKSt3__16vectorI7ComplexNS_9allocatorIS1_EEE5emptyB8ue170006Ev, symObjAddr: 0xE5CC, symBinAddr: 0x1000116C8, symSize: 0x28 }
  - { offsetInCU: 0x1A5B2, offset: 0x1A5B2, size: 0x8, addend: 0x0, symName: __ZN9BPlusTree4NodeD1Ev, symObjAddr: 0xE5F4, symBinAddr: 0x1000116F0, symSize: 0x2C }
  - { offsetInCU: 0x1A5DE, offset: 0x1A5DE, size: 0x8, addend: 0x0, symName: __ZNK7ComplexeqERKS_, symObjAddr: 0xE620, symBinAddr: 0x10001171C, symSize: 0x68 }
  - { offsetInCU: 0x1A612, offset: 0x1A612, size: 0x8, addend: 0x0, symName: __ZNSt3__16vectorI7ComplexNS_9allocatorIS1_EEE5eraseB8ue170006ENS_11__wrap_iterIPKS1_EE, symObjAddr: 0xE688, symBinAddr: 0x100011784, symSize: 0x94 }
  - { offsetInCU: 0x1A667, offset: 0x1A667, size: 0x8, addend: 0x0, symName: __ZNKSt3__111__wrap_iterIP7ComplexEmiB8ue170006El, symObjAddr: 0xE71C, symBinAddr: 0x100011818, symSize: 0x3C }
  - { offsetInCU: 0x1A69B, offset: 0x1A69B, size: 0x8, addend: 0x0, symName: __ZNSt3__16vectorIPN9BPlusTree4NodeENS_9allocatorIS3_EEE5eraseB8ue170006ENS_11__wrap_iterIPKS3_EE, symObjAddr: 0xE758, symBinAddr: 0x100011854, symSize: 0x94 }
  - { offsetInCU: 0x1A6F0, offset: 0x1A6F0, size: 0x8, addend: 0x0, symName: __ZNSt3__16vectorI7ComplexNS_9allocatorIS1_EEE6insertINS_11__wrap_iterIPS1_EELi0EEES8_NS6_IPKS1_EET_SC_, symObjAddr: 0xE7EC, symBinAddr: 0x1000118E8, symSize: 0x84 }
  - { offsetInCU: 0x1A754, offset: 0x1A754, size: 0x8, addend: 0x0, symName: __ZNKSt3__16vectorI7ComplexNS_9allocatorIS1_EEE6cbeginB8ue170006Ev, symObjAddr: 0xE870, symBinAddr: 0x10001196C, symSize: 0x2C }
  - { offsetInCU: 0x1A77A, offset: 0x1A77A, size: 0x8, addend: 0x0, symName: __ZNKSt3__16vectorI7ComplexNS_9allocatorIS1_EEE5beginB8ue170006Ev, symObjAddr: 0xE89C, symBinAddr: 0x100011998, symSize: 0x30 }
  - { offsetInCU: 0x1A7A2, offset: 0x1A7A2, size: 0x8, addend: 0x0, symName: __ZNKSt3__16vectorI7ComplexNS_9allocatorIS1_EEE11__make_iterB8ue170006EPKS1_, symObjAddr: 0xE8CC, symBinAddr: 0x1000119C8, symSize: 0x30 }
  - { offsetInCU: 0x1A7D7, offset: 0x1A7D7, size: 0x8, addend: 0x0, symName: __ZNSt3__111__wrap_iterIPK7ComplexEC1B8ue170006ES3_, symObjAddr: 0xE8FC, symBinAddr: 0x1000119F8, symSize: 0x34 }
  - { offsetInCU: 0x1A80F, offset: 0x1A80F, size: 0x8, addend: 0x0, symName: __ZNSt3__111__wrap_iterIPK7ComplexEC2B8ue170006ES3_, symObjAddr: 0xE930, symBinAddr: 0x100011A2C, symSize: 0x20 }
  - { offsetInCU: 0x1A847, offset: 0x1A847, size: 0x8, addend: 0x0, symName: __ZNKSt3__16vectorIPN9BPlusTree4NodeENS_9allocatorIS3_EEE6cbeginB8ue170006Ev, symObjAddr: 0xE950, symBinAddr: 0x100011A4C, symSize: 0x2C }
  - { offsetInCU: 0x1A86D, offset: 0x1A86D, size: 0x8, addend: 0x0, symName: __ZNKSt3__16vectorIPN9BPlusTree4NodeENS_9allocatorIS3_EEE5beginB8ue170006Ev, symObjAddr: 0xE97C, symBinAddr: 0x100011A78, symSize: 0x30 }
  - { offsetInCU: 0x1A895, offset: 0x1A895, size: 0x8, addend: 0x0, symName: __ZNKSt3__16vectorIPN9BPlusTree4NodeENS_9allocatorIS3_EEE11__make_iterB8ue170006EPKS3_, symObjAddr: 0xE9AC, symBinAddr: 0x100011AA8, symSize: 0x30 }
  - { offsetInCU: 0x1A8CA, offset: 0x1A8CA, size: 0x8, addend: 0x0, symName: __ZNSt3__111__wrap_iterIPKPN9BPlusTree4NodeEEC1B8ue170006ES5_, symObjAddr: 0xE9DC, symBinAddr: 0x100011AD8, symSize: 0x34 }
  - { offsetInCU: 0x1A902, offset: 0x1A902, size: 0x8, addend: 0x0, symName: __ZNSt3__111__wrap_iterIPKPN9BPlusTree4NodeEEC2B8ue170006ES5_, symObjAddr: 0xEA10, symBinAddr: 0x100011B0C, symSize: 0x20 }
  - { offsetInCU: 0x1A93A, offset: 0x1A93A, size: 0x8, addend: 0x0, symName: __ZNSt3__16vectorI7ComplexNS_9allocatorIS1_EEE18__insert_with_sizeB8ue170006INS_11__wrap_iterIPS1_EES8_EES8_NS6_IPKS1_EET_T0_l, symObjAddr: 0xEA30, symBinAddr: 0x100011B2C, symSize: 0x318 }
  - { offsetInCU: 0x1AA64, offset: 0x1AA64, size: 0x8, addend: 0x0, symName: __ZNSt3__114__split_bufferI7ComplexRNS_9allocatorIS1_EEE28__construct_at_end_with_sizeINS_11__wrap_iterIPS1_EEEEvT_m, symObjAddr: 0xED48, symBinAddr: 0x100011E44, symSize: 0xD8 }
  - { offsetInCU: 0x1AAC0, offset: 0x1AAC0, size: 0x8, addend: 0x0, symName: __ZN9BPlusTree4NodeD2Ev, symObjAddr: 0xEE20, symBinAddr: 0x100011F1C, symSize: 0x68 }
  - { offsetInCU: 0x1AAEC, offset: 0x1AAEC, size: 0x8, addend: 0x0, symName: __ZNSt3__16vectorIPN9BPlusTree4NodeENS_9allocatorIS3_EEED1B8ue170006Ev, symObjAddr: 0xEE88, symBinAddr: 0x100011F84, symSize: 0x2C }
  - { offsetInCU: 0x1AB16, offset: 0x1AB16, size: 0x8, addend: 0x0, symName: __ZNSt3__16vectorIPN9BPlusTree4NodeENS_9allocatorIS3_EEED2B8ue170006Ev, symObjAddr: 0xEEB4, symBinAddr: 0x100011FB0, symSize: 0x3C }
  - { offsetInCU: 0x1AB40, offset: 0x1AB40, size: 0x8, addend: 0x0, symName: __ZNSt3__16vectorIPN9BPlusTree4NodeENS_9allocatorIS3_EEE16__destroy_vectorC1B8ue170006ERS6_, symObjAddr: 0xEEF0, symBinAddr: 0x100011FEC, symSize: 0x34 }
  - { offsetInCU: 0x1AB79, offset: 0x1AB79, size: 0x8, addend: 0x0, symName: __ZNSt3__16vectorIPN9BPlusTree4NodeENS_9allocatorIS3_EEE16__destroy_vectorclB8ue170006Ev, symObjAddr: 0xEF24, symBinAddr: 0x100012020, symSize: 0x90 }
  - { offsetInCU: 0x1AB9F, offset: 0x1AB9F, size: 0x8, addend: 0x0, symName: __ZNSt3__16vectorIPN9BPlusTree4NodeENS_9allocatorIS3_EEE16__destroy_vectorC2B8ue170006ERS6_, symObjAddr: 0xEFB4, symBinAddr: 0x1000120B0, symSize: 0x20 }
  - { offsetInCU: 0x1ABD8, offset: 0x1ABD8, size: 0x8, addend: 0x0, symName: __ZNSt3__111char_traitsIcE6lengthB8ue170006EPKc, symObjAddr: 0xF1C8, symBinAddr: 0x1000122C4, symSize: 0x48 }
  - { offsetInCU: 0x1AC19, offset: 0x1AC19, size: 0x8, addend: 0x0, symName: __ZNKSt3__113basic_ostreamIcNS_11char_traitsIcEEE6sentrycvbB8ue170006Ev, symObjAddr: 0xF210, symBinAddr: 0x10001230C, symSize: 0x1C }
  - { offsetInCU: 0x1AC3F, offset: 0x1AC3F, size: 0x8, addend: 0x0, symName: __ZNSt3__119ostreambuf_iteratorIcNS_11char_traitsIcEEEC1B8ue170006ERNS_13basic_ostreamIcS2_EE, symObjAddr: 0xF474, symBinAddr: 0x100012570, symSize: 0x34 }
  - { offsetInCU: 0x1AC77, offset: 0x1AC77, size: 0x8, addend: 0x0, symName: __ZNKSt3__18ios_base5flagsB8ue170006Ev, symObjAddr: 0xF4A8, symBinAddr: 0x1000125A4, symSize: 0x18 }
  - { offsetInCU: 0x1AC9F, offset: 0x1AC9F, size: 0x8, addend: 0x0, symName: __ZNKSt3__19basic_iosIcNS_11char_traitsIcEEE4fillB8ue170006Ev, symObjAddr: 0xF4C0, symBinAddr: 0x1000125BC, symSize: 0x64 }
  - { offsetInCU: 0x1ACC7, offset: 0x1ACC7, size: 0x8, addend: 0x0, symName: __ZNKSt3__119ostreambuf_iteratorIcNS_11char_traitsIcEEE6failedB8ue170006Ev, symObjAddr: 0xF524, symBinAddr: 0x100012620, symSize: 0x24 }
  - { offsetInCU: 0x1ACED, offset: 0x1ACED, size: 0x8, addend: 0x0, symName: __ZNSt3__19basic_iosIcNS_11char_traitsIcEEE8setstateB8ue170006Ej, symObjAddr: 0xF548, symBinAddr: 0x100012644, symSize: 0x2C }
  - { offsetInCU: 0x1AD22, offset: 0x1AD22, size: 0x8, addend: 0x0, symName: __ZNKSt3__18ios_base5widthB8ue170006Ev, symObjAddr: 0xF574, symBinAddr: 0x100012670, symSize: 0x18 }
  - { offsetInCU: 0x1AD4A, offset: 0x1AD4A, size: 0x8, addend: 0x0, symName: __ZNSt3__115basic_streambufIcNS_11char_traitsIcEEE5sputnB8ue170006EPKcl, symObjAddr: 0xF58C, symBinAddr: 0x100012688, symSize: 0x3C }
  - { offsetInCU: 0x1AD8C, offset: 0x1AD8C, size: 0x8, addend: 0x0, symName: __ZNSt3__112basic_stringIcNS_11char_traitsIcEENS_9allocatorIcEEEC1B8ue170006Emc, symObjAddr: 0xF5C8, symBinAddr: 0x1000126C4, symSize: 0x3C }
  - { offsetInCU: 0x1ADD4, offset: 0x1ADD4, size: 0x8, addend: 0x0, symName: __ZNKSt3__112basic_stringIcNS_11char_traitsIcEENS_9allocatorIcEEE4dataB8ue170006Ev, symObjAddr: 0xF604, symBinAddr: 0x100012700, symSize: 0x28 }
  - { offsetInCU: 0x1ADFA, offset: 0x1ADFA, size: 0x8, addend: 0x0, symName: __ZNSt3__18ios_base5widthB8ue170006El, symObjAddr: 0xF62C, symBinAddr: 0x100012728, symSize: 0x2C }
  - { offsetInCU: 0x1AE40, offset: 0x1AE40, size: 0x8, addend: 0x0, symName: __ZNSt3__112basic_stringIcNS_11char_traitsIcEENS_9allocatorIcEEEC2B8ue170006Emc, symObjAddr: 0xF658, symBinAddr: 0x100012754, symSize: 0x4C }
  - { offsetInCU: 0x1AE88, offset: 0x1AE88, size: 0x8, addend: 0x0, symName: __ZNSt3__117__compressed_pairINS_12basic_stringIcNS_11char_traitsIcEENS_9allocatorIcEEE5__repES5_EC1B8ue170006INS_18__default_init_tagESA_EEOT_OT0_, symObjAddr: 0xF6A4, symBinAddr: 0x1000127A0, symSize: 0x3C }
  - { offsetInCU: 0x1AEE0, offset: 0x1AEE0, size: 0x8, addend: 0x0, symName: __ZNSt3__117__compressed_pairINS_12basic_stringIcNS_11char_traitsIcEENS_9allocatorIcEEE5__repES5_EC2B8ue170006INS_18__default_init_tagESA_EEOT_OT0_, symObjAddr: 0xF6E0, symBinAddr: 0x1000127DC, symSize: 0x3C }
  - { offsetInCU: 0x1AF38, offset: 0x1AF38, size: 0x8, addend: 0x0, symName: __ZNSt3__122__compressed_pair_elemINS_12basic_stringIcNS_11char_traitsIcEENS_9allocatorIcEEE5__repELi0ELb0EEC2B8ue170006ENS_18__default_init_tagE, symObjAddr: 0xF71C, symBinAddr: 0x100012818, symSize: 0x14 }
  - { offsetInCU: 0x1AF6C, offset: 0x1AF6C, size: 0x8, addend: 0x0, symName: __ZNSt3__122__compressed_pair_elemINS_9allocatorIcEELi1ELb1EEC2B8ue170006ENS_18__default_init_tagE, symObjAddr: 0xF730, symBinAddr: 0x10001282C, symSize: 0x2C }
  - { offsetInCU: 0x1AFA0, offset: 0x1AFA0, size: 0x8, addend: 0x0, symName: __ZNSt3__19allocatorIcEC2B8ue170006Ev, symObjAddr: 0xF75C, symBinAddr: 0x100012858, symSize: 0x2C }
  - { offsetInCU: 0x1AFCA, offset: 0x1AFCA, size: 0x8, addend: 0x0, symName: __ZNSt3__116__non_trivial_ifILb1ENS_9allocatorIcEEEC2B8ue170006Ev, symObjAddr: 0xF788, symBinAddr: 0x100012884, symSize: 0x14 }
  - { offsetInCU: 0x1AFF4, offset: 0x1AFF4, size: 0x8, addend: 0x0, symName: __ZNKSt3__112basic_stringIcNS_11char_traitsIcEENS_9allocatorIcEEE13__get_pointerB8ue170006Ev, symObjAddr: 0xF7B0, symBinAddr: 0x1000128AC, symSize: 0x54 }
  - { offsetInCU: 0x1B01A, offset: 0x1B01A, size: 0x8, addend: 0x0, symName: __ZNKSt3__112basic_stringIcNS_11char_traitsIcEENS_9allocatorIcEEE9__is_longB8ue170006Ev, symObjAddr: 0xF804, symBinAddr: 0x100012900, symSize: 0x74 }
  - { offsetInCU: 0x1B040, offset: 0x1B040, size: 0x8, addend: 0x0, symName: __ZNKSt3__112basic_stringIcNS_11char_traitsIcEENS_9allocatorIcEEE18__get_long_pointerB8ue170006Ev, symObjAddr: 0xF878, symBinAddr: 0x100012974, symSize: 0x28 }
  - { offsetInCU: 0x1B066, offset: 0x1B066, size: 0x8, addend: 0x0, symName: __ZNKSt3__112basic_stringIcNS_11char_traitsIcEENS_9allocatorIcEEE19__get_short_pointerB8ue170006Ev, symObjAddr: 0xF8A0, symBinAddr: 0x10001299C, symSize: 0x28 }
  - { offsetInCU: 0x1B08C, offset: 0x1B08C, size: 0x8, addend: 0x0, symName: __ZNKSt3__117__compressed_pairINS_12basic_stringIcNS_11char_traitsIcEENS_9allocatorIcEEE5__repES5_E5firstB8ue170006Ev, symObjAddr: 0xF8C8, symBinAddr: 0x1000129C4, symSize: 0x24 }
  - { offsetInCU: 0x1B0B2, offset: 0x1B0B2, size: 0x8, addend: 0x0, symName: __ZNKSt3__122__compressed_pair_elemINS_12basic_stringIcNS_11char_traitsIcEENS_9allocatorIcEEE5__repELi0ELb0EE5__getB8ue170006Ev, symObjAddr: 0xF8EC, symBinAddr: 0x1000129E8, symSize: 0x14 }
  - { offsetInCU: 0x1B0D8, offset: 0x1B0D8, size: 0x8, addend: 0x0, symName: __ZNSt3__114pointer_traitsIPKcE10pointer_toB8ue170006ERS1_, symObjAddr: 0xF900, symBinAddr: 0x1000129FC, symSize: 0x14 }
  - { offsetInCU: 0x1B0FB, offset: 0x1B0FB, size: 0x8, addend: 0x0, symName: __ZNSt3__119ostreambuf_iteratorIcNS_11char_traitsIcEEEC2B8ue170006ERNS_13basic_ostreamIcS2_EE, symObjAddr: 0xF914, symBinAddr: 0x100012A10, symSize: 0x68 }
  - { offsetInCU: 0x1B133, offset: 0x1B133, size: 0x8, addend: 0x0, symName: __ZNKSt3__19basic_iosIcNS_11char_traitsIcEEE5rdbufB8ue170006Ev, symObjAddr: 0xF97C, symBinAddr: 0x100012A78, symSize: 0x24 }
  - { offsetInCU: 0x1B15B, offset: 0x1B15B, size: 0x8, addend: 0x0, symName: __ZNKSt3__18ios_base5rdbufB8ue170006Ev, symObjAddr: 0xF9A0, symBinAddr: 0x100012A9C, symSize: 0x18 }
  - { offsetInCU: 0x1B181, offset: 0x1B181, size: 0x8, addend: 0x0, symName: __ZNSt3__111char_traitsIcE11eq_int_typeB8ue170006Eii, symObjAddr: 0xF9B8, symBinAddr: 0x100012AB4, symSize: 0x28 }
  - { offsetInCU: 0x1B1B4, offset: 0x1B1B4, size: 0x8, addend: 0x0, symName: __ZNSt3__111char_traitsIcE3eofB8ue170006Ev, symObjAddr: 0xF9E0, symBinAddr: 0x100012ADC, symSize: 0x8 }
  - { offsetInCU: 0x1B1C8, offset: 0x1B1C8, size: 0x8, addend: 0x0, symName: __ZNKSt3__19basic_iosIcNS_11char_traitsIcEEE5widenB8ue170006Ec, symObjAddr: 0xF9E8, symBinAddr: 0x100012AE4, symSize: 0x8C }
  - { offsetInCU: 0x1B231, offset: 0x1B231, size: 0x8, addend: 0x0, symName: __ZNKSt3__15ctypeIcE5widenB8ue170006Ec, symObjAddr: 0xFAA0, symBinAddr: 0x100012B9C, symSize: 0x38 }
  - { offsetInCU: 0x1B266, offset: 0x1B266, size: 0x8, addend: 0x0, symName: __ZNSt3__18ios_base8setstateB8ue170006Ej, symObjAddr: 0xFAD8, symBinAddr: 0x100012BD4, symSize: 0x34 }
...
