---
triple:          'arm64-apple-darwin'
binary-path:     '/Users/dunnaya/projects/uni/sem4/Algorithms/lab2/johnson'
relocations:
  - { offsetInCU: 0x74B7, offset: 0x74B7, size: 0x8, addend: 0x0, symName: __ZNSt3__124__put_character_sequenceB8ue170006IcNS_11char_traitsIcEEEERNS_13basic_ostreamIT_T0_EES7_PKS4_m, symObjAddr: 0x582C, symBinAddr: 0x10000772C, symSize: 0x1F4 }
  - { offsetInCU: 0xD224, offset: 0xD224, size: 0x8, addend: 0x0, symName: __ZNSt3__17advanceB8ue170006IPdllvEEvRT_T0_, symObjAddr: 0xC8FC, symBinAddr: 0x10000E7FC, symSize: 0x38 }
  - { offsetInCU: 0xDF7F, offset: 0xDF7F, size: 0x8, addend: 0x0, symName: __ZNSt3__112__to_addressB8ue170006INS_4listINS_4pairIidEENS_9allocatorIS3_EEEEEEPT_S8_, symObjAddr: 0x10A8, symBinAddr: 0x100002FA8, symSize: 0x14 }
  - { offsetInCU: 0xDFE7, offset: 0xDFE7, size: 0x8, addend: 0x0, symName: __ZNSt3__13maxB8ue170006ImEERKT_S3_S3_, symObjAddr: 0x14F0, symBinAddr: 0x1000033F0, symSize: 0x2C }
  - { offsetInCU: 0xE02A, offset: 0xE02A, size: 0x8, addend: 0x0, symName: __ZNSt3__13minB8ue170006ImEERKT_S3_S3_, symObjAddr: 0x151C, symBinAddr: 0x10000341C, symSize: 0x2C }
  - { offsetInCU: 0xE26E, offset: 0xE26E, size: 0x8, addend: 0x0, symName: __ZNSt3__13minB8ue170006ImNS_6__lessIvvEEEERKT_S5_S5_T0_, symObjAddr: 0x15A8, symBinAddr: 0x1000034A8, symSize: 0x54 }
  - { offsetInCU: 0xE30D, offset: 0xE30D, size: 0x8, addend: 0x0, symName: __ZNSt3__120__throw_length_errorB8ue170006EPKc, symObjAddr: 0x1688, symBinAddr: 0x100003588, symSize: 0x64 }
  - { offsetInCU: 0xE337, offset: 0xE337, size: 0x8, addend: 0x0, symName: __ZNSt3__13maxB8ue170006ImNS_6__lessIvvEEEERKT_S5_S5_T0_, symObjAddr: 0x17CC, symBinAddr: 0x1000036CC, symSize: 0x54 }
  - { offsetInCU: 0xE391, offset: 0xE391, size: 0x8, addend: 0x0, symName: __ZNSt3__119__allocate_at_leastB8ue170006INS_9allocatorINS_4listINS_4pairIidEENS1_IS4_EEEEEEEENS_19__allocation_resultINS_16allocator_traitsIT_E7pointerEEERSA_m, symObjAddr: 0x193C, symBinAddr: 0x10000383C, symSize: 0x40 }
  - { offsetInCU: 0xE3D4, offset: 0xE3D4, size: 0x8, addend: 0x0, symName: __ZNSt3__130__libcpp_is_constant_evaluatedB8ue170006Ev, symObjAddr: 0x1AF4, symBinAddr: 0x1000039F4, symSize: 0xC }
  - { offsetInCU: 0xE3F1, offset: 0xE3F1, size: 0x8, addend: 0x0, symName: __ZNSt3__117__libcpp_allocateB8ue170006Emm, symObjAddr: 0x1B00, symBinAddr: 0x100003A00, symSize: 0x28 }
  - { offsetInCU: 0xE42E, offset: 0xE42E, size: 0x8, addend: 0x0, symName: __ZNSt3__121__libcpp_operator_newB8ue170006IJmEEEPvDpT_, symObjAddr: 0x1B28, symBinAddr: 0x100003A28, symSize: 0x24 }
  - { offsetInCU: 0xE467, offset: 0xE467, size: 0x8, addend: 0x0, symName: __ZNSt3__142__uninitialized_allocator_move_if_noexceptB8ue170006INS_9allocatorINS_4listINS_4pairIidEENS1_IS4_EEEEEENS_16reverse_iteratorIPS6_EESA_SA_EET2_RT_T0_T1_SB_, symObjAddr: 0x1D58, symBinAddr: 0x100003C58, symSize: 0x134 }
  - { offsetInCU: 0xE507, offset: 0xE507, size: 0x8, addend: 0x0, symName: __ZNSt3__14swapB8ue170006IPNS_4listINS_4pairIidEENS_9allocatorIS3_EEEEEEvRT_S9_, symObjAddr: 0x1ED8, symBinAddr: 0x100003DD8, symSize: 0x3C }
  - { offsetInCU: 0xE558, offset: 0xE558, size: 0x8, addend: 0x0, symName: __ZNSt3__122__make_exception_guardB8ue170006INS_29_AllocatorDestroyRangeReverseINS_9allocatorINS_4listINS_4pairIidEENS2_IS5_EEEEEENS_16reverse_iteratorIPS7_EEEEEENS_28__exception_guard_exceptionsIT_EESE_, symObjAddr: 0x2024, symBinAddr: 0x100003F24, symSize: 0x4C }
  - { offsetInCU: 0xE58E, offset: 0xE58E, size: 0x8, addend: 0x0, symName: __ZNSt3__1neB8ue170006IPNS_4listINS_4pairIidEENS_9allocatorIS3_EEEES7_EEbRKNS_16reverse_iteratorIT_EERKNS8_IT0_EE, symObjAddr: 0x20B4, symBinAddr: 0x100003FB4, symSize: 0x48 }
  - { offsetInCU: 0xE5DA, offset: 0xE5DA, size: 0x8, addend: 0x0, symName: __ZNSt3__112__to_addressB8ue170006INS_16reverse_iteratorIPNS_4listINS_4pairIidEENS_9allocatorIS4_EEEEEEvEEu7__decayIDTclsr19__to_address_helperIT_EE6__callclsr3stdE7declvalIRKSA_EEEEESC_, symObjAddr: 0x2130, symBinAddr: 0x100004030, symSize: 0x24 }
  - { offsetInCU: 0xE610, offset: 0xE610, size: 0x8, addend: 0x0, symName: __ZNSt3__1neB8ue170006ERKNS_21__list_const_iteratorINS_4pairIidEEPvEES6_, symObjAddr: 0x24A0, symBinAddr: 0x1000043A0, symSize: 0x34 }
  - { offsetInCU: 0xE64D, offset: 0xE64D, size: 0x8, addend: 0x0, symName: __ZNSt3__1eqB8ue170006ERKNS_21__list_const_iteratorINS_4pairIidEEPvEES6_, symObjAddr: 0x27F8, symBinAddr: 0x1000046F8, symSize: 0x30 }
  - { offsetInCU: 0xE6A8, offset: 0xE6A8, size: 0x8, addend: 0x0, symName: __ZNSt3__119__libcpp_deallocateB8ue170006EPvmm, symObjAddr: 0x2FD8, symBinAddr: 0x100004ED8, symSize: 0x30 }
  - { offsetInCU: 0xE6F0, offset: 0xE6F0, size: 0x8, addend: 0x0, symName: __ZNSt3__127__do_deallocate_handle_sizeB8ue170006IJEEEvPvmDpT_, symObjAddr: 0x3008, symBinAddr: 0x100004F08, symSize: 0x28 }
  - { offsetInCU: 0xE72E, offset: 0xE72E, size: 0x8, addend: 0x0, symName: __ZNSt3__124__libcpp_operator_deleteB8ue170006IJPvEEEvDpT_, symObjAddr: 0x3030, symBinAddr: 0x100004F30, symSize: 0x24 }
  - { offsetInCU: 0xE78C, offset: 0xE78C, size: 0x8, addend: 0x0, symName: __ZNSt3__119__allocator_destroyB8ue170006INS_9allocatorINS_4listINS_4pairIidEENS1_IS4_EEEEEENS_16reverse_iteratorINS8_IPS6_EEEESB_EEvRT_T0_T1_, symObjAddr: 0x33B0, symBinAddr: 0x1000052B0, symSize: 0x70 }
  - { offsetInCU: 0xE7F1, offset: 0xE7F1, size: 0x8, addend: 0x0, symName: __ZNSt3__1neB8ue170006INS_16reverse_iteratorIPNS_4listINS_4pairIidEENS_9allocatorIS4_EEEEEES9_EEbRKNS1_IT_EERKNS1_IT0_EE, symObjAddr: 0x345C, symBinAddr: 0x10000535C, symSize: 0x60 }
  - { offsetInCU: 0xE83D, offset: 0xE83D, size: 0x8, addend: 0x0, symName: __ZNSt3__112__to_addressB8ue170006INS_16reverse_iteratorINS1_IPNS_4listINS_4pairIidEENS_9allocatorIS4_EEEEEEEEvEEu7__decayIDTclsr19__to_address_helperIT_EE6__callclsr3stdE7declvalIRKSB_EEEEESD_, symObjAddr: 0x34E8, symBinAddr: 0x1000053E8, symSize: 0x24 }
  - { offsetInCU: 0xE89C, offset: 0xE89C, size: 0x8, addend: 0x0, symName: __ZNSt3__19make_pairB8ue170006IRiRdEENS_4pairINS_18__unwrap_ref_decayIT_E4typeENS4_IT0_E4typeEEEOS5_OS8_, symObjAddr: 0x3C78, symBinAddr: 0x100005B78, symSize: 0x38 }
  - { offsetInCU: 0xE8EB, offset: 0xE8EB, size: 0x8, addend: 0x0, symName: __ZNSt3__1neB8ue170006ERKNS_15__list_iteratorINS_4pairIidEEPvEES6_, symObjAddr: 0x3D78, symBinAddr: 0x100005C78, symSize: 0x34 }
  - { offsetInCU: 0xE928, offset: 0xE928, size: 0x8, addend: 0x0, symName: __ZNSt3__1lsB8ue170006INS_11char_traitsIcEEEERNS_13basic_ostreamIcT_EES6_PKc, symObjAddr: 0x4158, symBinAddr: 0x100006058, symSize: 0x48 }
  - { offsetInCU: 0xE96E, offset: 0xE96E, size: 0x8, addend: 0x0, symName: __ZNSt3__14endlB8ue170006IcNS_11char_traitsIcEEEERNS_13basic_ostreamIT_T0_EES7_, symObjAddr: 0x41CC, symBinAddr: 0x1000060CC, symSize: 0x58 }
  - { offsetInCU: 0xE9AE, offset: 0xE9AE, size: 0x8, addend: 0x0, symName: __ZNSt3__1eqB8ue170006ERKNS_15__list_iteratorINS_4pairIidEEPvEES6_, symObjAddr: 0x48B4, symBinAddr: 0x1000067B4, symSize: 0x30 }
  - { offsetInCU: 0xE9EB, offset: 0xE9EB, size: 0x8, addend: 0x0, symName: __ZNSt3__16fill_nB8ue170006IPdmdEET_S2_T0_RKT1_, symObjAddr: 0x4BC0, symBinAddr: 0x100006AC0, symSize: 0x44 }
  - { offsetInCU: 0xEA4E, offset: 0xEA4E, size: 0x8, addend: 0x0, symName: __ZNSt3__18__fill_nB8ue170006IPdmdEET_S2_T0_RKT1_, symObjAddr: 0x4F7C, symBinAddr: 0x100006E7C, symSize: 0x64 }
  - { offsetInCU: 0xEAB1, offset: 0xEAB1, size: 0x8, addend: 0x0, symName: __ZNSt3__121__convert_to_integralB8ue170006Em, symObjAddr: 0x4FE0, symBinAddr: 0x100006EE0, symSize: 0x14 }
  - { offsetInCU: 0xEADD, offset: 0xEADD, size: 0x8, addend: 0x0, symName: __ZNSt3__112__to_addressB8ue170006IdEEPT_S2_, symObjAddr: 0x508C, symBinAddr: 0x100006F8C, symSize: 0x14 }
  - { offsetInCU: 0xEB12, offset: 0xEB12, size: 0x8, addend: 0x0, symName: __ZNSt3__119__allocate_at_leastB8ue170006INS_9allocatorIdEEEENS_19__allocation_resultINS_16allocator_traitsIT_E7pointerEEERS5_m, symObjAddr: 0x5624, symBinAddr: 0x100007524, symSize: 0x40 }
  - { offsetInCU: 0xEB55, offset: 0xEB55, size: 0x8, addend: 0x0, symName: __ZNSt3__116__pad_and_outputB8ue170006IcNS_11char_traitsIcEEEENS_19ostreambuf_iteratorIT_T0_EES6_PKS4_S8_S8_RNS_8ios_baseES4_, symObjAddr: 0x5A84, symBinAddr: 0x100007984, symSize: 0x248 }
  - { offsetInCU: 0xEC24, offset: 0xEC24, size: 0x8, addend: 0x0, symName: __ZNSt3__112__to_addressB8ue170006IKcEEPT_S3_, symObjAddr: 0x5FF4, symBinAddr: 0x100007EF4, symSize: 0x14 }
  - { offsetInCU: 0xEC8C, offset: 0xEC8C, size: 0x8, addend: 0x0, symName: __ZNSt3__19use_facetB8ue170006INS_5ctypeIcEEEERKT_RKNS_6localeE, symObjAddr: 0x62CC, symBinAddr: 0x1000081CC, symSize: 0x2C }
  - { offsetInCU: 0xF159, offset: 0xF159, size: 0x8, addend: 0x0, symName: __ZNSt3__118__constexpr_strlenB8ue170006EPKc, symObjAddr: 0x6364, symBinAddr: 0x100008264, symSize: 0x24 }
  - { offsetInCU: 0xF185, offset: 0xF185, size: 0x8, addend: 0x0, symName: __ZNSt3__122__make_exception_guardB8ue170006INS_6vectorIdNS_9allocatorIdEEE16__destroy_vectorEEENS_28__exception_guard_exceptionsIT_EES7_, symObjAddr: 0x65AC, symBinAddr: 0x1000084AC, symSize: 0x40 }
  - { offsetInCU: 0xF1BA, offset: 0xF1BA, size: 0x8, addend: 0x0, symName: __ZNSt3__122__make_exception_guardB8ue170006INS_6vectorINS1_IdNS_9allocatorIdEEEENS2_IS4_EEE16__destroy_vectorEEENS_28__exception_guard_exceptionsIT_EES9_, symObjAddr: 0x69B8, symBinAddr: 0x1000088B8, symSize: 0x40 }
  - { offsetInCU: 0xF1EF, offset: 0xF1EF, size: 0x8, addend: 0x0, symName: __ZNSt3__119__allocate_at_leastB8ue170006INS_9allocatorINS_6vectorIdNS1_IdEEEEEEEENS_19__allocation_resultINS_16allocator_traitsIT_E7pointerEEERS8_m, symObjAddr: 0x6D08, symBinAddr: 0x100008C08, symSize: 0x40 }
  - { offsetInCU: 0xF232, offset: 0xF232, size: 0x8, addend: 0x0, symName: __ZNSt3__112__to_addressB8ue170006INS_6vectorIdNS_9allocatorIdEEEEEEPT_S6_, symObjAddr: 0x7080, symBinAddr: 0x100008F80, symSize: 0x14 }
  - { offsetInCU: 0xF267, offset: 0xF267, size: 0x8, addend: 0x0, symName: __ZNSt3__130__uninitialized_allocator_copyB8ue170006INS_9allocatorIdEEPdS3_S3_EET2_RT_T0_T1_S4_, symObjAddr: 0x74D0, symBinAddr: 0x1000093D0, symSize: 0x80 }
  - { offsetInCU: 0xF304, offset: 0xF304, size: 0x8, addend: 0x0, symName: __ZNSt3__114__unwrap_rangeB8ue170006IPdS1_EENS_4pairIT0_S3_EET_S5_, symObjAddr: 0x7550, symBinAddr: 0x100009450, symSize: 0x60 }
  - { offsetInCU: 0xF350, offset: 0xF350, size: 0x8, addend: 0x0, symName: __ZNSt3__135__uninitialized_allocator_copy_implB8ue170006INS_9allocatorIdEEPdS3_S3_EET2_RT_T0_T1_S4_, symObjAddr: 0x75B0, symBinAddr: 0x1000094B0, symSize: 0xFC }
  - { offsetInCU: 0xF3EE, offset: 0xF3EE, size: 0x8, addend: 0x0, symName: __ZNSt3__113__unwrap_iterB8ue170006IPdNS_18__unwrap_iter_implIS1_Lb1EEELi0EEEDTclsrT0_8__unwrapclsr3stdE7declvalIT_EEEES5_, symObjAddr: 0x76AC, symBinAddr: 0x1000095AC, symSize: 0x24 }
  - { offsetInCU: 0xF432, offset: 0xF432, size: 0x8, addend: 0x0, symName: __ZNSt3__113__rewrap_iterB8ue170006IPdS1_NS_18__unwrap_iter_implIS1_Lb1EEEEET_S4_T0_, symObjAddr: 0x76D0, symBinAddr: 0x1000095D0, symSize: 0x50 }
  - { offsetInCU: 0xF487, offset: 0xF487, size: 0x8, addend: 0x0, symName: __ZNSt3__19make_pairB8ue170006IPdS1_EENS_4pairINS_18__unwrap_ref_decayIT_E4typeENS3_IT0_E4typeEEEOS4_OS7_, symObjAddr: 0x7720, symBinAddr: 0x100009620, symSize: 0x38 }
  - { offsetInCU: 0xF583, offset: 0xF583, size: 0x8, addend: 0x0, symName: __ZNSt3__122__make_exception_guardB8ue170006INS_29_AllocatorDestroyRangeReverseINS_9allocatorIdEEPdEEEENS_28__exception_guard_exceptionsIT_EES7_, symObjAddr: 0x77C8, symBinAddr: 0x1000096C8, symSize: 0x4C }
  - { offsetInCU: 0xF5B9, offset: 0xF5B9, size: 0x8, addend: 0x0, symName: __ZNSt3__119__allocator_destroyB8ue170006INS_9allocatorIdEENS_16reverse_iteratorIPdEES5_EEvRT_T0_T1_, symObjAddr: 0x7A48, symBinAddr: 0x100009948, symSize: 0x70 }
  - { offsetInCU: 0xF61C, offset: 0xF61C, size: 0x8, addend: 0x0, symName: __ZNSt3__1neB8ue170006IPdS1_EEbRKNS_16reverse_iteratorIT_EERKNS2_IT0_EE, symObjAddr: 0x7AEC, symBinAddr: 0x1000099EC, symSize: 0x48 }
  - { offsetInCU: 0xF668, offset: 0xF668, size: 0x8, addend: 0x0, symName: __ZNSt3__112__to_addressB8ue170006INS_16reverse_iteratorIPdEEvEEu7__decayIDTclsr19__to_address_helperIT_EE6__callclsr3stdE7declvalIRKS4_EEEEES6_, symObjAddr: 0x7B34, symBinAddr: 0x100009A34, symSize: 0x24 }
  - { offsetInCU: 0xF76B, offset: 0xF76B, size: 0x8, addend: 0x0, symName: __ZNSt3__127__tree_balance_after_insertB8ue170006IPNS_16__tree_node_baseIPvEEEEvT_S5_, symObjAddr: 0x94DC, symBinAddr: 0x10000B3DC, symSize: 0x340 }
  - { offsetInCU: 0xF7DF, offset: 0xF7DF, size: 0x8, addend: 0x0, symName: __ZNSt3__120__tree_is_left_childB8ue170006IPNS_16__tree_node_baseIPvEEEEbT_, symObjAddr: 0x985C, symBinAddr: 0x10000B75C, symSize: 0x2C }
  - { offsetInCU: 0xF814, offset: 0xF814, size: 0x8, addend: 0x0, symName: __ZNSt3__118__tree_left_rotateB8ue170006IPNS_16__tree_node_baseIPvEEEEvT_, symObjAddr: 0x9888, symBinAddr: 0x10000B788, symSize: 0xEC }
  - { offsetInCU: 0xF856, offset: 0xF856, size: 0x8, addend: 0x0, symName: __ZNSt3__119__tree_right_rotateB8ue170006IPNS_16__tree_node_baseIPvEEEEvT_, symObjAddr: 0x9974, symBinAddr: 0x10000B874, symSize: 0xCC }
  - { offsetInCU: 0xF898, offset: 0xF898, size: 0x8, addend: 0x0, symName: __ZNSt3__1neB8ue170006IPPN5Graph7FibNodeEEEbRKNS_11__wrap_iterIT_EES9_, symObjAddr: 0xA300, symBinAddr: 0x10000C200, symSize: 0x34 }
  - { offsetInCU: 0xF8DB, offset: 0xF8DB, size: 0x8, addend: 0x0, symName: __ZNSt3__122__make_exception_guardB8ue170006INS_6vectorIPN5Graph7FibNodeENS_9allocatorIS4_EEE16__destroy_vectorEEENS_28__exception_guard_exceptionsIT_EESA_, symObjAddr: 0xA4DC, symBinAddr: 0x10000C3DC, symSize: 0x40 }
  - { offsetInCU: 0xF910, offset: 0xF910, size: 0x8, addend: 0x0, symName: __ZNSt3__119__allocate_at_leastB8ue170006INS_9allocatorIPN5Graph7FibNodeEEEEENS_19__allocation_resultINS_16allocator_traitsIT_E7pointerEEERS8_m, symObjAddr: 0xA8EC, symBinAddr: 0x10000C7EC, symSize: 0x40 }
  - { offsetInCU: 0xF953, offset: 0xF953, size: 0x8, addend: 0x0, symName: __ZNSt3__112__to_addressB8ue170006IPN5Graph7FibNodeEEEPT_S5_, symObjAddr: 0xAC3C, symBinAddr: 0x10000CB3C, symSize: 0x14 }
  - { offsetInCU: 0xF988, offset: 0xF988, size: 0x8, addend: 0x0, symName: __ZNSt3__142__uninitialized_allocator_move_if_noexceptB8ue170006INS_9allocatorIPN5Graph7FibNodeEEENS_16reverse_iteratorIPS4_EES8_S4_vEET1_RT_T0_SC_S9_, symObjAddr: 0xB758, symBinAddr: 0x10000D658, symSize: 0xE8 }
  - { offsetInCU: 0xFA05, offset: 0xFA05, size: 0x8, addend: 0x0, symName: __ZNSt3__14swapB8ue170006IPPN5Graph7FibNodeEEEvRT_S6_, symObjAddr: 0xB88C, symBinAddr: 0x10000D78C, symSize: 0x3C }
  - { offsetInCU: 0xFA56, offset: 0xFA56, size: 0x8, addend: 0x0, symName: __ZNSt3__1neB8ue170006IPPN5Graph7FibNodeES4_EEbRKNS_16reverse_iteratorIT_EERKNS5_IT0_EE, symObjAddr: 0xB8C8, symBinAddr: 0x10000D7C8, symSize: 0x48 }
  - { offsetInCU: 0xFAC7, offset: 0xFAC7, size: 0x8, addend: 0x0, symName: __ZNSt3__114__construct_atB8ue170006IPN5Graph7FibNodeEJS3_EPS3_EEPT_S6_DpOT0_, symObjAddr: 0xB910, symBinAddr: 0x10000D810, symSize: 0x2C }
  - { offsetInCU: 0xFB37, offset: 0xFB37, size: 0x8, addend: 0x0, symName: __ZNSt3__112__to_addressB8ue170006INS_16reverse_iteratorIPPN5Graph7FibNodeEEEvEEu7__decayIDTclsr19__to_address_helperIT_EE6__callclsr3stdE7declvalIRKS7_EEEEES9_, symObjAddr: 0xB93C, symBinAddr: 0x10000D83C, symSize: 0x24 }
  - { offsetInCU: 0xFB6D, offset: 0xFB6D, size: 0x8, addend: 0x0, symName: __ZNSt3__14moveB8ue170006INS_16reverse_iteratorIPPN5Graph7FibNodeEEES6_EET0_T_S8_S7_, symObjAddr: 0xB9A8, symBinAddr: 0x10000D8A8, symSize: 0x78 }
  - { offsetInCU: 0xFBF0, offset: 0xFBF0, size: 0x8, addend: 0x0, symName: __ZNSt3__16__moveB8ue170006INS_17_ClassicAlgPolicyENS_16reverse_iteratorIPPN5Graph7FibNodeEEES7_S7_EENS_4pairIT0_T2_EES9_T1_SA_, symObjAddr: 0xBA90, symBinAddr: 0x10000D990, symSize: 0x64 }
  - { offsetInCU: 0xFC5C, offset: 0xFC5C, size: 0x8, addend: 0x0, symName: __ZNSt3__123__dispatch_copy_or_moveB8ue170006INS_17_ClassicAlgPolicyENS_11__move_loopIS1_EENS_14__move_trivialENS_16reverse_iteratorIPPN5Graph7FibNodeEEESA_SA_EENS_4pairIT2_T4_EESC_T3_SD_, symObjAddr: 0xBAF4, symBinAddr: 0x10000D9F4, symSize: 0x64 }
  - { offsetInCU: 0xFCDA, offset: 0xFCDA, size: 0x8, addend: 0x0, symName: __ZNSt3__121__unwrap_and_dispatchB8ue170006INS_10__overloadINS_11__move_loopINS_17_ClassicAlgPolicyEEENS_14__move_trivialEEENS_16reverse_iteratorIPPN5Graph7FibNodeEEESC_SC_Li0EEENS_4pairIT0_T2_EESE_T1_SF_, symObjAddr: 0xBB58, symBinAddr: 0x10000DA58, symSize: 0x12C }
  - { offsetInCU: 0xFD6A, offset: 0xFD6A, size: 0x8, addend: 0x0, symName: __ZNSt3__114__unwrap_rangeB8ue170006INS_16reverse_iteratorIPPN5Graph7FibNodeEEES6_EENS_4pairIT0_S8_EET_SA_, symObjAddr: 0xBC84, symBinAddr: 0x10000DB84, symSize: 0x84 }
  - { offsetInCU: 0xFEBE, offset: 0xFEBE, size: 0x8, addend: 0x0, symName: __ZNSt3__113__unwrap_iterB8ue170006INS_16reverse_iteratorIPPN5Graph7FibNodeEEENS_18__unwrap_iter_implIS6_Lb0EEELi0EEEDTclsrT0_8__unwrapclsr3stdE7declvalIT_EEEESA_, symObjAddr: 0xBDA8, symBinAddr: 0x10000DCA8, symSize: 0x44 }
  - { offsetInCU: 0xFF02, offset: 0xFF02, size: 0x8, addend: 0x0, symName: __ZNSt3__19make_pairB8ue170006INS_16reverse_iteratorIPPN5Graph7FibNodeEEES6_EENS_4pairINS_18__unwrap_ref_decayIT_E4typeENS8_IT0_E4typeEEEOS9_OSC_, symObjAddr: 0xBDEC, symBinAddr: 0x10000DCEC, symSize: 0x38 }
  - { offsetInCU: 0xFF51, offset: 0xFF51, size: 0x8, addend: 0x0, symName: __ZNSt3__114__rewrap_rangeB8ue170006INS_16reverse_iteratorIPPN5Graph7FibNodeEEES6_EET_S7_T0_, symObjAddr: 0xBE24, symBinAddr: 0x10000DD24, symSize: 0x5C }
  - { offsetInCU: 0xFF9D, offset: 0xFF9D, size: 0x8, addend: 0x0, symName: __ZNSt3__113__rewrap_iterB8ue170006INS_16reverse_iteratorIPPN5Graph7FibNodeEEES6_NS_18__unwrap_iter_implIS6_Lb0EEEEET_S9_T0_, symObjAddr: 0xBE80, symBinAddr: 0x10000DD80, symSize: 0x88 }
  - { offsetInCU: 0x100A4, offset: 0x100A4, size: 0x8, addend: 0x0, symName: __ZNSt3__1eqB8ue170006IPPN5Graph7FibNodeEEEbRKNS_11__wrap_iterIT_EES9_, symObjAddr: 0xC294, symBinAddr: 0x10000E194, symSize: 0x48 }
  - { offsetInCU: 0x100E7, offset: 0x100E7, size: 0x8, addend: 0x0, symName: __ZNSt3__18distanceB8ue170006IPdEENS_15iterator_traitsIT_E15difference_typeES3_S3_, symObjAddr: 0xC818, symBinAddr: 0x10000E718, symSize: 0x2C }
  - { offsetInCU: 0x1012A, offset: 0x1012A, size: 0x8, addend: 0x0, symName: __ZNSt3__14nextB8ue170006IPdEENS_9enable_ifIXsr29__has_input_iterator_categoryIT_EE5valueES3_E4typeES3_NS_15iterator_traitsIS3_E15difference_typeE, symObjAddr: 0xC844, symBinAddr: 0x10000E744, symSize: 0x34 }
  - { offsetInCU: 0x1016D, offset: 0x1016D, size: 0x8, addend: 0x0, symName: __ZNSt3__14copyB8ue170006IPdS1_EET0_T_S3_S2_, symObjAddr: 0xC878, symBinAddr: 0x10000E778, symSize: 0x40 }
  - { offsetInCU: 0x101C7, offset: 0x101C7, size: 0x8, addend: 0x0, symName: __ZNSt3__16__copyB8ue170006INS_17_ClassicAlgPolicyEPdS2_S2_EENS_4pairIT0_T2_EES4_T1_S5_, symObjAddr: 0xC8B8, symBinAddr: 0x10000E7B8, symSize: 0x44 }
  - { offsetInCU: 0x10233, offset: 0x10233, size: 0x8, addend: 0x0, symName: __ZNSt3__121__convert_to_integralB8ue170006El, symObjAddr: 0xC934, symBinAddr: 0x10000E834, symSize: 0x14 }
  - { offsetInCU: 0x1025F, offset: 0x1025F, size: 0x8, addend: 0x0, symName: __ZNSt3__19__advanceB8ue170006IPdEEvRT_NS_15iterator_traitsIS2_E15difference_typeENS_26random_access_iterator_tagE, symObjAddr: 0xC948, symBinAddr: 0x10000E848, symSize: 0x28 }
  - { offsetInCU: 0x102A8, offset: 0x102A8, size: 0x8, addend: 0x0, symName: __ZNSt3__123__dispatch_copy_or_moveB8ue170006INS_17_ClassicAlgPolicyENS_11__copy_loopIS1_EENS_14__copy_trivialEPdS5_S5_EENS_4pairIT2_T4_EES7_T3_S8_, symObjAddr: 0xC970, symBinAddr: 0x10000E870, symSize: 0x44 }
  - { offsetInCU: 0x10326, offset: 0x10326, size: 0x8, addend: 0x0, symName: __ZNSt3__121__unwrap_and_dispatchB8ue170006INS_10__overloadINS_11__copy_loopINS_17_ClassicAlgPolicyEEENS_14__copy_trivialEEEPdS7_S7_Li0EEENS_4pairIT0_T2_EES9_T1_SA_, symObjAddr: 0xC9B4, symBinAddr: 0x10000E8B4, symSize: 0xB4 }
  - { offsetInCU: 0x103FA, offset: 0x103FA, size: 0x8, addend: 0x0, symName: __ZNSt3__114__rewrap_rangeB8ue170006IPdS1_EET_S2_T0_, symObjAddr: 0xCAB0, symBinAddr: 0x10000E9B0, symSize: 0x2C }
  - { offsetInCU: 0x10446, offset: 0x10446, size: 0x8, addend: 0x0, symName: __ZNSt3__119__copy_trivial_implB8ue170006IddEENS_4pairIPT_PT0_EES3_S3_S5_, symObjAddr: 0xCADC, symBinAddr: 0x10000E9DC, symSize: 0x80 }
  - { offsetInCU: 0x104AE, offset: 0x104AE, size: 0x8, addend: 0x0, symName: __ZNSt3__119__constexpr_memmoveB8ue170006IddLi0EEEPT_S2_PT0_NS_15__element_countE, symObjAddr: 0xCB5C, symBinAddr: 0x10000EA5C, symSize: 0xA0 }
  - { offsetInCU: 0x1051C, offset: 0x1051C, size: 0x8, addend: 0x0, symName: __ZNSt3__19make_pairB8ue170006IRPdS1_EENS_4pairINS_18__unwrap_ref_decayIT_E4typeENS4_IT0_E4typeEEEOS5_OS8_, symObjAddr: 0xCBFC, symBinAddr: 0x10000EAFC, symSize: 0x38 }
  - { offsetInCU: 0x1056B, offset: 0x1056B, size: 0x8, addend: 0x0, symName: __ZNSt3__110__distanceB8ue170006IPdEENS_15iterator_traitsIT_E15difference_typeES3_S3_NS_26random_access_iterator_tagE, symObjAddr: 0xCC34, symBinAddr: 0x10000EB34, symSize: 0x28 }
  - { offsetInCU: 0x108A1, offset: 0x108A1, size: 0x8, addend: 0x0, symName: __ZSt28__throw_bad_array_new_lengthB8ue170006v, symObjAddr: 0x1AC0, symBinAddr: 0x1000039C0, symSize: 0x34 }
  - { offsetInCU: 0x10F82, offset: 0x10F82, size: 0x8, addend: 0x0, symName: __ZNSt3__16vectorINS_4listINS_4pairIidEENS_9allocatorIS3_EEEENS4_IS6_EEE26__swap_out_circular_bufferERNS_14__split_bufferIS6_RS7_EE, symObjAddr: 0xECC, symBinAddr: 0x100002DCC, symSize: 0x110 }
  - { offsetInCU: 0x11AD1, offset: 0x11AD1, size: 0x8, addend: 0x0, symName: __ZNSt3__16vectorIPN5Graph7FibNodeENS_9allocatorIS3_EEE26__swap_out_circular_bufferERNS_14__split_bufferIS3_RS5_EE, symObjAddr: 0xB3F0, symBinAddr: 0x10000D2F0, symSize: 0x110 }
  - { offsetInCU: 0x13E53, offset: 0x13E53, size: 0x8, addend: 0x0, symName: _main, symObjAddr: 0x0, symBinAddr: 0x100001F00, symSize: 0x194 }
  - { offsetInCU: 0x13E9C, offset: 0x13E9C, size: 0x8, addend: 0x0, symName: __ZN5GraphC1Ei, symObjAddr: 0x194, symBinAddr: 0x100002094, symSize: 0x34 }
  - { offsetInCU: 0x13ED4, offset: 0x13ED4, size: 0x8, addend: 0x0, symName: __ZN5Graph7addEdgeEiid, symObjAddr: 0x1C8, symBinAddr: 0x1000020C8, symSize: 0x78 }
  - { offsetInCU: 0x13F24, offset: 0x13F24, size: 0x8, addend: 0x0, symName: __ZN5Graph7johnsonEv, symObjAddr: 0x240, symBinAddr: 0x100002140, symSize: 0x3A4 }
  - { offsetInCU: 0x14036, offset: 0x14036, size: 0x8, addend: 0x0, symName: __ZNKSt3__16vectorINS0_IdNS_9allocatorIdEEEENS1_IS3_EEE5emptyB8ue170006Ev, symObjAddr: 0x5E4, symBinAddr: 0x1000024E4, symSize: 0x28 }
  - { offsetInCU: 0x1405C, offset: 0x1405C, size: 0x8, addend: 0x0, symName: __ZN5Graph13printSolutionERKNSt3__16vectorINS1_IdNS0_9allocatorIdEEEENS2_IS4_EEEE, symObjAddr: 0x60C, symBinAddr: 0x10000250C, symSize: 0x148 }
  - { offsetInCU: 0x140CB, offset: 0x140CB, size: 0x8, addend: 0x0, symName: __ZNSt3__16vectorINS0_IdNS_9allocatorIdEEEENS1_IS3_EEED1B8ue170006Ev, symObjAddr: 0x754, symBinAddr: 0x100002654, symSize: 0x2C }
  - { offsetInCU: 0x140F5, offset: 0x140F5, size: 0x8, addend: 0x0, symName: __ZN5GraphD1Ev, symObjAddr: 0x78C, symBinAddr: 0x10000268C, symSize: 0x2C }
  - { offsetInCU: 0x14121, offset: 0x14121, size: 0x8, addend: 0x0, symName: __ZN5GraphC2Ei, symObjAddr: 0x7B8, symBinAddr: 0x1000026B8, symSize: 0x80 }
  - { offsetInCU: 0x14159, offset: 0x14159, size: 0x8, addend: 0x0, symName: __ZNSt3__16vectorINS_4listINS_4pairIidEENS_9allocatorIS3_EEEENS4_IS6_EEEC1B8ue170006Ev, symObjAddr: 0x838, symBinAddr: 0x100002738, symSize: 0x2C }
  - { offsetInCU: 0x14183, offset: 0x14183, size: 0x8, addend: 0x0, symName: __ZNSt3__16vectorINS_4listINS_4pairIidEENS_9allocatorIS3_EEEENS4_IS6_EEE6resizeEm, symObjAddr: 0x864, symBinAddr: 0x100002764, symSize: 0x9C }
  - { offsetInCU: 0x141C9, offset: 0x141C9, size: 0x8, addend: 0x0, symName: __ZNSt3__16vectorINS_4listINS_4pairIidEENS_9allocatorIS3_EEEENS4_IS6_EEED1B8ue170006Ev, symObjAddr: 0x900, symBinAddr: 0x100002800, symSize: 0x2C }
  - { offsetInCU: 0x141F3, offset: 0x141F3, size: 0x8, addend: 0x0, symName: __ZNSt3__16vectorINS_4listINS_4pairIidEENS_9allocatorIS3_EEEENS4_IS6_EEEC2B8ue170006Ev, symObjAddr: 0x92C, symBinAddr: 0x10000282C, symSize: 0x44 }
  - { offsetInCU: 0x14229, offset: 0x14229, size: 0x8, addend: 0x0, symName: __ZNSt3__117__compressed_pairIPNS_4listINS_4pairIidEENS_9allocatorIS3_EEEENS4_IS6_EEEC1B8ue170006IDnNS_18__default_init_tagEEEOT_OT0_, symObjAddr: 0x970, symBinAddr: 0x100002870, symSize: 0x3C }
  - { offsetInCU: 0x14281, offset: 0x14281, size: 0x8, addend: 0x0, symName: __ZNSt3__117__compressed_pairIPNS_4listINS_4pairIidEENS_9allocatorIS3_EEEENS4_IS6_EEEC2B8ue170006IDnNS_18__default_init_tagEEEOT_OT0_, symObjAddr: 0x9AC, symBinAddr: 0x1000028AC, symSize: 0x40 }
  - { offsetInCU: 0x142D9, offset: 0x142D9, size: 0x8, addend: 0x0, symName: __ZNSt3__122__compressed_pair_elemIPNS_4listINS_4pairIidEENS_9allocatorIS3_EEEELi0ELb0EEC2B8ue170006IDnvEEOT_, symObjAddr: 0x9EC, symBinAddr: 0x1000028EC, symSize: 0x1C }
  - { offsetInCU: 0x1431B, offset: 0x1431B, size: 0x8, addend: 0x0, symName: __ZNSt3__122__compressed_pair_elemINS_9allocatorINS_4listINS_4pairIidEENS1_IS4_EEEEEELi1ELb1EEC2B8ue170006ENS_18__default_init_tagE, symObjAddr: 0xA08, symBinAddr: 0x100002908, symSize: 0x2C }
  - { offsetInCU: 0x1434F, offset: 0x1434F, size: 0x8, addend: 0x0, symName: __ZNSt3__19allocatorINS_4listINS_4pairIidEENS0_IS3_EEEEEC2B8ue170006Ev, symObjAddr: 0xA34, symBinAddr: 0x100002934, symSize: 0x2C }
  - { offsetInCU: 0x14379, offset: 0x14379, size: 0x8, addend: 0x0, symName: __ZNSt3__116__non_trivial_ifILb1ENS_9allocatorINS_4listINS_4pairIidEENS1_IS4_EEEEEEEC2B8ue170006Ev, symObjAddr: 0xA60, symBinAddr: 0x100002960, symSize: 0x14 }
  - { offsetInCU: 0x143A3, offset: 0x143A3, size: 0x8, addend: 0x0, symName: __ZNKSt3__16vectorINS_4listINS_4pairIidEENS_9allocatorIS3_EEEENS4_IS6_EEE4sizeB8ue170006Ev, symObjAddr: 0xA74, symBinAddr: 0x100002974, symSize: 0x28 }
  - { offsetInCU: 0x143C9, offset: 0x143C9, size: 0x8, addend: 0x0, symName: __ZNSt3__16vectorINS_4listINS_4pairIidEENS_9allocatorIS3_EEEENS4_IS6_EEE8__appendEm, symObjAddr: 0xA9C, symBinAddr: 0x10000299C, symSize: 0x110 }
  - { offsetInCU: 0x14424, offset: 0x14424, size: 0x8, addend: 0x0, symName: __ZNSt3__16vectorINS_4listINS_4pairIidEENS_9allocatorIS3_EEEENS4_IS6_EEE17__destruct_at_endB8ue170006EPS6_, symObjAddr: 0xBAC, symBinAddr: 0x100002AAC, symSize: 0x4C }
  - { offsetInCU: 0x14468, offset: 0x14468, size: 0x8, addend: 0x0, symName: __ZNSt3__16vectorINS_4listINS_4pairIidEENS_9allocatorIS3_EEEENS4_IS6_EEE9__end_capB8ue170006Ev, symObjAddr: 0xBF8, symBinAddr: 0x100002AF8, symSize: 0x28 }
  - { offsetInCU: 0x1448E, offset: 0x1448E, size: 0x8, addend: 0x0, symName: __ZNSt3__16vectorINS_4listINS_4pairIidEENS_9allocatorIS3_EEEENS4_IS6_EEE18__construct_at_endEm, symObjAddr: 0xC20, symBinAddr: 0x100002B20, symSize: 0xD0 }
  - { offsetInCU: 0x14500, offset: 0x14500, size: 0x8, addend: 0x0, symName: __ZNSt3__16vectorINS_4listINS_4pairIidEENS_9allocatorIS3_EEEENS4_IS6_EEE7__allocB8ue170006Ev, symObjAddr: 0xCF0, symBinAddr: 0x100002BF0, symSize: 0x28 }
  - { offsetInCU: 0x14526, offset: 0x14526, size: 0x8, addend: 0x0, symName: __ZNKSt3__16vectorINS_4listINS_4pairIidEENS_9allocatorIS3_EEEENS4_IS6_EEE11__recommendB8ue170006Em, symObjAddr: 0xD18, symBinAddr: 0x100002C18, symSize: 0xB4 }
  - { offsetInCU: 0x1457B, offset: 0x1457B, size: 0x8, addend: 0x0, symName: __ZNSt3__114__split_bufferINS_4listINS_4pairIidEENS_9allocatorIS3_EEEERNS4_IS6_EEEC1EmmS8_, symObjAddr: 0xDCC, symBinAddr: 0x100002CCC, symSize: 0x44 }
  - { offsetInCU: 0x145D1, offset: 0x145D1, size: 0x8, addend: 0x0, symName: __ZNSt3__114__split_bufferINS_4listINS_4pairIidEENS_9allocatorIS3_EEEERNS4_IS6_EEE18__construct_at_endEm, symObjAddr: 0xE10, symBinAddr: 0x100002D10, symSize: 0xBC }
  - { offsetInCU: 0x14616, offset: 0x14616, size: 0x8, addend: 0x0, symName: __ZNSt3__114__split_bufferINS_4listINS_4pairIidEENS_9allocatorIS3_EEEERNS4_IS6_EEED1Ev, symObjAddr: 0xFDC, symBinAddr: 0x100002EDC, symSize: 0x2C }
  - { offsetInCU: 0x14642, offset: 0x14642, size: 0x8, addend: 0x0, symName: __ZNSt3__117__compressed_pairIPNS_4listINS_4pairIidEENS_9allocatorIS3_EEEENS4_IS6_EEE5firstB8ue170006Ev, symObjAddr: 0x1008, symBinAddr: 0x100002F08, symSize: 0x24 }
  - { offsetInCU: 0x14668, offset: 0x14668, size: 0x8, addend: 0x0, symName: __ZNSt3__122__compressed_pair_elemIPNS_4listINS_4pairIidEENS_9allocatorIS3_EEEELi0ELb0EE5__getB8ue170006Ev, symObjAddr: 0x102C, symBinAddr: 0x100002F2C, symSize: 0x14 }
  - { offsetInCU: 0x146A7, offset: 0x146A7, size: 0x8, addend: 0x0, symName: __ZNSt3__16vectorINS_4listINS_4pairIidEENS_9allocatorIS3_EEEENS4_IS6_EEE21_ConstructTransactionC1B8ue170006ERS8_m, symObjAddr: 0x1040, symBinAddr: 0x100002F40, symSize: 0x3C }
  - { offsetInCU: 0x146EF, offset: 0x146EF, size: 0x8, addend: 0x0, symName: __ZNSt3__116allocator_traitsINS_9allocatorINS_4listINS_4pairIidEENS1_IS4_EEEEEEE9constructB8ue170006IS6_JEvEEvRS7_PT_DpOT0_, symObjAddr: 0x107C, symBinAddr: 0x100002F7C, symSize: 0x2C }
  - { offsetInCU: 0x14731, offset: 0x14731, size: 0x8, addend: 0x0, symName: __ZNSt3__16vectorINS_4listINS_4pairIidEENS_9allocatorIS3_EEEENS4_IS6_EEE21_ConstructTransactionD1B8ue170006Ev, symObjAddr: 0x10BC, symBinAddr: 0x100002FBC, symSize: 0x2C }
  - { offsetInCU: 0x1475B, offset: 0x1475B, size: 0x8, addend: 0x0, symName: __ZNSt3__16vectorINS_4listINS_4pairIidEENS_9allocatorIS3_EEEENS4_IS6_EEE21_ConstructTransactionC2B8ue170006ERS8_m, symObjAddr: 0x10E8, symBinAddr: 0x100002FE8, symSize: 0x4C }
  - { offsetInCU: 0x147A3, offset: 0x147A3, size: 0x8, addend: 0x0, symName: __ZNSt3__19allocatorINS_4listINS_4pairIidEENS0_IS3_EEEEE9constructB8ue170006IS5_JEEEvPT_DpOT0_, symObjAddr: 0x1134, symBinAddr: 0x100003034, symSize: 0x28 }
  - { offsetInCU: 0x147E5, offset: 0x147E5, size: 0x8, addend: 0x0, symName: __ZNSt3__14listINS_4pairIidEENS_9allocatorIS2_EEEC1B8ue170006Ev, symObjAddr: 0x115C, symBinAddr: 0x10000305C, symSize: 0x2C }
  - { offsetInCU: 0x1480F, offset: 0x1480F, size: 0x8, addend: 0x0, symName: __ZNSt3__14listINS_4pairIidEENS_9allocatorIS2_EEEC2B8ue170006Ev, symObjAddr: 0x1188, symBinAddr: 0x100003088, symSize: 0x2C }
  - { offsetInCU: 0x14839, offset: 0x14839, size: 0x8, addend: 0x0, symName: __ZNSt3__110__list_impINS_4pairIidEENS_9allocatorIS2_EEEC2Ev, symObjAddr: 0x11B4, symBinAddr: 0x1000030B4, symSize: 0x44 }
  - { offsetInCU: 0x14865, offset: 0x14865, size: 0x8, addend: 0x0, symName: __ZNSt3__116__list_node_baseINS_4pairIidEEPvEC1B8ue170006Ev, symObjAddr: 0x11F8, symBinAddr: 0x1000030F8, symSize: 0x2C }
  - { offsetInCU: 0x14895, offset: 0x14895, size: 0x8, addend: 0x0, symName: __ZNSt3__117__compressed_pairImNS_9allocatorINS_11__list_nodeINS_4pairIidEEPvEEEEEC1B8ue170006IiNS_18__default_init_tagEEEOT_OT0_, symObjAddr: 0x1224, symBinAddr: 0x100003124, symSize: 0x3C }
  - { offsetInCU: 0x148ED, offset: 0x148ED, size: 0x8, addend: 0x0, symName: __ZNSt3__116__list_node_baseINS_4pairIidEEPvEC2B8ue170006Ev, symObjAddr: 0x1260, symBinAddr: 0x100003160, symSize: 0x4C }
  - { offsetInCU: 0x14917, offset: 0x14917, size: 0x8, addend: 0x0, symName: __ZNSt3__126__list_node_pointer_traitsINS_4pairIidEEPvE26__unsafe_link_pointer_castB8ue170006EPNS_16__list_node_baseIS2_S3_EE, symObjAddr: 0x12AC, symBinAddr: 0x1000031AC, symSize: 0x14 }
  - { offsetInCU: 0x1493B, offset: 0x1493B, size: 0x8, addend: 0x0, symName: __ZNSt3__116__list_node_baseINS_4pairIidEEPvE6__selfB8ue170006Ev, symObjAddr: 0x12C0, symBinAddr: 0x1000031C0, symSize: 0x24 }
  - { offsetInCU: 0x14966, offset: 0x14966, size: 0x8, addend: 0x0, symName: __ZNSt3__114pointer_traitsIPNS_16__list_node_baseINS_4pairIidEEPvEEE10pointer_toB8ue170006ERS5_, symObjAddr: 0x12E4, symBinAddr: 0x1000031E4, symSize: 0x14 }
  - { offsetInCU: 0x14989, offset: 0x14989, size: 0x8, addend: 0x0, symName: __ZNSt3__117__compressed_pairImNS_9allocatorINS_11__list_nodeINS_4pairIidEEPvEEEEEC2B8ue170006IiNS_18__default_init_tagEEEOT_OT0_, symObjAddr: 0x12F8, symBinAddr: 0x1000031F8, symSize: 0x40 }
  - { offsetInCU: 0x149E1, offset: 0x149E1, size: 0x8, addend: 0x0, symName: __ZNSt3__122__compressed_pair_elemImLi0ELb0EEC2B8ue170006IivEEOT_, symObjAddr: 0x1338, symBinAddr: 0x100003238, symSize: 0x24 }
  - { offsetInCU: 0x14A23, offset: 0x14A23, size: 0x8, addend: 0x0, symName: __ZNSt3__122__compressed_pair_elemINS_9allocatorINS_11__list_nodeINS_4pairIidEEPvEEEELi1ELb1EEC2B8ue170006ENS_18__default_init_tagE, symObjAddr: 0x135C, symBinAddr: 0x10000325C, symSize: 0x2C }
  - { offsetInCU: 0x14A57, offset: 0x14A57, size: 0x8, addend: 0x0, symName: __ZNSt3__19allocatorINS_11__list_nodeINS_4pairIidEEPvEEEC2B8ue170006Ev, symObjAddr: 0x1388, symBinAddr: 0x100003288, symSize: 0x2C }
  - { offsetInCU: 0x14A81, offset: 0x14A81, size: 0x8, addend: 0x0, symName: __ZNSt3__116__non_trivial_ifILb1ENS_9allocatorINS_11__list_nodeINS_4pairIidEEPvEEEEEC2B8ue170006Ev, symObjAddr: 0x13B4, symBinAddr: 0x1000032B4, symSize: 0x14 }
  - { offsetInCU: 0x14AAB, offset: 0x14AAB, size: 0x8, addend: 0x0, symName: __ZNSt3__16vectorINS_4listINS_4pairIidEENS_9allocatorIS3_EEEENS4_IS6_EEE21_ConstructTransactionD2B8ue170006Ev, symObjAddr: 0x13C8, symBinAddr: 0x1000032C8, symSize: 0x20 }
  - { offsetInCU: 0x14AD5, offset: 0x14AD5, size: 0x8, addend: 0x0, symName: __ZNSt3__117__compressed_pairIPNS_4listINS_4pairIidEENS_9allocatorIS3_EEEENS4_IS6_EEE6secondB8ue170006Ev, symObjAddr: 0x13E8, symBinAddr: 0x1000032E8, symSize: 0x24 }
  - { offsetInCU: 0x14AFB, offset: 0x14AFB, size: 0x8, addend: 0x0, symName: __ZNSt3__122__compressed_pair_elemINS_9allocatorINS_4listINS_4pairIidEENS1_IS4_EEEEEELi1ELb1EE5__getB8ue170006Ev, symObjAddr: 0x140C, symBinAddr: 0x10000330C, symSize: 0x14 }
  - { offsetInCU: 0x14B21, offset: 0x14B21, size: 0x8, addend: 0x0, symName: __ZNKSt3__16vectorINS_4listINS_4pairIidEENS_9allocatorIS3_EEEENS4_IS6_EEE8max_sizeEv, symObjAddr: 0x1420, symBinAddr: 0x100003320, symSize: 0x74 }
  - { offsetInCU: 0x14B49, offset: 0x14B49, size: 0x8, addend: 0x0, symName: __ZNKSt3__16vectorINS_4listINS_4pairIidEENS_9allocatorIS3_EEEENS4_IS6_EEE20__throw_length_errorB8ue170006Ev, symObjAddr: 0x1494, symBinAddr: 0x100003394, symSize: 0x1C }
  - { offsetInCU: 0x14B6F, offset: 0x14B6F, size: 0x8, addend: 0x0, symName: __ZNKSt3__16vectorINS_4listINS_4pairIidEENS_9allocatorIS3_EEEENS4_IS6_EEE8capacityB8ue170006Ev, symObjAddr: 0x14B0, symBinAddr: 0x1000033B0, symSize: 0x40 }
  - { offsetInCU: 0x14B9F, offset: 0x14B9F, size: 0x8, addend: 0x0, symName: __ZNSt3__116allocator_traitsINS_9allocatorINS_4listINS_4pairIidEENS1_IS4_EEEEEEE8max_sizeB8ue170006IS7_vEEmRKS7_, symObjAddr: 0x1548, symBinAddr: 0x100003448, symSize: 0x24 }
  - { offsetInCU: 0x14BCD, offset: 0x14BCD, size: 0x8, addend: 0x0, symName: __ZNKSt3__16vectorINS_4listINS_4pairIidEENS_9allocatorIS3_EEEENS4_IS6_EEE7__allocB8ue170006Ev, symObjAddr: 0x156C, symBinAddr: 0x10000346C, symSize: 0x28 }
  - { offsetInCU: 0x14BF3, offset: 0x14BF3, size: 0x8, addend: 0x0, symName: __ZNSt3__114numeric_limitsIlE3maxB8ue170006Ev, symObjAddr: 0x1594, symBinAddr: 0x100003494, symSize: 0x14 }
  - { offsetInCU: 0x14C11, offset: 0x14C11, size: 0x8, addend: 0x0, symName: __ZNKSt3__16__lessIvvEclB8ue170006ImmEEbRKT_RKT0_, symObjAddr: 0x15FC, symBinAddr: 0x1000034FC, symSize: 0x34 }
  - { offsetInCU: 0x14C65, offset: 0x14C65, size: 0x8, addend: 0x0, symName: __ZNKSt3__19allocatorINS_4listINS_4pairIidEENS0_IS3_EEEEE8max_sizeB8ue170006Ev, symObjAddr: 0x1630, symBinAddr: 0x100003530, symSize: 0x18 }
  - { offsetInCU: 0x14C8B, offset: 0x14C8B, size: 0x8, addend: 0x0, symName: __ZNKSt3__117__compressed_pairIPNS_4listINS_4pairIidEENS_9allocatorIS3_EEEENS4_IS6_EEE6secondB8ue170006Ev, symObjAddr: 0x1648, symBinAddr: 0x100003548, symSize: 0x24 }
  - { offsetInCU: 0x14CB1, offset: 0x14CB1, size: 0x8, addend: 0x0, symName: __ZNKSt3__122__compressed_pair_elemINS_9allocatorINS_4listINS_4pairIidEENS1_IS4_EEEEEELi1ELb1EE5__getB8ue170006Ev, symObjAddr: 0x166C, symBinAddr: 0x10000356C, symSize: 0x14 }
  - { offsetInCU: 0x14CD7, offset: 0x14CD7, size: 0x8, addend: 0x0, symName: __ZNSt3__123__libcpp_numeric_limitsIlLb1EE3maxB8ue170006Ev, symObjAddr: 0x1680, symBinAddr: 0x100003580, symSize: 0x8 }
  - { offsetInCU: 0x14CEB, offset: 0x14CEB, size: 0x8, addend: 0x0, symName: __ZNSt12length_errorC1B8ue170006EPKc, symObjAddr: 0x16EC, symBinAddr: 0x1000035EC, symSize: 0x34 }
  - { offsetInCU: 0x14D23, offset: 0x14D23, size: 0x8, addend: 0x0, symName: __ZNSt12length_errorC2B8ue170006EPKc, symObjAddr: 0x1720, symBinAddr: 0x100003620, symSize: 0x4C }
  - { offsetInCU: 0x14D5B, offset: 0x14D5B, size: 0x8, addend: 0x0, symName: __ZNKSt3__16vectorINS_4listINS_4pairIidEENS_9allocatorIS3_EEEENS4_IS6_EEE9__end_capB8ue170006Ev, symObjAddr: 0x176C, symBinAddr: 0x10000366C, symSize: 0x28 }
  - { offsetInCU: 0x14D81, offset: 0x14D81, size: 0x8, addend: 0x0, symName: __ZNKSt3__117__compressed_pairIPNS_4listINS_4pairIidEENS_9allocatorIS3_EEEENS4_IS6_EEE5firstB8ue170006Ev, symObjAddr: 0x1794, symBinAddr: 0x100003694, symSize: 0x24 }
  - { offsetInCU: 0x14DA7, offset: 0x14DA7, size: 0x8, addend: 0x0, symName: __ZNKSt3__122__compressed_pair_elemIPNS_4listINS_4pairIidEENS_9allocatorIS3_EEEELi0ELb0EE5__getB8ue170006Ev, symObjAddr: 0x17B8, symBinAddr: 0x1000036B8, symSize: 0x14 }
  - { offsetInCU: 0x14DCD, offset: 0x14DCD, size: 0x8, addend: 0x0, symName: __ZNSt3__114__split_bufferINS_4listINS_4pairIidEENS_9allocatorIS3_EEEERNS4_IS6_EEEC2EmmS8_, symObjAddr: 0x1820, symBinAddr: 0x100003720, symSize: 0xE0 }
  - { offsetInCU: 0x14E40, offset: 0x14E40, size: 0x8, addend: 0x0, symName: __ZNSt3__117__compressed_pairIPNS_4listINS_4pairIidEENS_9allocatorIS3_EEEERNS4_IS6_EEEC1B8ue170006IDnS9_EEOT_OT0_, symObjAddr: 0x1900, symBinAddr: 0x100003800, symSize: 0x3C }
  - { offsetInCU: 0x14E98, offset: 0x14E98, size: 0x8, addend: 0x0, symName: __ZNSt3__114__split_bufferINS_4listINS_4pairIidEENS_9allocatorIS3_EEEERNS4_IS6_EEE7__allocB8ue170006Ev, symObjAddr: 0x197C, symBinAddr: 0x10000387C, symSize: 0x28 }
  - { offsetInCU: 0x14EBE, offset: 0x14EBE, size: 0x8, addend: 0x0, symName: __ZNSt3__114__split_bufferINS_4listINS_4pairIidEENS_9allocatorIS3_EEEERNS4_IS6_EEE9__end_capB8ue170006Ev, symObjAddr: 0x19A4, symBinAddr: 0x1000038A4, symSize: 0x28 }
  - { offsetInCU: 0x14EE4, offset: 0x14EE4, size: 0x8, addend: 0x0, symName: __ZNSt3__117__compressed_pairIPNS_4listINS_4pairIidEENS_9allocatorIS3_EEEERNS4_IS6_EEEC2B8ue170006IDnS9_EEOT_OT0_, symObjAddr: 0x19CC, symBinAddr: 0x1000038CC, symSize: 0x48 }
  - { offsetInCU: 0x14F3C, offset: 0x14F3C, size: 0x8, addend: 0x0, symName: __ZNSt3__122__compressed_pair_elemIRNS_9allocatorINS_4listINS_4pairIidEENS1_IS4_EEEEEELi1ELb0EEC2B8ue170006IS8_vEEOT_, symObjAddr: 0x1A14, symBinAddr: 0x100003914, symSize: 0x20 }
  - { offsetInCU: 0x14F7E, offset: 0x14F7E, size: 0x8, addend: 0x0, symName: __ZNSt3__19allocatorINS_4listINS_4pairIidEENS0_IS3_EEEEE8allocateB8ue170006Em, symObjAddr: 0x1A34, symBinAddr: 0x100003934, symSize: 0x8C }
  - { offsetInCU: 0x14FB2, offset: 0x14FB2, size: 0x8, addend: 0x0, symName: __ZNSt3__117__compressed_pairIPNS_4listINS_4pairIidEENS_9allocatorIS3_EEEERNS4_IS6_EEE6secondB8ue170006Ev, symObjAddr: 0x1B4C, symBinAddr: 0x100003A4C, symSize: 0x28 }
  - { offsetInCU: 0x14FD8, offset: 0x14FD8, size: 0x8, addend: 0x0, symName: __ZNSt3__122__compressed_pair_elemIRNS_9allocatorINS_4listINS_4pairIidEENS1_IS4_EEEEEELi1ELb0EE5__getB8ue170006Ev, symObjAddr: 0x1B74, symBinAddr: 0x100003A74, symSize: 0x18 }
  - { offsetInCU: 0x14FFE, offset: 0x14FFE, size: 0x8, addend: 0x0, symName: __ZNSt3__117__compressed_pairIPNS_4listINS_4pairIidEENS_9allocatorIS3_EEEERNS4_IS6_EEE5firstB8ue170006Ev, symObjAddr: 0x1B8C, symBinAddr: 0x100003A8C, symSize: 0x24 }
  - { offsetInCU: 0x1502E, offset: 0x1502E, size: 0x8, addend: 0x0, symName: __ZNSt3__114__split_bufferINS_4listINS_4pairIidEENS_9allocatorIS3_EEEERNS4_IS6_EEE21_ConstructTransactionC1B8ue170006EPPS6_m, symObjAddr: 0x1BB0, symBinAddr: 0x100003AB0, symSize: 0x3C }
  - { offsetInCU: 0x15074, offset: 0x15074, size: 0x8, addend: 0x0, symName: __ZNSt3__114__split_bufferINS_4listINS_4pairIidEENS_9allocatorIS3_EEEERNS4_IS6_EEE21_ConstructTransactionD1B8ue170006Ev, symObjAddr: 0x1BEC, symBinAddr: 0x100003AEC, symSize: 0x2C }
  - { offsetInCU: 0x1509E, offset: 0x1509E, size: 0x8, addend: 0x0, symName: __ZNSt3__114__split_bufferINS_4listINS_4pairIidEENS_9allocatorIS3_EEEERNS4_IS6_EEE21_ConstructTransactionC2B8ue170006EPPS6_m, symObjAddr: 0x1C18, symBinAddr: 0x100003B18, symSize: 0x4C }
  - { offsetInCU: 0x150E4, offset: 0x150E4, size: 0x8, addend: 0x0, symName: __ZNSt3__114__split_bufferINS_4listINS_4pairIidEENS_9allocatorIS3_EEEERNS4_IS6_EEE21_ConstructTransactionD2B8ue170006Ev, symObjAddr: 0x1C64, symBinAddr: 0x100003B64, symSize: 0x20 }
  - { offsetInCU: 0x1510E, offset: 0x1510E, size: 0x8, addend: 0x0, symName: __ZNKSt3__16vectorINS_4listINS_4pairIidEENS_9allocatorIS3_EEEENS4_IS6_EEE17__annotate_deleteB8ue170006Ev, symObjAddr: 0x1C84, symBinAddr: 0x100003B84, symSize: 0xD4 }
  - { offsetInCU: 0x15134, offset: 0x15134, size: 0x8, addend: 0x0, symName: __ZNSt3__116reverse_iteratorIPNS_4listINS_4pairIidEENS_9allocatorIS3_EEEEEC1B8ue170006ES7_, symObjAddr: 0x1E8C, symBinAddr: 0x100003D8C, symSize: 0x34 }
  - { offsetInCU: 0x1516C, offset: 0x1516C, size: 0x8, addend: 0x0, symName: __ZNKSt3__116reverse_iteratorIPNS_4listINS_4pairIidEENS_9allocatorIS3_EEEEE4baseB8ue170006Ev, symObjAddr: 0x1EC0, symBinAddr: 0x100003DC0, symSize: 0x18 }
  - { offsetInCU: 0x15192, offset: 0x15192, size: 0x8, addend: 0x0, symName: __ZNKSt3__16vectorINS_4listINS_4pairIidEENS_9allocatorIS3_EEEENS4_IS6_EEE14__annotate_newB8ue170006Em, symObjAddr: 0x1F14, symBinAddr: 0x100003E14, symSize: 0xC8 }
  - { offsetInCU: 0x151C7, offset: 0x151C7, size: 0x8, addend: 0x0, symName: __ZNKSt3__16vectorINS_4listINS_4pairIidEENS_9allocatorIS3_EEEENS4_IS6_EEE31__annotate_contiguous_containerB8ue170006EPKvSA_SA_SA_, symObjAddr: 0x1FDC, symBinAddr: 0x100003EDC, symSize: 0x20 }
  - { offsetInCU: 0x15219, offset: 0x15219, size: 0x8, addend: 0x0, symName: __ZNKSt3__16vectorINS_4listINS_4pairIidEENS_9allocatorIS3_EEEENS4_IS6_EEE4dataB8ue170006Ev, symObjAddr: 0x1FFC, symBinAddr: 0x100003EFC, symSize: 0x28 }
  - { offsetInCU: 0x1523F, offset: 0x1523F, size: 0x8, addend: 0x0, symName: __ZNSt3__129_AllocatorDestroyRangeReverseINS_9allocatorINS_4listINS_4pairIidEENS1_IS4_EEEEEENS_16reverse_iteratorIPS6_EEEC1B8ue170006ERS7_RSA_SD_, symObjAddr: 0x2070, symBinAddr: 0x100003F70, symSize: 0x44 }
  - { offsetInCU: 0x15296, offset: 0x15296, size: 0x8, addend: 0x0, symName: __ZNSt3__116allocator_traitsINS_9allocatorINS_4listINS_4pairIidEENS1_IS4_EEEEEEE9constructB8ue170006IS6_JRKS6_EvEEvRS7_PT_DpOT0_, symObjAddr: 0x20FC, symBinAddr: 0x100003FFC, symSize: 0x34 }
  - { offsetInCU: 0x152ED, offset: 0x152ED, size: 0x8, addend: 0x0, symName: __ZNKSt3__116reverse_iteratorIPNS_4listINS_4pairIidEENS_9allocatorIS3_EEEEEdeB8ue170006Ev, symObjAddr: 0x2154, symBinAddr: 0x100004054, symSize: 0x28 }
  - { offsetInCU: 0x15321, offset: 0x15321, size: 0x8, addend: 0x0, symName: __ZNSt3__116reverse_iteratorIPNS_4listINS_4pairIidEENS_9allocatorIS3_EEEEEppB8ue170006Ev, symObjAddr: 0x217C, symBinAddr: 0x10000407C, symSize: 0x20 }
  - { offsetInCU: 0x15347, offset: 0x15347, size: 0x8, addend: 0x0, symName: __ZNSt3__128__exception_guard_exceptionsINS_29_AllocatorDestroyRangeReverseINS_9allocatorINS_4listINS_4pairIidEENS2_IS5_EEEEEENS_16reverse_iteratorIPS7_EEEEE10__completeB8ue170006Ev, symObjAddr: 0x219C, symBinAddr: 0x10000409C, symSize: 0x1C }
  - { offsetInCU: 0x1536D, offset: 0x1536D, size: 0x8, addend: 0x0, symName: __ZNSt3__128__exception_guard_exceptionsINS_29_AllocatorDestroyRangeReverseINS_9allocatorINS_4listINS_4pairIidEENS2_IS5_EEEEEENS_16reverse_iteratorIPS7_EEEEED1B8ue170006Ev, symObjAddr: 0x21B8, symBinAddr: 0x1000040B8, symSize: 0x2C }
  - { offsetInCU: 0x15397, offset: 0x15397, size: 0x8, addend: 0x0, symName: __ZNSt3__128__exception_guard_exceptionsINS_29_AllocatorDestroyRangeReverseINS_9allocatorINS_4listINS_4pairIidEENS2_IS5_EEEEEENS_16reverse_iteratorIPS7_EEEEEC1B8ue170006ESC_, symObjAddr: 0x21E4, symBinAddr: 0x1000040E4, symSize: 0x34 }
  - { offsetInCU: 0x153D0, offset: 0x153D0, size: 0x8, addend: 0x0, symName: __ZNSt3__128__exception_guard_exceptionsINS_29_AllocatorDestroyRangeReverseINS_9allocatorINS_4listINS_4pairIidEENS2_IS5_EEEEEENS_16reverse_iteratorIPS7_EEEEEC2B8ue170006ESC_, symObjAddr: 0x2218, symBinAddr: 0x100004118, symSize: 0x30 }
  - { offsetInCU: 0x15409, offset: 0x15409, size: 0x8, addend: 0x0, symName: __ZNSt3__129_AllocatorDestroyRangeReverseINS_9allocatorINS_4listINS_4pairIidEENS1_IS4_EEEEEENS_16reverse_iteratorIPS6_EEEC2B8ue170006ERS7_RSA_SD_, symObjAddr: 0x2248, symBinAddr: 0x100004148, symSize: 0x38 }
  - { offsetInCU: 0x15460, offset: 0x15460, size: 0x8, addend: 0x0, symName: __ZNSt3__19allocatorINS_4listINS_4pairIidEENS0_IS3_EEEEE9constructB8ue170006IS5_JRKS5_EEEvPT_DpOT0_, symObjAddr: 0x2280, symBinAddr: 0x100004180, symSize: 0x30 }
  - { offsetInCU: 0x154B6, offset: 0x154B6, size: 0x8, addend: 0x0, symName: __ZNSt3__14listINS_4pairIidEENS_9allocatorIS2_EEEC1ERKS5_, symObjAddr: 0x22B0, symBinAddr: 0x1000041B0, symSize: 0x34 }
  - { offsetInCU: 0x154F1, offset: 0x154F1, size: 0x8, addend: 0x0, symName: __ZNSt3__14listINS_4pairIidEENS_9allocatorIS2_EEEC2ERKS5_, symObjAddr: 0x22E4, symBinAddr: 0x1000041E4, symSize: 0xE4 }
  - { offsetInCU: 0x15562, offset: 0x15562, size: 0x8, addend: 0x0, symName: __ZNSt3__116allocator_traitsINS_9allocatorINS_11__list_nodeINS_4pairIidEEPvEEEEE37select_on_container_copy_constructionB8ue170006IS7_vvEES7_RKS7_, symObjAddr: 0x23C8, symBinAddr: 0x1000042C8, symSize: 0x10 }
  - { offsetInCU: 0x15591, offset: 0x15591, size: 0x8, addend: 0x0, symName: __ZNKSt3__110__list_impINS_4pairIidEENS_9allocatorIS2_EEE12__node_allocB8ue170006Ev, symObjAddr: 0x23D8, symBinAddr: 0x1000042D8, symSize: 0x28 }
  - { offsetInCU: 0x155B7, offset: 0x155B7, size: 0x8, addend: 0x0, symName: __ZNSt3__110__list_impINS_4pairIidEENS_9allocatorIS2_EEEC2ERKNS3_INS_11__list_nodeIS2_PvEEEE, symObjAddr: 0x2400, symBinAddr: 0x100004300, symSize: 0x48 }
  - { offsetInCU: 0x155F2, offset: 0x155F2, size: 0x8, addend: 0x0, symName: __ZNKSt3__14listINS_4pairIidEENS_9allocatorIS2_EEE5beginB8ue170006Ev, symObjAddr: 0x2448, symBinAddr: 0x100004348, symSize: 0x2C }
  - { offsetInCU: 0x15618, offset: 0x15618, size: 0x8, addend: 0x0, symName: __ZNKSt3__14listINS_4pairIidEENS_9allocatorIS2_EEE3endB8ue170006Ev, symObjAddr: 0x2474, symBinAddr: 0x100004374, symSize: 0x2C }
  - { offsetInCU: 0x1563E, offset: 0x1563E, size: 0x8, addend: 0x0, symName: __ZNSt3__14listINS_4pairIidEENS_9allocatorIS2_EEE9push_backERKS2_, symObjAddr: 0x24D4, symBinAddr: 0x1000043D4, symSize: 0xFC }
  - { offsetInCU: 0x15693, offset: 0x15693, size: 0x8, addend: 0x0, symName: __ZNKSt3__121__list_const_iteratorINS_4pairIidEEPvEdeB8ue170006Ev, symObjAddr: 0x25D0, symBinAddr: 0x1000044D0, symSize: 0x2C }
  - { offsetInCU: 0x156B9, offset: 0x156B9, size: 0x8, addend: 0x0, symName: __ZNSt3__121__list_const_iteratorINS_4pairIidEEPvEppB8ue170006Ev, symObjAddr: 0x25FC, symBinAddr: 0x1000044FC, symSize: 0x20 }
  - { offsetInCU: 0x156DF, offset: 0x156DF, size: 0x8, addend: 0x0, symName: __ZNSt3__110__list_impINS_4pairIidEENS_9allocatorIS2_EEED2Ev, symObjAddr: 0x261C, symBinAddr: 0x10000451C, symSize: 0x2C }
  - { offsetInCU: 0x1570B, offset: 0x1570B, size: 0x8, addend: 0x0, symName: __ZNKSt3__117__compressed_pairImNS_9allocatorINS_11__list_nodeINS_4pairIidEEPvEEEEE6secondB8ue170006Ev, symObjAddr: 0x2648, symBinAddr: 0x100004548, symSize: 0x24 }
  - { offsetInCU: 0x15731, offset: 0x15731, size: 0x8, addend: 0x0, symName: __ZNKSt3__122__compressed_pair_elemINS_9allocatorINS_11__list_nodeINS_4pairIidEEPvEEEELi1ELb1EE5__getB8ue170006Ev, symObjAddr: 0x266C, symBinAddr: 0x10000456C, symSize: 0x14 }
  - { offsetInCU: 0x15757, offset: 0x15757, size: 0x8, addend: 0x0, symName: __ZNSt3__117__compressed_pairImNS_9allocatorINS_11__list_nodeINS_4pairIidEEPvEEEEEC1B8ue170006IiRKS7_EEOT_OT0_, symObjAddr: 0x2680, symBinAddr: 0x100004580, symSize: 0x3C }
  - { offsetInCU: 0x157AF, offset: 0x157AF, size: 0x8, addend: 0x0, symName: __ZNSt3__117__compressed_pairImNS_9allocatorINS_11__list_nodeINS_4pairIidEEPvEEEEEC2B8ue170006IiRKS7_EEOT_OT0_, symObjAddr: 0x26BC, symBinAddr: 0x1000045BC, symSize: 0x44 }
  - { offsetInCU: 0x15807, offset: 0x15807, size: 0x8, addend: 0x0, symName: __ZNSt3__122__compressed_pair_elemINS_9allocatorINS_11__list_nodeINS_4pairIidEEPvEEEELi1ELb1EEC2B8ue170006IRKS7_vEEOT_, symObjAddr: 0x2700, symBinAddr: 0x100004600, symSize: 0x18 }
  - { offsetInCU: 0x15849, offset: 0x15849, size: 0x8, addend: 0x0, symName: __ZNKSt3__110__list_impINS_4pairIidEENS_9allocatorIS2_EEE5beginB8ue170006Ev, symObjAddr: 0x2718, symBinAddr: 0x100004618, symSize: 0x30 }
  - { offsetInCU: 0x1586F, offset: 0x1586F, size: 0x8, addend: 0x0, symName: __ZNSt3__121__list_const_iteratorINS_4pairIidEEPvEC1B8ue170006EPNS_16__list_node_baseIS2_S3_EE, symObjAddr: 0x2748, symBinAddr: 0x100004648, symSize: 0x34 }
  - { offsetInCU: 0x158A8, offset: 0x158A8, size: 0x8, addend: 0x0, symName: __ZNSt3__121__list_const_iteratorINS_4pairIidEEPvEC2B8ue170006EPNS_16__list_node_baseIS2_S3_EE, symObjAddr: 0x277C, symBinAddr: 0x10000467C, symSize: 0x20 }
  - { offsetInCU: 0x158E1, offset: 0x158E1, size: 0x8, addend: 0x0, symName: __ZNKSt3__110__list_impINS_4pairIidEENS_9allocatorIS2_EEE3endB8ue170006Ev, symObjAddr: 0x279C, symBinAddr: 0x10000469C, symSize: 0x34 }
  - { offsetInCU: 0x15907, offset: 0x15907, size: 0x8, addend: 0x0, symName: __ZNKSt3__110__list_impINS_4pairIidEENS_9allocatorIS2_EEE13__end_as_linkB8ue170006Ev, symObjAddr: 0x27D0, symBinAddr: 0x1000046D0, symSize: 0x28 }
  - { offsetInCU: 0x1592D, offset: 0x1592D, size: 0x8, addend: 0x0, symName: __ZNSt3__110__list_impINS_4pairIidEENS_9allocatorIS2_EEE12__node_allocB8ue170006Ev, symObjAddr: 0x2828, symBinAddr: 0x100004728, symSize: 0x28 }
  - { offsetInCU: 0x15953, offset: 0x15953, size: 0x8, addend: 0x0, symName: __ZNSt3__14listINS_4pairIidEENS_9allocatorIS2_EEE15__allocate_nodeB8ue170006ERNS3_INS_11__list_nodeIS2_PvEEEE, symObjAddr: 0x2850, symBinAddr: 0x100004750, symSize: 0x70 }
  - { offsetInCU: 0x15997, offset: 0x15997, size: 0x8, addend: 0x0, symName: __ZNSt3__116allocator_traitsINS_9allocatorINS_11__list_nodeINS_4pairIidEEPvEEEEE9constructB8ue170006IS4_JRKS4_EvEEvRS7_PT_DpOT0_, symObjAddr: 0x28C0, symBinAddr: 0x1000047C0, symSize: 0x34 }
  - { offsetInCU: 0x159EE, offset: 0x159EE, size: 0x8, addend: 0x0, symName: __ZNKSt3__110unique_ptrINS_11__list_nodeINS_4pairIidEEPvEENS_22__allocator_destructorINS_9allocatorIS5_EEEEEptB8ue170006Ev, symObjAddr: 0x28F4, symBinAddr: 0x1000047F4, symSize: 0x28 }
  - { offsetInCU: 0x15A14, offset: 0x15A14, size: 0x8, addend: 0x0, symName: __ZNSt3__14listINS_4pairIidEENS_9allocatorIS2_EEE20__link_nodes_at_backEPNS_16__list_node_baseIS2_PvEES9_, symObjAddr: 0x291C, symBinAddr: 0x10000481C, symSize: 0x60 }
  - { offsetInCU: 0x15A5A, offset: 0x15A5A, size: 0x8, addend: 0x0, symName: __ZNKSt3__110unique_ptrINS_11__list_nodeINS_4pairIidEEPvEENS_22__allocator_destructorINS_9allocatorIS5_EEEEE3getB8ue170006Ev, symObjAddr: 0x297C, symBinAddr: 0x10000487C, symSize: 0x28 }
  - { offsetInCU: 0x15A80, offset: 0x15A80, size: 0x8, addend: 0x0, symName: __ZNSt3__111__list_nodeINS_4pairIidEEPvE9__as_linkB8ue170006Ev, symObjAddr: 0x29A4, symBinAddr: 0x1000048A4, symSize: 0x24 }
  - { offsetInCU: 0x15AA6, offset: 0x15AA6, size: 0x8, addend: 0x0, symName: __ZNSt3__110__list_impINS_4pairIidEENS_9allocatorIS2_EEE4__szB8ue170006Ev, symObjAddr: 0x29C8, symBinAddr: 0x1000048C8, symSize: 0x28 }
  - { offsetInCU: 0x15ACC, offset: 0x15ACC, size: 0x8, addend: 0x0, symName: __ZNSt3__110unique_ptrINS_11__list_nodeINS_4pairIidEEPvEENS_22__allocator_destructorINS_9allocatorIS5_EEEEE7releaseB8ue170006Ev, symObjAddr: 0x29F0, symBinAddr: 0x1000048F0, symSize: 0x44 }
  - { offsetInCU: 0x15B01, offset: 0x15B01, size: 0x8, addend: 0x0, symName: __ZNSt3__110unique_ptrINS_11__list_nodeINS_4pairIidEEPvEENS_22__allocator_destructorINS_9allocatorIS5_EEEEED1B8ue170006Ev, symObjAddr: 0x2A34, symBinAddr: 0x100004934, symSize: 0x2C }
  - { offsetInCU: 0x15B2B, offset: 0x15B2B, size: 0x8, addend: 0x0, symName: __ZNSt3__117__compressed_pairImNS_9allocatorINS_11__list_nodeINS_4pairIidEEPvEEEEE6secondB8ue170006Ev, symObjAddr: 0x2A60, symBinAddr: 0x100004960, symSize: 0x24 }
  - { offsetInCU: 0x15B51, offset: 0x15B51, size: 0x8, addend: 0x0, symName: __ZNSt3__122__compressed_pair_elemINS_9allocatorINS_11__list_nodeINS_4pairIidEEPvEEEELi1ELb1EE5__getB8ue170006Ev, symObjAddr: 0x2A84, symBinAddr: 0x100004984, symSize: 0x14 }
  - { offsetInCU: 0x15B77, offset: 0x15B77, size: 0x8, addend: 0x0, symName: __ZNSt3__116allocator_traitsINS_9allocatorINS_11__list_nodeINS_4pairIidEEPvEEEEE8allocateB8ue170006ERS7_m, symObjAddr: 0x2A98, symBinAddr: 0x100004998, symSize: 0x2C }
  - { offsetInCU: 0x15BAA, offset: 0x15BAA, size: 0x8, addend: 0x0, symName: __ZNSt3__122__allocator_destructorINS_9allocatorINS_11__list_nodeINS_4pairIidEEPvEEEEEC1B8ue170006ERS7_m, symObjAddr: 0x2AC4, symBinAddr: 0x1000049C4, symSize: 0x3C }
  - { offsetInCU: 0x15BF6, offset: 0x15BF6, size: 0x8, addend: 0x0, symName: __ZNSt3__110unique_ptrINS_11__list_nodeINS_4pairIidEEPvEENS_22__allocator_destructorINS_9allocatorIS5_EEEEEC1B8ue170006ILb1EvEEPS5_NS_16__dependent_typeINS_27__unique_ptr_deleter_sfinaeIS9_EEXT_EE20__good_rval_ref_typeE, symObjAddr: 0x2B00, symBinAddr: 0x100004A00, symSize: 0x3C }
  - { offsetInCU: 0x15C47, offset: 0x15C47, size: 0x8, addend: 0x0, symName: __ZNSt3__19allocatorINS_11__list_nodeINS_4pairIidEEPvEEE8allocateB8ue170006Em, symObjAddr: 0x2B3C, symBinAddr: 0x100004A3C, symSize: 0x84 }
  - { offsetInCU: 0x15C7B, offset: 0x15C7B, size: 0x8, addend: 0x0, symName: __ZNSt3__116allocator_traitsINS_9allocatorINS_11__list_nodeINS_4pairIidEEPvEEEEE8max_sizeB8ue170006IS7_vEEmRKS7_, symObjAddr: 0x2BC0, symBinAddr: 0x100004AC0, symSize: 0x24 }
  - { offsetInCU: 0x15CA9, offset: 0x15CA9, size: 0x8, addend: 0x0, symName: __ZNKSt3__19allocatorINS_11__list_nodeINS_4pairIidEEPvEEE8max_sizeB8ue170006Ev, symObjAddr: 0x2BE4, symBinAddr: 0x100004AE4, symSize: 0x14 }
  - { offsetInCU: 0x15CCF, offset: 0x15CCF, size: 0x8, addend: 0x0, symName: __ZNSt3__122__allocator_destructorINS_9allocatorINS_11__list_nodeINS_4pairIidEEPvEEEEEC2B8ue170006ERS7_m, symObjAddr: 0x2BF8, symBinAddr: 0x100004AF8, symSize: 0x2C }
  - { offsetInCU: 0x15D15, offset: 0x15D15, size: 0x8, addend: 0x0, symName: __ZNSt3__110unique_ptrINS_11__list_nodeINS_4pairIidEEPvEENS_22__allocator_destructorINS_9allocatorIS5_EEEEEC2B8ue170006ILb1EvEEPS5_NS_16__dependent_typeINS_27__unique_ptr_deleter_sfinaeIS9_EEXT_EE20__good_rval_ref_typeE, symObjAddr: 0x2C24, symBinAddr: 0x100004B24, symSize: 0x5C }
  - { offsetInCU: 0x15D66, offset: 0x15D66, size: 0x8, addend: 0x0, symName: __ZNSt3__117__compressed_pairIPNS_11__list_nodeINS_4pairIidEEPvEENS_22__allocator_destructorINS_9allocatorIS5_EEEEEC1B8ue170006IRS6_SA_EEOT_OT0_, symObjAddr: 0x2C80, symBinAddr: 0x100004B80, symSize: 0x3C }
  - { offsetInCU: 0x15DBE, offset: 0x15DBE, size: 0x8, addend: 0x0, symName: __ZNSt3__117__compressed_pairIPNS_11__list_nodeINS_4pairIidEEPvEENS_22__allocator_destructorINS_9allocatorIS5_EEEEEC2B8ue170006IRS6_SA_EEOT_OT0_, symObjAddr: 0x2CBC, symBinAddr: 0x100004BBC, symSize: 0x48 }
  - { offsetInCU: 0x15E16, offset: 0x15E16, size: 0x8, addend: 0x0, symName: __ZNSt3__122__compressed_pair_elemIPNS_11__list_nodeINS_4pairIidEEPvEELi0ELb0EEC2B8ue170006IRS6_vEEOT_, symObjAddr: 0x2D04, symBinAddr: 0x100004C04, symSize: 0x24 }
  - { offsetInCU: 0x15E58, offset: 0x15E58, size: 0x8, addend: 0x0, symName: __ZNSt3__122__compressed_pair_elemINS_22__allocator_destructorINS_9allocatorINS_11__list_nodeINS_4pairIidEEPvEEEEEELi1ELb0EEC2B8ue170006IS9_vEEOT_, symObjAddr: 0x2D28, symBinAddr: 0x100004C28, symSize: 0x24 }
  - { offsetInCU: 0x15E9A, offset: 0x15E9A, size: 0x8, addend: 0x0, symName: __ZNSt3__19allocatorINS_11__list_nodeINS_4pairIidEEPvEEE9constructB8ue170006IS3_JRKS3_EEEvPT_DpOT0_, symObjAddr: 0x2D4C, symBinAddr: 0x100004C4C, symSize: 0x28 }
  - { offsetInCU: 0x15EF0, offset: 0x15EF0, size: 0x8, addend: 0x0, symName: __ZNKSt3__117__compressed_pairIPNS_11__list_nodeINS_4pairIidEEPvEENS_22__allocator_destructorINS_9allocatorIS5_EEEEE5firstB8ue170006Ev, symObjAddr: 0x2D74, symBinAddr: 0x100004C74, symSize: 0x24 }
  - { offsetInCU: 0x15F16, offset: 0x15F16, size: 0x8, addend: 0x0, symName: __ZNKSt3__122__compressed_pair_elemIPNS_11__list_nodeINS_4pairIidEEPvEELi0ELb0EE5__getB8ue170006Ev, symObjAddr: 0x2D98, symBinAddr: 0x100004C98, symSize: 0x14 }
  - { offsetInCU: 0x15F3C, offset: 0x15F3C, size: 0x8, addend: 0x0, symName: __ZNSt3__117__compressed_pairImNS_9allocatorINS_11__list_nodeINS_4pairIidEEPvEEEEE5firstB8ue170006Ev, symObjAddr: 0x2DAC, symBinAddr: 0x100004CAC, symSize: 0x24 }
  - { offsetInCU: 0x15F62, offset: 0x15F62, size: 0x8, addend: 0x0, symName: __ZNSt3__122__compressed_pair_elemImLi0ELb0EE5__getB8ue170006Ev, symObjAddr: 0x2DD0, symBinAddr: 0x100004CD0, symSize: 0x14 }
  - { offsetInCU: 0x15F88, offset: 0x15F88, size: 0x8, addend: 0x0, symName: __ZNSt3__117__compressed_pairIPNS_11__list_nodeINS_4pairIidEEPvEENS_22__allocator_destructorINS_9allocatorIS5_EEEEE5firstB8ue170006Ev, symObjAddr: 0x2DE4, symBinAddr: 0x100004CE4, symSize: 0x24 }
  - { offsetInCU: 0x15FAE, offset: 0x15FAE, size: 0x8, addend: 0x0, symName: __ZNSt3__122__compressed_pair_elemIPNS_11__list_nodeINS_4pairIidEEPvEELi0ELb0EE5__getB8ue170006Ev, symObjAddr: 0x2E08, symBinAddr: 0x100004D08, symSize: 0x14 }
  - { offsetInCU: 0x15FD4, offset: 0x15FD4, size: 0x8, addend: 0x0, symName: __ZNSt3__110unique_ptrINS_11__list_nodeINS_4pairIidEEPvEENS_22__allocator_destructorINS_9allocatorIS5_EEEEED2B8ue170006Ev, symObjAddr: 0x2E1C, symBinAddr: 0x100004D1C, symSize: 0x30 }
  - { offsetInCU: 0x15FFE, offset: 0x15FFE, size: 0x8, addend: 0x0, symName: __ZNSt3__110unique_ptrINS_11__list_nodeINS_4pairIidEEPvEENS_22__allocator_destructorINS_9allocatorIS5_EEEEE5resetB8ue170006EPS5_, symObjAddr: 0x2E4C, symBinAddr: 0x100004D4C, symSize: 0x78 }
  - { offsetInCU: 0x16042, offset: 0x16042, size: 0x8, addend: 0x0, symName: __ZNSt3__117__compressed_pairIPNS_11__list_nodeINS_4pairIidEEPvEENS_22__allocator_destructorINS_9allocatorIS5_EEEEE6secondB8ue170006Ev, symObjAddr: 0x2EC4, symBinAddr: 0x100004DC4, symSize: 0x28 }
  - { offsetInCU: 0x16068, offset: 0x16068, size: 0x8, addend: 0x0, symName: __ZNSt3__122__allocator_destructorINS_9allocatorINS_11__list_nodeINS_4pairIidEEPvEEEEEclB8ue170006EPS6_, symObjAddr: 0x2EEC, symBinAddr: 0x100004DEC, symSize: 0x34 }
  - { offsetInCU: 0x1609C, offset: 0x1609C, size: 0x8, addend: 0x0, symName: __ZNSt3__122__compressed_pair_elemINS_22__allocator_destructorINS_9allocatorINS_11__list_nodeINS_4pairIidEEPvEEEEEELi1ELb0EE5__getB8ue170006Ev, symObjAddr: 0x2F20, symBinAddr: 0x100004E20, symSize: 0x14 }
  - { offsetInCU: 0x160C2, offset: 0x160C2, size: 0x8, addend: 0x0, symName: __ZNSt3__116allocator_traitsINS_9allocatorINS_11__list_nodeINS_4pairIidEEPvEEEEE10deallocateB8ue170006ERS7_PS6_m, symObjAddr: 0x2F34, symBinAddr: 0x100004E34, symSize: 0x34 }
  - { offsetInCU: 0x16104, offset: 0x16104, size: 0x8, addend: 0x0, symName: __ZNSt3__19allocatorINS_11__list_nodeINS_4pairIidEEPvEEE10deallocateB8ue170006EPS5_m, symObjAddr: 0x2F68, symBinAddr: 0x100004E68, symSize: 0x70 }
  - { offsetInCU: 0x16146, offset: 0x16146, size: 0x8, addend: 0x0, symName: __ZNSt3__116__list_node_baseINS_4pairIidEEPvE9__as_nodeB8ue170006Ev, symObjAddr: 0x3054, symBinAddr: 0x100004F54, symSize: 0x24 }
  - { offsetInCU: 0x1616C, offset: 0x1616C, size: 0x8, addend: 0x0, symName: __ZNSt3__110__list_impINS_4pairIidEENS_9allocatorIS2_EEE5clearEv, symObjAddr: 0x3078, symBinAddr: 0x100004F78, symSize: 0xE8 }
  - { offsetInCU: 0x161DC, offset: 0x161DC, size: 0x8, addend: 0x0, symName: __ZNKSt3__110__list_impINS_4pairIidEENS_9allocatorIS2_EEE5emptyB8ue170006Ev, symObjAddr: 0x3160, symBinAddr: 0x100005060, symSize: 0x34 }
  - { offsetInCU: 0x16202, offset: 0x16202, size: 0x8, addend: 0x0, symName: __ZNSt3__110__list_impINS_4pairIidEENS_9allocatorIS2_EEE14__unlink_nodesEPNS_16__list_node_baseIS2_PvEES9_, symObjAddr: 0x3194, symBinAddr: 0x100005094, symSize: 0x3C }
  - { offsetInCU: 0x16237, offset: 0x16237, size: 0x8, addend: 0x0, symName: __ZNSt3__116allocator_traitsINS_9allocatorINS_11__list_nodeINS_4pairIidEEPvEEEEE7destroyB8ue170006IS4_vvEEvRS7_PT_, symObjAddr: 0x31D0, symBinAddr: 0x1000050D0, symSize: 0x14 }
  - { offsetInCU: 0x16271, offset: 0x16271, size: 0x8, addend: 0x0, symName: __ZNKSt3__110__list_impINS_4pairIidEENS_9allocatorIS2_EEE4__szB8ue170006Ev, symObjAddr: 0x31E4, symBinAddr: 0x1000050E4, symSize: 0x28 }
  - { offsetInCU: 0x16297, offset: 0x16297, size: 0x8, addend: 0x0, symName: __ZNKSt3__117__compressed_pairImNS_9allocatorINS_11__list_nodeINS_4pairIidEEPvEEEEE5firstB8ue170006Ev, symObjAddr: 0x320C, symBinAddr: 0x10000510C, symSize: 0x24 }
  - { offsetInCU: 0x162BD, offset: 0x162BD, size: 0x8, addend: 0x0, symName: __ZNKSt3__122__compressed_pair_elemImLi0ELb0EE5__getB8ue170006Ev, symObjAddr: 0x3230, symBinAddr: 0x100005130, symSize: 0x14 }
  - { offsetInCU: 0x162E8, offset: 0x162E8, size: 0x8, addend: 0x0, symName: __ZNSt3__119__to_address_helperINS_16reverse_iteratorIPNS_4listINS_4pairIidEENS_9allocatorIS4_EEEEEEvE6__callB8ue170006ERKS9_, symObjAddr: 0x3244, symBinAddr: 0x100005144, symSize: 0x4C }
  - { offsetInCU: 0x1630B, offset: 0x1630B, size: 0x8, addend: 0x0, symName: __ZNKSt3__116reverse_iteratorIPNS_4listINS_4pairIidEENS_9allocatorIS3_EEEEEptB8ue170006Ev, symObjAddr: 0x3290, symBinAddr: 0x100005190, symSize: 0x24 }
  - { offsetInCU: 0x16331, offset: 0x16331, size: 0x8, addend: 0x0, symName: __ZNSt3__128__exception_guard_exceptionsINS_29_AllocatorDestroyRangeReverseINS_9allocatorINS_4listINS_4pairIidEENS2_IS5_EEEEEENS_16reverse_iteratorIPS7_EEEEED2B8ue170006Ev, symObjAddr: 0x32B4, symBinAddr: 0x1000051B4, symSize: 0x48 }
  - { offsetInCU: 0x1635B, offset: 0x1635B, size: 0x8, addend: 0x0, symName: __ZNKSt3__129_AllocatorDestroyRangeReverseINS_9allocatorINS_4listINS_4pairIidEENS1_IS4_EEEEEENS_16reverse_iteratorIPS6_EEEclB8ue170006Ev, symObjAddr: 0x32FC, symBinAddr: 0x1000051FC, symSize: 0xB4 }
  - { offsetInCU: 0x16382, offset: 0x16382, size: 0x8, addend: 0x0, symName: __ZNSt3__116reverse_iteratorINS0_IPNS_4listINS_4pairIidEENS_9allocatorIS3_EEEEEEEC1B8ue170006ES8_, symObjAddr: 0x3420, symBinAddr: 0x100005320, symSize: 0x3C }
  - { offsetInCU: 0x163BA, offset: 0x163BA, size: 0x8, addend: 0x0, symName: __ZNSt3__116allocator_traitsINS_9allocatorINS_4listINS_4pairIidEENS1_IS4_EEEEEEE7destroyB8ue170006IS6_vEEvRS7_PT_, symObjAddr: 0x34BC, symBinAddr: 0x1000053BC, symSize: 0x2C }
  - { offsetInCU: 0x163F7, offset: 0x163F7, size: 0x8, addend: 0x0, symName: __ZNSt3__116reverse_iteratorINS0_IPNS_4listINS_4pairIidEENS_9allocatorIS3_EEEEEEEppB8ue170006Ev, symObjAddr: 0x350C, symBinAddr: 0x10000540C, symSize: 0x30 }
  - { offsetInCU: 0x1641D, offset: 0x1641D, size: 0x8, addend: 0x0, symName: __ZNKSt3__116reverse_iteratorINS0_IPNS_4listINS_4pairIidEENS_9allocatorIS3_EEEEEEE4baseB8ue170006Ev, symObjAddr: 0x353C, symBinAddr: 0x10000543C, symSize: 0x24 }
  - { offsetInCU: 0x16443, offset: 0x16443, size: 0x8, addend: 0x0, symName: __ZNSt3__19allocatorINS_4listINS_4pairIidEENS0_IS3_EEEEE7destroyB8ue170006EPS5_, symObjAddr: 0x3560, symBinAddr: 0x100005460, symSize: 0x28 }
  - { offsetInCU: 0x16477, offset: 0x16477, size: 0x8, addend: 0x0, symName: __ZNSt3__14listINS_4pairIidEENS_9allocatorIS2_EEED1Ev, symObjAddr: 0x3588, symBinAddr: 0x100005488, symSize: 0x2C }
  - { offsetInCU: 0x164A4, offset: 0x164A4, size: 0x8, addend: 0x0, symName: __ZNSt3__14listINS_4pairIidEENS_9allocatorIS2_EEED2Ev, symObjAddr: 0x35B4, symBinAddr: 0x1000054B4, symSize: 0x2C }
  - { offsetInCU: 0x164D6, offset: 0x164D6, size: 0x8, addend: 0x0, symName: __ZNSt3__119__to_address_helperINS_16reverse_iteratorINS1_IPNS_4listINS_4pairIidEENS_9allocatorIS4_EEEEEEEEvE6__callB8ue170006ERKSA_, symObjAddr: 0x35E0, symBinAddr: 0x1000054E0, symSize: 0x4C }
  - { offsetInCU: 0x164F9, offset: 0x164F9, size: 0x8, addend: 0x0, symName: __ZNKSt3__116reverse_iteratorINS0_IPNS_4listINS_4pairIidEENS_9allocatorIS3_EEEEEEEptB8ue170006Ev, symObjAddr: 0x362C, symBinAddr: 0x10000552C, symSize: 0x24 }
  - { offsetInCU: 0x1651F, offset: 0x1651F, size: 0x8, addend: 0x0, symName: __ZNKSt3__116reverse_iteratorINS0_IPNS_4listINS_4pairIidEENS_9allocatorIS3_EEEEEEEdeB8ue170006Ev, symObjAddr: 0x3650, symBinAddr: 0x100005550, symSize: 0x34 }
  - { offsetInCU: 0x16553, offset: 0x16553, size: 0x8, addend: 0x0, symName: __ZNSt3__116reverse_iteratorIPNS_4listINS_4pairIidEENS_9allocatorIS3_EEEEEmmB8ue170006Ev, symObjAddr: 0x3684, symBinAddr: 0x100005584, symSize: 0x20 }
  - { offsetInCU: 0x16579, offset: 0x16579, size: 0x8, addend: 0x0, symName: __ZNSt3__116reverse_iteratorINS0_IPNS_4listINS_4pairIidEENS_9allocatorIS3_EEEEEEEC2B8ue170006ES8_, symObjAddr: 0x36A4, symBinAddr: 0x1000055A4, symSize: 0x2C }
  - { offsetInCU: 0x165B1, offset: 0x165B1, size: 0x8, addend: 0x0, symName: __ZNSt3__116reverse_iteratorIPNS_4listINS_4pairIidEENS_9allocatorIS3_EEEEEC2B8ue170006ES7_, symObjAddr: 0x36D0, symBinAddr: 0x1000055D0, symSize: 0x28 }
  - { offsetInCU: 0x165E9, offset: 0x165E9, size: 0x8, addend: 0x0, symName: __ZNSt3__114__split_bufferINS_4listINS_4pairIidEENS_9allocatorIS3_EEEERNS4_IS6_EEED2Ev, symObjAddr: 0x36F8, symBinAddr: 0x1000055F8, symSize: 0x80 }
  - { offsetInCU: 0x16615, offset: 0x16615, size: 0x8, addend: 0x0, symName: __ZNSt3__114__split_bufferINS_4listINS_4pairIidEENS_9allocatorIS3_EEEERNS4_IS6_EEE5clearB8ue170006Ev, symObjAddr: 0x3778, symBinAddr: 0x100005678, symSize: 0x28 }
  - { offsetInCU: 0x1663B, offset: 0x1663B, size: 0x8, addend: 0x0, symName: __ZNSt3__116allocator_traitsINS_9allocatorINS_4listINS_4pairIidEENS1_IS4_EEEEEEE10deallocateB8ue170006ERS7_PS6_m, symObjAddr: 0x37A0, symBinAddr: 0x1000056A0, symSize: 0x34 }
  - { offsetInCU: 0x1667D, offset: 0x1667D, size: 0x8, addend: 0x0, symName: __ZNKSt3__114__split_bufferINS_4listINS_4pairIidEENS_9allocatorIS3_EEEERNS4_IS6_EEE8capacityB8ue170006Ev, symObjAddr: 0x37D4, symBinAddr: 0x1000056D4, symSize: 0x40 }
  - { offsetInCU: 0x166A3, offset: 0x166A3, size: 0x8, addend: 0x0, symName: __ZNSt3__114__split_bufferINS_4listINS_4pairIidEENS_9allocatorIS3_EEEERNS4_IS6_EEE17__destruct_at_endB8ue170006EPS6_, symObjAddr: 0x3814, symBinAddr: 0x100005714, symSize: 0x2C }
  - { offsetInCU: 0x166D7, offset: 0x166D7, size: 0x8, addend: 0x0, symName: __ZNSt3__114__split_bufferINS_4listINS_4pairIidEENS_9allocatorIS3_EEEERNS4_IS6_EEE17__destruct_at_endB8ue170006EPS6_NS_17integral_constantIbLb0EEE, symObjAddr: 0x3840, symBinAddr: 0x100005740, symSize: 0x94 }
  - { offsetInCU: 0x16717, offset: 0x16717, size: 0x8, addend: 0x0, symName: __ZNSt3__19allocatorINS_4listINS_4pairIidEENS0_IS3_EEEEE10deallocateB8ue170006EPS5_m, symObjAddr: 0x38D4, symBinAddr: 0x1000057D4, symSize: 0x74 }
  - { offsetInCU: 0x16759, offset: 0x16759, size: 0x8, addend: 0x0, symName: __ZNKSt3__114__split_bufferINS_4listINS_4pairIidEENS_9allocatorIS3_EEEERNS4_IS6_EEE9__end_capB8ue170006Ev, symObjAddr: 0x3948, symBinAddr: 0x100005848, symSize: 0x28 }
  - { offsetInCU: 0x1677F, offset: 0x1677F, size: 0x8, addend: 0x0, symName: __ZNKSt3__117__compressed_pairIPNS_4listINS_4pairIidEENS_9allocatorIS3_EEEERNS4_IS6_EEE5firstB8ue170006Ev, symObjAddr: 0x3970, symBinAddr: 0x100005870, symSize: 0x24 }
  - { offsetInCU: 0x167A5, offset: 0x167A5, size: 0x8, addend: 0x0, symName: __ZNSt3__16vectorINS_4listINS_4pairIidEENS_9allocatorIS3_EEEENS4_IS6_EEE22__base_destruct_at_endB8ue170006EPS6_, symObjAddr: 0x3994, symBinAddr: 0x100005894, symSize: 0xA0 }
  - { offsetInCU: 0x167E9, offset: 0x167E9, size: 0x8, addend: 0x0, symName: __ZNKSt3__16vectorINS_4listINS_4pairIidEENS_9allocatorIS3_EEEENS4_IS6_EEE17__annotate_shrinkB8ue170006Em, symObjAddr: 0x3A34, symBinAddr: 0x100005934, symSize: 0xD0 }
  - { offsetInCU: 0x1681E, offset: 0x1681E, size: 0x8, addend: 0x0, symName: __ZNSt3__16vectorINS_4listINS_4pairIidEENS_9allocatorIS3_EEEENS4_IS6_EEED2B8ue170006Ev, symObjAddr: 0x3B04, symBinAddr: 0x100005A04, symSize: 0x3C }
  - { offsetInCU: 0x16848, offset: 0x16848, size: 0x8, addend: 0x0, symName: __ZNSt3__16vectorINS_4listINS_4pairIidEENS_9allocatorIS3_EEEENS4_IS6_EEE16__destroy_vectorC1B8ue170006ERS8_, symObjAddr: 0x3B40, symBinAddr: 0x100005A40, symSize: 0x34 }
  - { offsetInCU: 0x16881, offset: 0x16881, size: 0x8, addend: 0x0, symName: __ZNSt3__16vectorINS_4listINS_4pairIidEENS_9allocatorIS3_EEEENS4_IS6_EEE16__destroy_vectorclB8ue170006Ev, symObjAddr: 0x3B74, symBinAddr: 0x100005A74, symSize: 0x90 }
  - { offsetInCU: 0x168A7, offset: 0x168A7, size: 0x8, addend: 0x0, symName: __ZNSt3__16vectorINS_4listINS_4pairIidEENS_9allocatorIS3_EEEENS4_IS6_EEE16__destroy_vectorC2B8ue170006ERS8_, symObjAddr: 0x3C04, symBinAddr: 0x100005B04, symSize: 0x20 }
  - { offsetInCU: 0x168E0, offset: 0x168E0, size: 0x8, addend: 0x0, symName: __ZNSt3__16vectorINS_4listINS_4pairIidEENS_9allocatorIS3_EEEENS4_IS6_EEE7__clearB8ue170006Ev, symObjAddr: 0x3C24, symBinAddr: 0x100005B24, symSize: 0x28 }
  - { offsetInCU: 0x16906, offset: 0x16906, size: 0x8, addend: 0x0, symName: __ZNSt3__16vectorINS_4listINS_4pairIidEENS_9allocatorIS3_EEEENS4_IS6_EEEixB8ue170006Em, symObjAddr: 0x3C4C, symBinAddr: 0x100005B4C, symSize: 0x2C }
  - { offsetInCU: 0x1693D, offset: 0x1693D, size: 0x8, addend: 0x0, symName: __ZNSt3__14pairIidEC1B8ue170006ERKiRKd, symObjAddr: 0x3CB0, symBinAddr: 0x100005BB0, symSize: 0x3C }
  - { offsetInCU: 0x16983, offset: 0x16983, size: 0x8, addend: 0x0, symName: __ZNSt3__14pairIidEC2B8ue170006ERKiRKd, symObjAddr: 0x3CEC, symBinAddr: 0x100005BEC, symSize: 0x34 }
  - { offsetInCU: 0x169C9, offset: 0x169C9, size: 0x8, addend: 0x0, symName: __ZNSt3__14listINS_4pairIidEENS_9allocatorIS2_EEE5beginB8ue170006Ev, symObjAddr: 0x3D20, symBinAddr: 0x100005C20, symSize: 0x2C }
  - { offsetInCU: 0x169EF, offset: 0x169EF, size: 0x8, addend: 0x0, symName: __ZNSt3__14listINS_4pairIidEENS_9allocatorIS2_EEE3endB8ue170006Ev, symObjAddr: 0x3D4C, symBinAddr: 0x100005C4C, symSize: 0x2C }
  - { offsetInCU: 0x16A15, offset: 0x16A15, size: 0x8, addend: 0x0, symName: __ZNKSt3__115__list_iteratorINS_4pairIidEEPvEdeB8ue170006Ev, symObjAddr: 0x3DAC, symBinAddr: 0x100005CAC, symSize: 0x2C }
  - { offsetInCU: 0x16A3B, offset: 0x16A3B, size: 0x8, addend: 0x0, symName: __ZNSt3__115__list_iteratorINS_4pairIidEEPvEppB8ue170006Ev, symObjAddr: 0x3DD8, symBinAddr: 0x100005CD8, symSize: 0x20 }
  - { offsetInCU: 0x16A61, offset: 0x16A61, size: 0x8, addend: 0x0, symName: __ZNSt3__16vectorIdNS_9allocatorIdEEEC1B8ue170006Ev, symObjAddr: 0x3DF8, symBinAddr: 0x100005CF8, symSize: 0x2C }
  - { offsetInCU: 0x16A8B, offset: 0x16A8B, size: 0x8, addend: 0x0, symName: __ZN5Graph11bellmanFordEiRNSt3__16vectorIdNS0_9allocatorIdEEEE, symObjAddr: 0x3E24, symBinAddr: 0x100005D24, symSize: 0x334 }
  - { offsetInCU: 0x16C2A, offset: 0x16C2A, size: 0x8, addend: 0x0, symName: __ZNSt3__113basic_ostreamIcNS_11char_traitsIcEEElsB8ue170006EPFRS3_S4_E, symObjAddr: 0x41A0, symBinAddr: 0x1000060A0, symSize: 0x2C }
  - { offsetInCU: 0x16C5E, offset: 0x16C5E, size: 0x8, addend: 0x0, symName: __ZNSt3__16vectorINS0_IdNS_9allocatorIdEEEENS1_IS3_EEEC1B8ue170006Ev, symObjAddr: 0x4224, symBinAddr: 0x100006124, symSize: 0x2C }
  - { offsetInCU: 0x16C88, offset: 0x16C88, size: 0x8, addend: 0x0, symName: __ZNSt3__16vectorIdNS_9allocatorIdEEEC1Em, symObjAddr: 0x4250, symBinAddr: 0x100006150, symSize: 0x34 }
  - { offsetInCU: 0x16CC3, offset: 0x16CC3, size: 0x8, addend: 0x0, symName: __ZNSt3__16vectorINS0_IdNS_9allocatorIdEEEENS1_IS3_EEEC1EmRKS3_, symObjAddr: 0x4284, symBinAddr: 0x100006184, symSize: 0x3C }
  - { offsetInCU: 0x16D0D, offset: 0x16D0D, size: 0x8, addend: 0x0, symName: __ZNSt3__16vectorIdNS_9allocatorIdEEED1B8ue170006Ev, symObjAddr: 0x42C0, symBinAddr: 0x1000061C0, symSize: 0x2C }
  - { offsetInCU: 0x16D37, offset: 0x16D37, size: 0x8, addend: 0x0, symName: __ZN5Graph8dijkstraEiRNSt3__16vectorIdNS0_9allocatorIdEEEERKS4_, symObjAddr: 0x42EC, symBinAddr: 0x1000061EC, symSize: 0x47C }
  - { offsetInCU: 0x16EA0, offset: 0x16EA0, size: 0x8, addend: 0x0, symName: __ZNSt3__16vectorINS0_IdNS_9allocatorIdEEEENS1_IS3_EEEixB8ue170006Em, symObjAddr: 0x4768, symBinAddr: 0x100006668, symSize: 0x2C }
  - { offsetInCU: 0x16ED7, offset: 0x16ED7, size: 0x8, addend: 0x0, symName: __ZNSt3__16vectorIdNS_9allocatorIdEEEaSB8ue170006ERKS3_, symObjAddr: 0x4794, symBinAddr: 0x100006694, symSize: 0x68 }
  - { offsetInCU: 0x16F0E, offset: 0x16F0E, size: 0x8, addend: 0x0, symName: __ZNSt3__110__list_impINS_4pairIidEENS_9allocatorIS2_EEE5beginB8ue170006Ev, symObjAddr: 0x47FC, symBinAddr: 0x1000066FC, symSize: 0x30 }
  - { offsetInCU: 0x16F34, offset: 0x16F34, size: 0x8, addend: 0x0, symName: __ZNSt3__115__list_iteratorINS_4pairIidEEPvEC1B8ue170006EPNS_16__list_node_baseIS2_S3_EE, symObjAddr: 0x482C, symBinAddr: 0x10000672C, symSize: 0x34 }
  - { offsetInCU: 0x16F6D, offset: 0x16F6D, size: 0x8, addend: 0x0, symName: __ZNSt3__115__list_iteratorINS_4pairIidEEPvEC2B8ue170006EPNS_16__list_node_baseIS2_S3_EE, symObjAddr: 0x4860, symBinAddr: 0x100006760, symSize: 0x20 }
  - { offsetInCU: 0x16FA6, offset: 0x16FA6, size: 0x8, addend: 0x0, symName: __ZNSt3__110__list_impINS_4pairIidEENS_9allocatorIS2_EEE3endB8ue170006Ev, symObjAddr: 0x4880, symBinAddr: 0x100006780, symSize: 0x34 }
  - { offsetInCU: 0x16FCC, offset: 0x16FCC, size: 0x8, addend: 0x0, symName: __ZNSt3__16vectorIdNS_9allocatorIdEEEC2B8ue170006Ev, symObjAddr: 0x48E4, symBinAddr: 0x1000067E4, symSize: 0x44 }
  - { offsetInCU: 0x16FF6, offset: 0x16FF6, size: 0x8, addend: 0x0, symName: __ZNSt3__117__compressed_pairIPdNS_9allocatorIdEEEC1B8ue170006IDnNS_18__default_init_tagEEEOT_OT0_, symObjAddr: 0x4928, symBinAddr: 0x100006828, symSize: 0x3C }
  - { offsetInCU: 0x1704E, offset: 0x1704E, size: 0x8, addend: 0x0, symName: __ZNSt3__117__compressed_pairIPdNS_9allocatorIdEEEC2B8ue170006IDnNS_18__default_init_tagEEEOT_OT0_, symObjAddr: 0x4964, symBinAddr: 0x100006864, symSize: 0x40 }
  - { offsetInCU: 0x170A6, offset: 0x170A6, size: 0x8, addend: 0x0, symName: __ZNSt3__122__compressed_pair_elemIPdLi0ELb0EEC2B8ue170006IDnvEEOT_, symObjAddr: 0x49A4, symBinAddr: 0x1000068A4, symSize: 0x1C }
  - { offsetInCU: 0x170E8, offset: 0x170E8, size: 0x8, addend: 0x0, symName: __ZNSt3__122__compressed_pair_elemINS_9allocatorIdEELi1ELb1EEC2B8ue170006ENS_18__default_init_tagE, symObjAddr: 0x49C0, symBinAddr: 0x1000068C0, symSize: 0x2C }
  - { offsetInCU: 0x1711C, offset: 0x1711C, size: 0x8, addend: 0x0, symName: __ZNSt3__19allocatorIdEC2B8ue170006Ev, symObjAddr: 0x49EC, symBinAddr: 0x1000068EC, symSize: 0x2C }
  - { offsetInCU: 0x17146, offset: 0x17146, size: 0x8, addend: 0x0, symName: __ZNSt3__116__non_trivial_ifILb1ENS_9allocatorIdEEEC2B8ue170006Ev, symObjAddr: 0x4A18, symBinAddr: 0x100006918, symSize: 0x14 }
  - { offsetInCU: 0x17170, offset: 0x17170, size: 0x8, addend: 0x0, symName: __ZNSt3__16vectorIdNS_9allocatorIdEEE6assignEmRKd, symObjAddr: 0x4A2C, symBinAddr: 0x10000692C, symSize: 0x108 }
  - { offsetInCU: 0x171D3, offset: 0x171D3, size: 0x8, addend: 0x0, symName: __ZNSt3__16vectorIdNS_9allocatorIdEEEixB8ue170006Em, symObjAddr: 0x4B34, symBinAddr: 0x100006A34, symSize: 0x24 }
  - { offsetInCU: 0x1720A, offset: 0x1720A, size: 0x8, addend: 0x0, symName: __ZNKSt3__16vectorIdNS_9allocatorIdEEE8capacityB8ue170006Ev, symObjAddr: 0x4B58, symBinAddr: 0x100006A58, symSize: 0x40 }
  - { offsetInCU: 0x17230, offset: 0x17230, size: 0x8, addend: 0x0, symName: __ZNKSt3__16vectorIdNS_9allocatorIdEEE4sizeB8ue170006Ev, symObjAddr: 0x4B98, symBinAddr: 0x100006A98, symSize: 0x28 }
  - { offsetInCU: 0x17256, offset: 0x17256, size: 0x8, addend: 0x0, symName: __ZNSt3__16vectorIdNS_9allocatorIdEEE18__construct_at_endEmRKd, symObjAddr: 0x4C04, symBinAddr: 0x100006B04, symSize: 0xD8 }
  - { offsetInCU: 0x172D7, offset: 0x172D7, size: 0x8, addend: 0x0, symName: __ZNSt3__16vectorIdNS_9allocatorIdEEE17__destruct_at_endB8ue170006EPd, symObjAddr: 0x4CDC, symBinAddr: 0x100006BDC, symSize: 0x4C }
  - { offsetInCU: 0x1731B, offset: 0x1731B, size: 0x8, addend: 0x0, symName: __ZNSt3__16vectorIdNS_9allocatorIdEEE13__vdeallocateEv, symObjAddr: 0x4D28, symBinAddr: 0x100006C28, symSize: 0x94 }
  - { offsetInCU: 0x17343, offset: 0x17343, size: 0x8, addend: 0x0, symName: __ZNSt3__16vectorIdNS_9allocatorIdEEE11__vallocateB8ue170006Em, symObjAddr: 0x4DBC, symBinAddr: 0x100006CBC, symSize: 0xAC }
  - { offsetInCU: 0x17387, offset: 0x17387, size: 0x8, addend: 0x0, symName: __ZNKSt3__16vectorIdNS_9allocatorIdEEE11__recommendB8ue170006Em, symObjAddr: 0x4E68, symBinAddr: 0x100006D68, symSize: 0xB4 }
  - { offsetInCU: 0x173DC, offset: 0x173DC, size: 0x8, addend: 0x0, symName: __ZNKSt3__16vectorIdNS_9allocatorIdEEE9__end_capB8ue170006Ev, symObjAddr: 0x4F1C, symBinAddr: 0x100006E1C, symSize: 0x28 }
  - { offsetInCU: 0x17402, offset: 0x17402, size: 0x8, addend: 0x0, symName: __ZNKSt3__117__compressed_pairIPdNS_9allocatorIdEEE5firstB8ue170006Ev, symObjAddr: 0x4F44, symBinAddr: 0x100006E44, symSize: 0x24 }
  - { offsetInCU: 0x17428, offset: 0x17428, size: 0x8, addend: 0x0, symName: __ZNKSt3__122__compressed_pair_elemIPdLi0ELb0EE5__getB8ue170006Ev, symObjAddr: 0x4F68, symBinAddr: 0x100006E68, symSize: 0x14 }
  - { offsetInCU: 0x17467, offset: 0x17467, size: 0x8, addend: 0x0, symName: __ZNSt3__16vectorIdNS_9allocatorIdEEE21_ConstructTransactionC1B8ue170006ERS3_m, symObjAddr: 0x4FF4, symBinAddr: 0x100006EF4, symSize: 0x3C }
  - { offsetInCU: 0x174AF, offset: 0x174AF, size: 0x8, addend: 0x0, symName: __ZNSt3__116allocator_traitsINS_9allocatorIdEEE9constructB8ue170006IdJRKdEvEEvRS2_PT_DpOT0_, symObjAddr: 0x5030, symBinAddr: 0x100006F30, symSize: 0x34 }
  - { offsetInCU: 0x17506, offset: 0x17506, size: 0x8, addend: 0x0, symName: __ZNSt3__16vectorIdNS_9allocatorIdEEE7__allocB8ue170006Ev, symObjAddr: 0x5064, symBinAddr: 0x100006F64, symSize: 0x28 }
  - { offsetInCU: 0x1752C, offset: 0x1752C, size: 0x8, addend: 0x0, symName: __ZNSt3__16vectorIdNS_9allocatorIdEEE21_ConstructTransactionD1B8ue170006Ev, symObjAddr: 0x50A0, symBinAddr: 0x100006FA0, symSize: 0x2C }
  - { offsetInCU: 0x17556, offset: 0x17556, size: 0x8, addend: 0x0, symName: __ZNSt3__16vectorIdNS_9allocatorIdEEE21_ConstructTransactionC2B8ue170006ERS3_m, symObjAddr: 0x50CC, symBinAddr: 0x100006FCC, symSize: 0x44 }
  - { offsetInCU: 0x1759E, offset: 0x1759E, size: 0x8, addend: 0x0, symName: __ZNSt3__19allocatorIdE9constructB8ue170006IdJRKdEEEvPT_DpOT0_, symObjAddr: 0x5110, symBinAddr: 0x100007010, symSize: 0x28 }
  - { offsetInCU: 0x175F4, offset: 0x175F4, size: 0x8, addend: 0x0, symName: __ZNSt3__117__compressed_pairIPdNS_9allocatorIdEEE6secondB8ue170006Ev, symObjAddr: 0x5138, symBinAddr: 0x100007038, symSize: 0x24 }
  - { offsetInCU: 0x1761A, offset: 0x1761A, size: 0x8, addend: 0x0, symName: __ZNSt3__122__compressed_pair_elemINS_9allocatorIdEELi1ELb1EE5__getB8ue170006Ev, symObjAddr: 0x515C, symBinAddr: 0x10000705C, symSize: 0x14 }
  - { offsetInCU: 0x17640, offset: 0x17640, size: 0x8, addend: 0x0, symName: __ZNSt3__16vectorIdNS_9allocatorIdEEE21_ConstructTransactionD2B8ue170006Ev, symObjAddr: 0x5170, symBinAddr: 0x100007070, symSize: 0x20 }
  - { offsetInCU: 0x1766A, offset: 0x1766A, size: 0x8, addend: 0x0, symName: __ZNSt3__16vectorIdNS_9allocatorIdEEE22__base_destruct_at_endB8ue170006EPd, symObjAddr: 0x5190, symBinAddr: 0x100007090, symSize: 0xA0 }
  - { offsetInCU: 0x176AE, offset: 0x176AE, size: 0x8, addend: 0x0, symName: __ZNKSt3__16vectorIdNS_9allocatorIdEEE17__annotate_shrinkB8ue170006Em, symObjAddr: 0x5230, symBinAddr: 0x100007130, symSize: 0xB4 }
  - { offsetInCU: 0x176E3, offset: 0x176E3, size: 0x8, addend: 0x0, symName: __ZNSt3__116allocator_traitsINS_9allocatorIdEEE7destroyB8ue170006IdvEEvRS2_PT_, symObjAddr: 0x52E4, symBinAddr: 0x1000071E4, symSize: 0x2C }
  - { offsetInCU: 0x17720, offset: 0x17720, size: 0x8, addend: 0x0, symName: __ZNSt3__19allocatorIdE7destroyB8ue170006EPd, symObjAddr: 0x5310, symBinAddr: 0x100007210, symSize: 0x14 }
  - { offsetInCU: 0x17754, offset: 0x17754, size: 0x8, addend: 0x0, symName: __ZNKSt3__16vectorIdNS_9allocatorIdEEE31__annotate_contiguous_containerB8ue170006EPKvS5_S5_S5_, symObjAddr: 0x5324, symBinAddr: 0x100007224, symSize: 0x20 }
  - { offsetInCU: 0x177A6, offset: 0x177A6, size: 0x8, addend: 0x0, symName: __ZNKSt3__16vectorIdNS_9allocatorIdEEE4dataB8ue170006Ev, symObjAddr: 0x5344, symBinAddr: 0x100007244, symSize: 0x28 }
  - { offsetInCU: 0x177CC, offset: 0x177CC, size: 0x8, addend: 0x0, symName: __ZNSt3__16vectorIdNS_9allocatorIdEEE5clearB8ue170006Ev, symObjAddr: 0x536C, symBinAddr: 0x10000726C, symSize: 0x44 }
  - { offsetInCU: 0x17801, offset: 0x17801, size: 0x8, addend: 0x0, symName: __ZNKSt3__16vectorIdNS_9allocatorIdEEE17__annotate_deleteB8ue170006Ev, symObjAddr: 0x53B0, symBinAddr: 0x1000072B0, symSize: 0xB8 }
  - { offsetInCU: 0x17827, offset: 0x17827, size: 0x8, addend: 0x0, symName: __ZNSt3__116allocator_traitsINS_9allocatorIdEEE10deallocateB8ue170006ERS2_Pdm, symObjAddr: 0x5468, symBinAddr: 0x100007368, symSize: 0x34 }
  - { offsetInCU: 0x17869, offset: 0x17869, size: 0x8, addend: 0x0, symName: __ZNSt3__16vectorIdNS_9allocatorIdEEE9__end_capB8ue170006Ev, symObjAddr: 0x549C, symBinAddr: 0x10000739C, symSize: 0x28 }
  - { offsetInCU: 0x1788F, offset: 0x1788F, size: 0x8, addend: 0x0, symName: __ZNSt3__16vectorIdNS_9allocatorIdEEE7__clearB8ue170006Ev, symObjAddr: 0x54C4, symBinAddr: 0x1000073C4, symSize: 0x28 }
  - { offsetInCU: 0x178B5, offset: 0x178B5, size: 0x8, addend: 0x0, symName: __ZNSt3__19allocatorIdE10deallocateB8ue170006EPdm, symObjAddr: 0x54EC, symBinAddr: 0x1000073EC, symSize: 0x70 }
  - { offsetInCU: 0x178F7, offset: 0x178F7, size: 0x8, addend: 0x0, symName: __ZNSt3__117__compressed_pairIPdNS_9allocatorIdEEE5firstB8ue170006Ev, symObjAddr: 0x555C, symBinAddr: 0x10000745C, symSize: 0x24 }
  - { offsetInCU: 0x1791D, offset: 0x1791D, size: 0x8, addend: 0x0, symName: __ZNSt3__122__compressed_pair_elemIPdLi0ELb0EE5__getB8ue170006Ev, symObjAddr: 0x5580, symBinAddr: 0x100007480, symSize: 0x14 }
  - { offsetInCU: 0x17943, offset: 0x17943, size: 0x8, addend: 0x0, symName: __ZNKSt3__16vectorIdNS_9allocatorIdEEE8max_sizeEv, symObjAddr: 0x5594, symBinAddr: 0x100007494, symSize: 0x74 }
  - { offsetInCU: 0x1796B, offset: 0x1796B, size: 0x8, addend: 0x0, symName: __ZNKSt3__16vectorIdNS_9allocatorIdEEE20__throw_length_errorB8ue170006Ev, symObjAddr: 0x5608, symBinAddr: 0x100007508, symSize: 0x1C }
  - { offsetInCU: 0x17991, offset: 0x17991, size: 0x8, addend: 0x0, symName: __ZNKSt3__16vectorIdNS_9allocatorIdEEE14__annotate_newB8ue170006Em, symObjAddr: 0x5664, symBinAddr: 0x100007564, symSize: 0xAC }
  - { offsetInCU: 0x179D0, offset: 0x179D0, size: 0x8, addend: 0x0, symName: __ZNSt3__116allocator_traitsINS_9allocatorIdEEE8max_sizeB8ue170006IS2_vEEmRKS2_, symObjAddr: 0x5710, symBinAddr: 0x100007610, symSize: 0x24 }
  - { offsetInCU: 0x179FE, offset: 0x179FE, size: 0x8, addend: 0x0, symName: __ZNKSt3__16vectorIdNS_9allocatorIdEEE7__allocB8ue170006Ev, symObjAddr: 0x5734, symBinAddr: 0x100007634, symSize: 0x28 }
  - { offsetInCU: 0x17A24, offset: 0x17A24, size: 0x8, addend: 0x0, symName: __ZNKSt3__19allocatorIdE8max_sizeB8ue170006Ev, symObjAddr: 0x575C, symBinAddr: 0x10000765C, symSize: 0x14 }
  - { offsetInCU: 0x17A4A, offset: 0x17A4A, size: 0x8, addend: 0x0, symName: __ZNKSt3__117__compressed_pairIPdNS_9allocatorIdEEE6secondB8ue170006Ev, symObjAddr: 0x5770, symBinAddr: 0x100007670, symSize: 0x24 }
  - { offsetInCU: 0x17A70, offset: 0x17A70, size: 0x8, addend: 0x0, symName: __ZNKSt3__122__compressed_pair_elemINS_9allocatorIdEELi1ELb1EE5__getB8ue170006Ev, symObjAddr: 0x5794, symBinAddr: 0x100007694, symSize: 0x14 }
  - { offsetInCU: 0x17A96, offset: 0x17A96, size: 0x8, addend: 0x0, symName: __ZNSt3__19allocatorIdE8allocateB8ue170006Em, symObjAddr: 0x57A8, symBinAddr: 0x1000076A8, symSize: 0x84 }
  - { offsetInCU: 0x17ACA, offset: 0x17ACA, size: 0x8, addend: 0x0, symName: __ZNSt3__111char_traitsIcE6lengthB8ue170006EPKc, symObjAddr: 0x5A20, symBinAddr: 0x100007920, symSize: 0x48 }
  - { offsetInCU: 0x17B0B, offset: 0x17B0B, size: 0x8, addend: 0x0, symName: __ZNKSt3__113basic_ostreamIcNS_11char_traitsIcEEE6sentrycvbB8ue170006Ev, symObjAddr: 0x5A68, symBinAddr: 0x100007968, symSize: 0x1C }
  - { offsetInCU: 0x17B31, offset: 0x17B31, size: 0x8, addend: 0x0, symName: __ZNSt3__119ostreambuf_iteratorIcNS_11char_traitsIcEEEC1B8ue170006ERNS_13basic_ostreamIcS2_EE, symObjAddr: 0x5CCC, symBinAddr: 0x100007BCC, symSize: 0x34 }
  - { offsetInCU: 0x17B69, offset: 0x17B69, size: 0x8, addend: 0x0, symName: __ZNKSt3__18ios_base5flagsB8ue170006Ev, symObjAddr: 0x5D00, symBinAddr: 0x100007C00, symSize: 0x18 }
  - { offsetInCU: 0x17B91, offset: 0x17B91, size: 0x8, addend: 0x0, symName: __ZNKSt3__19basic_iosIcNS_11char_traitsIcEEE4fillB8ue170006Ev, symObjAddr: 0x5D18, symBinAddr: 0x100007C18, symSize: 0x64 }
  - { offsetInCU: 0x17BB9, offset: 0x17BB9, size: 0x8, addend: 0x0, symName: __ZNKSt3__119ostreambuf_iteratorIcNS_11char_traitsIcEEE6failedB8ue170006Ev, symObjAddr: 0x5D7C, symBinAddr: 0x100007C7C, symSize: 0x24 }
  - { offsetInCU: 0x17BDF, offset: 0x17BDF, size: 0x8, addend: 0x0, symName: __ZNSt3__19basic_iosIcNS_11char_traitsIcEEE8setstateB8ue170006Ej, symObjAddr: 0x5DA0, symBinAddr: 0x100007CA0, symSize: 0x2C }
  - { offsetInCU: 0x17C14, offset: 0x17C14, size: 0x8, addend: 0x0, symName: __ZNKSt3__18ios_base5widthB8ue170006Ev, symObjAddr: 0x5DCC, symBinAddr: 0x100007CCC, symSize: 0x18 }
  - { offsetInCU: 0x17C3C, offset: 0x17C3C, size: 0x8, addend: 0x0, symName: __ZNSt3__115basic_streambufIcNS_11char_traitsIcEEE5sputnB8ue170006EPKcl, symObjAddr: 0x5DE4, symBinAddr: 0x100007CE4, symSize: 0x3C }
  - { offsetInCU: 0x17C7E, offset: 0x17C7E, size: 0x8, addend: 0x0, symName: __ZNSt3__112basic_stringIcNS_11char_traitsIcEENS_9allocatorIcEEEC1B8ue170006Emc, symObjAddr: 0x5E20, symBinAddr: 0x100007D20, symSize: 0x3C }
  - { offsetInCU: 0x17CC6, offset: 0x17CC6, size: 0x8, addend: 0x0, symName: __ZNKSt3__112basic_stringIcNS_11char_traitsIcEENS_9allocatorIcEEE4dataB8ue170006Ev, symObjAddr: 0x5E5C, symBinAddr: 0x100007D5C, symSize: 0x28 }
  - { offsetInCU: 0x17CEC, offset: 0x17CEC, size: 0x8, addend: 0x0, symName: __ZNSt3__18ios_base5widthB8ue170006El, symObjAddr: 0x5E84, symBinAddr: 0x100007D84, symSize: 0x2C }
  - { offsetInCU: 0x17D32, offset: 0x17D32, size: 0x8, addend: 0x0, symName: __ZNSt3__112basic_stringIcNS_11char_traitsIcEENS_9allocatorIcEEEC2B8ue170006Emc, symObjAddr: 0x5EB0, symBinAddr: 0x100007DB0, symSize: 0x4C }
  - { offsetInCU: 0x17D7A, offset: 0x17D7A, size: 0x8, addend: 0x0, symName: __ZNSt3__117__compressed_pairINS_12basic_stringIcNS_11char_traitsIcEENS_9allocatorIcEEE5__repES5_EC1B8ue170006INS_18__default_init_tagESA_EEOT_OT0_, symObjAddr: 0x5EFC, symBinAddr: 0x100007DFC, symSize: 0x3C }
  - { offsetInCU: 0x17DD2, offset: 0x17DD2, size: 0x8, addend: 0x0, symName: __ZNSt3__117__compressed_pairINS_12basic_stringIcNS_11char_traitsIcEENS_9allocatorIcEEE5__repES5_EC2B8ue170006INS_18__default_init_tagESA_EEOT_OT0_, symObjAddr: 0x5F38, symBinAddr: 0x100007E38, symSize: 0x3C }
  - { offsetInCU: 0x17E2A, offset: 0x17E2A, size: 0x8, addend: 0x0, symName: __ZNSt3__122__compressed_pair_elemINS_12basic_stringIcNS_11char_traitsIcEENS_9allocatorIcEEE5__repELi0ELb0EEC2B8ue170006ENS_18__default_init_tagE, symObjAddr: 0x5F74, symBinAddr: 0x100007E74, symSize: 0x14 }
  - { offsetInCU: 0x17E5E, offset: 0x17E5E, size: 0x8, addend: 0x0, symName: __ZNSt3__122__compressed_pair_elemINS_9allocatorIcEELi1ELb1EEC2B8ue170006ENS_18__default_init_tagE, symObjAddr: 0x5F88, symBinAddr: 0x100007E88, symSize: 0x2C }
  - { offsetInCU: 0x17E92, offset: 0x17E92, size: 0x8, addend: 0x0, symName: __ZNSt3__19allocatorIcEC2B8ue170006Ev, symObjAddr: 0x5FB4, symBinAddr: 0x100007EB4, symSize: 0x2C }
  - { offsetInCU: 0x17EBC, offset: 0x17EBC, size: 0x8, addend: 0x0, symName: __ZNSt3__116__non_trivial_ifILb1ENS_9allocatorIcEEEC2B8ue170006Ev, symObjAddr: 0x5FE0, symBinAddr: 0x100007EE0, symSize: 0x14 }
  - { offsetInCU: 0x17EE6, offset: 0x17EE6, size: 0x8, addend: 0x0, symName: __ZNKSt3__112basic_stringIcNS_11char_traitsIcEENS_9allocatorIcEEE13__get_pointerB8ue170006Ev, symObjAddr: 0x6008, symBinAddr: 0x100007F08, symSize: 0x54 }
  - { offsetInCU: 0x17F0C, offset: 0x17F0C, size: 0x8, addend: 0x0, symName: __ZNKSt3__112basic_stringIcNS_11char_traitsIcEENS_9allocatorIcEEE9__is_longB8ue170006Ev, symObjAddr: 0x605C, symBinAddr: 0x100007F5C, symSize: 0x74 }
  - { offsetInCU: 0x17F32, offset: 0x17F32, size: 0x8, addend: 0x0, symName: __ZNKSt3__112basic_stringIcNS_11char_traitsIcEENS_9allocatorIcEEE18__get_long_pointerB8ue170006Ev, symObjAddr: 0x60D0, symBinAddr: 0x100007FD0, symSize: 0x28 }
  - { offsetInCU: 0x17F58, offset: 0x17F58, size: 0x8, addend: 0x0, symName: __ZNKSt3__112basic_stringIcNS_11char_traitsIcEENS_9allocatorIcEEE19__get_short_pointerB8ue170006Ev, symObjAddr: 0x60F8, symBinAddr: 0x100007FF8, symSize: 0x28 }
  - { offsetInCU: 0x17F7E, offset: 0x17F7E, size: 0x8, addend: 0x0, symName: __ZNKSt3__117__compressed_pairINS_12basic_stringIcNS_11char_traitsIcEENS_9allocatorIcEEE5__repES5_E5firstB8ue170006Ev, symObjAddr: 0x6120, symBinAddr: 0x100008020, symSize: 0x24 }
  - { offsetInCU: 0x17FA4, offset: 0x17FA4, size: 0x8, addend: 0x0, symName: __ZNKSt3__122__compressed_pair_elemINS_12basic_stringIcNS_11char_traitsIcEENS_9allocatorIcEEE5__repELi0ELb0EE5__getB8ue170006Ev, symObjAddr: 0x6144, symBinAddr: 0x100008044, symSize: 0x14 }
  - { offsetInCU: 0x17FCA, offset: 0x17FCA, size: 0x8, addend: 0x0, symName: __ZNSt3__114pointer_traitsIPKcE10pointer_toB8ue170006ERS1_, symObjAddr: 0x6158, symBinAddr: 0x100008058, symSize: 0x14 }
  - { offsetInCU: 0x17FED, offset: 0x17FED, size: 0x8, addend: 0x0, symName: __ZNSt3__119ostreambuf_iteratorIcNS_11char_traitsIcEEEC2B8ue170006ERNS_13basic_ostreamIcS2_EE, symObjAddr: 0x616C, symBinAddr: 0x10000806C, symSize: 0x68 }
  - { offsetInCU: 0x18025, offset: 0x18025, size: 0x8, addend: 0x0, symName: __ZNKSt3__19basic_iosIcNS_11char_traitsIcEEE5rdbufB8ue170006Ev, symObjAddr: 0x61D4, symBinAddr: 0x1000080D4, symSize: 0x24 }
  - { offsetInCU: 0x1804D, offset: 0x1804D, size: 0x8, addend: 0x0, symName: __ZNKSt3__18ios_base5rdbufB8ue170006Ev, symObjAddr: 0x61F8, symBinAddr: 0x1000080F8, symSize: 0x18 }
  - { offsetInCU: 0x18073, offset: 0x18073, size: 0x8, addend: 0x0, symName: __ZNSt3__111char_traitsIcE11eq_int_typeB8ue170006Eii, symObjAddr: 0x6210, symBinAddr: 0x100008110, symSize: 0x28 }
  - { offsetInCU: 0x180A6, offset: 0x180A6, size: 0x8, addend: 0x0, symName: __ZNSt3__111char_traitsIcE3eofB8ue170006Ev, symObjAddr: 0x6238, symBinAddr: 0x100008138, symSize: 0x8 }
  - { offsetInCU: 0x180BA, offset: 0x180BA, size: 0x8, addend: 0x0, symName: __ZNKSt3__19basic_iosIcNS_11char_traitsIcEEE5widenB8ue170006Ec, symObjAddr: 0x6240, symBinAddr: 0x100008140, symSize: 0x8C }
  - { offsetInCU: 0x18123, offset: 0x18123, size: 0x8, addend: 0x0, symName: __ZNKSt3__15ctypeIcE5widenB8ue170006Ec, symObjAddr: 0x62F8, symBinAddr: 0x1000081F8, symSize: 0x38 }
  - { offsetInCU: 0x18158, offset: 0x18158, size: 0x8, addend: 0x0, symName: __ZNSt3__18ios_base8setstateB8ue170006Ej, symObjAddr: 0x6330, symBinAddr: 0x100008230, symSize: 0x34 }
  - { offsetInCU: 0x1818F, offset: 0x1818F, size: 0x8, addend: 0x0, symName: __ZNSt3__16vectorINS0_IdNS_9allocatorIdEEEENS1_IS3_EEEC2B8ue170006Ev, symObjAddr: 0x6388, symBinAddr: 0x100008288, symSize: 0x44 }
  - { offsetInCU: 0x181B9, offset: 0x181B9, size: 0x8, addend: 0x0, symName: __ZNSt3__117__compressed_pairIPNS_6vectorIdNS_9allocatorIdEEEENS2_IS4_EEEC1B8ue170006IDnNS_18__default_init_tagEEEOT_OT0_, symObjAddr: 0x63CC, symBinAddr: 0x1000082CC, symSize: 0x3C }
  - { offsetInCU: 0x18211, offset: 0x18211, size: 0x8, addend: 0x0, symName: __ZNSt3__117__compressed_pairIPNS_6vectorIdNS_9allocatorIdEEEENS2_IS4_EEEC2B8ue170006IDnNS_18__default_init_tagEEEOT_OT0_, symObjAddr: 0x6408, symBinAddr: 0x100008308, symSize: 0x40 }
  - { offsetInCU: 0x18269, offset: 0x18269, size: 0x8, addend: 0x0, symName: __ZNSt3__122__compressed_pair_elemIPNS_6vectorIdNS_9allocatorIdEEEELi0ELb0EEC2B8ue170006IDnvEEOT_, symObjAddr: 0x6448, symBinAddr: 0x100008348, symSize: 0x1C }
  - { offsetInCU: 0x182AB, offset: 0x182AB, size: 0x8, addend: 0x0, symName: __ZNSt3__122__compressed_pair_elemINS_9allocatorINS_6vectorIdNS1_IdEEEEEELi1ELb1EEC2B8ue170006ENS_18__default_init_tagE, symObjAddr: 0x6464, symBinAddr: 0x100008364, symSize: 0x2C }
  - { offsetInCU: 0x182DF, offset: 0x182DF, size: 0x8, addend: 0x0, symName: __ZNSt3__19allocatorINS_6vectorIdNS0_IdEEEEEC2B8ue170006Ev, symObjAddr: 0x6490, symBinAddr: 0x100008390, symSize: 0x2C }
  - { offsetInCU: 0x18309, offset: 0x18309, size: 0x8, addend: 0x0, symName: __ZNSt3__116__non_trivial_ifILb1ENS_9allocatorINS_6vectorIdNS1_IdEEEEEEEC2B8ue170006Ev, symObjAddr: 0x64BC, symBinAddr: 0x1000083BC, symSize: 0x14 }
  - { offsetInCU: 0x18333, offset: 0x18333, size: 0x8, addend: 0x0, symName: __ZNSt3__16vectorIdNS_9allocatorIdEEEC2Em, symObjAddr: 0x64D0, symBinAddr: 0x1000083D0, symSize: 0xDC }
  - { offsetInCU: 0x18383, offset: 0x18383, size: 0x8, addend: 0x0, symName: __ZNSt3__16vectorIdNS_9allocatorIdEEE16__destroy_vectorC1B8ue170006ERS3_, symObjAddr: 0x65EC, symBinAddr: 0x1000084EC, symSize: 0x34 }
  - { offsetInCU: 0x183BC, offset: 0x183BC, size: 0x8, addend: 0x0, symName: __ZNSt3__16vectorIdNS_9allocatorIdEEE18__construct_at_endEm, symObjAddr: 0x6620, symBinAddr: 0x100008520, symSize: 0xD0 }
  - { offsetInCU: 0x1842E, offset: 0x1842E, size: 0x8, addend: 0x0, symName: __ZNSt3__128__exception_guard_exceptionsINS_6vectorIdNS_9allocatorIdEEE16__destroy_vectorEE10__completeB8ue170006Ev, symObjAddr: 0x66F0, symBinAddr: 0x1000085F0, symSize: 0x1C }
  - { offsetInCU: 0x18454, offset: 0x18454, size: 0x8, addend: 0x0, symName: __ZNSt3__128__exception_guard_exceptionsINS_6vectorIdNS_9allocatorIdEEE16__destroy_vectorEED1B8ue170006Ev, symObjAddr: 0x670C, symBinAddr: 0x10000860C, symSize: 0x2C }
  - { offsetInCU: 0x1847E, offset: 0x1847E, size: 0x8, addend: 0x0, symName: __ZNSt3__128__exception_guard_exceptionsINS_6vectorIdNS_9allocatorIdEEE16__destroy_vectorEEC1B8ue170006ES5_, symObjAddr: 0x6738, symBinAddr: 0x100008638, symSize: 0x34 }
  - { offsetInCU: 0x184B6, offset: 0x184B6, size: 0x8, addend: 0x0, symName: __ZNSt3__128__exception_guard_exceptionsINS_6vectorIdNS_9allocatorIdEEE16__destroy_vectorEEC2B8ue170006ES5_, symObjAddr: 0x676C, symBinAddr: 0x10000866C, symSize: 0x24 }
  - { offsetInCU: 0x184EE, offset: 0x184EE, size: 0x8, addend: 0x0, symName: __ZNSt3__16vectorIdNS_9allocatorIdEEE16__destroy_vectorC2B8ue170006ERS3_, symObjAddr: 0x6790, symBinAddr: 0x100008690, symSize: 0x20 }
  - { offsetInCU: 0x18527, offset: 0x18527, size: 0x8, addend: 0x0, symName: __ZNSt3__116allocator_traitsINS_9allocatorIdEEE9constructB8ue170006IdJEvEEvRS2_PT_DpOT0_, symObjAddr: 0x67B0, symBinAddr: 0x1000086B0, symSize: 0x2C }
  - { offsetInCU: 0x18569, offset: 0x18569, size: 0x8, addend: 0x0, symName: __ZNSt3__19allocatorIdE9constructB8ue170006IdJEEEvPT_DpOT0_, symObjAddr: 0x67DC, symBinAddr: 0x1000086DC, symSize: 0x20 }
  - { offsetInCU: 0x185AB, offset: 0x185AB, size: 0x8, addend: 0x0, symName: __ZNSt3__128__exception_guard_exceptionsINS_6vectorIdNS_9allocatorIdEEE16__destroy_vectorEED2B8ue170006Ev, symObjAddr: 0x67FC, symBinAddr: 0x1000086FC, symSize: 0x48 }
  - { offsetInCU: 0x185D5, offset: 0x185D5, size: 0x8, addend: 0x0, symName: __ZNSt3__16vectorIdNS_9allocatorIdEEE16__destroy_vectorclB8ue170006Ev, symObjAddr: 0x6844, symBinAddr: 0x100008744, symSize: 0x90 }
  - { offsetInCU: 0x185FB, offset: 0x185FB, size: 0x8, addend: 0x0, symName: __ZNSt3__16vectorINS0_IdNS_9allocatorIdEEEENS1_IS3_EEEC2EmRKS3_, symObjAddr: 0x68D4, symBinAddr: 0x1000087D4, symSize: 0xE4 }
  - { offsetInCU: 0x1865A, offset: 0x1865A, size: 0x8, addend: 0x0, symName: __ZNSt3__16vectorINS0_IdNS_9allocatorIdEEEENS1_IS3_EEE16__destroy_vectorC1B8ue170006ERS5_, symObjAddr: 0x69F8, symBinAddr: 0x1000088F8, symSize: 0x34 }
  - { offsetInCU: 0x18693, offset: 0x18693, size: 0x8, addend: 0x0, symName: __ZNSt3__16vectorINS0_IdNS_9allocatorIdEEEENS1_IS3_EEE11__vallocateB8ue170006Em, symObjAddr: 0x6A2C, symBinAddr: 0x10000892C, symSize: 0xB4 }
  - { offsetInCU: 0x186D7, offset: 0x186D7, size: 0x8, addend: 0x0, symName: __ZNSt3__16vectorINS0_IdNS_9allocatorIdEEEENS1_IS3_EEE18__construct_at_endEmRKS3_, symObjAddr: 0x6AE0, symBinAddr: 0x1000089E0, symSize: 0xD8 }
  - { offsetInCU: 0x18758, offset: 0x18758, size: 0x8, addend: 0x0, symName: __ZNSt3__128__exception_guard_exceptionsINS_6vectorINS1_IdNS_9allocatorIdEEEENS2_IS4_EEE16__destroy_vectorEE10__completeB8ue170006Ev, symObjAddr: 0x6BB8, symBinAddr: 0x100008AB8, symSize: 0x1C }
  - { offsetInCU: 0x1877E, offset: 0x1877E, size: 0x8, addend: 0x0, symName: __ZNSt3__128__exception_guard_exceptionsINS_6vectorINS1_IdNS_9allocatorIdEEEENS2_IS4_EEE16__destroy_vectorEED1B8ue170006Ev, symObjAddr: 0x6BD4, symBinAddr: 0x100008AD4, symSize: 0x2C }
  - { offsetInCU: 0x187A8, offset: 0x187A8, size: 0x8, addend: 0x0, symName: __ZNSt3__128__exception_guard_exceptionsINS_6vectorINS1_IdNS_9allocatorIdEEEENS2_IS4_EEE16__destroy_vectorEEC1B8ue170006ES7_, symObjAddr: 0x6C00, symBinAddr: 0x100008B00, symSize: 0x34 }
  - { offsetInCU: 0x187E0, offset: 0x187E0, size: 0x8, addend: 0x0, symName: __ZNSt3__128__exception_guard_exceptionsINS_6vectorINS1_IdNS_9allocatorIdEEEENS2_IS4_EEE16__destroy_vectorEEC2B8ue170006ES7_, symObjAddr: 0x6C34, symBinAddr: 0x100008B34, symSize: 0x24 }
  - { offsetInCU: 0x18818, offset: 0x18818, size: 0x8, addend: 0x0, symName: __ZNSt3__16vectorINS0_IdNS_9allocatorIdEEEENS1_IS3_EEE16__destroy_vectorC2B8ue170006ERS5_, symObjAddr: 0x6C58, symBinAddr: 0x100008B58, symSize: 0x20 }
  - { offsetInCU: 0x18851, offset: 0x18851, size: 0x8, addend: 0x0, symName: __ZNKSt3__16vectorINS0_IdNS_9allocatorIdEEEENS1_IS3_EEE8max_sizeEv, symObjAddr: 0x6C78, symBinAddr: 0x100008B78, symSize: 0x74 }
  - { offsetInCU: 0x18879, offset: 0x18879, size: 0x8, addend: 0x0, symName: __ZNKSt3__16vectorINS0_IdNS_9allocatorIdEEEENS1_IS3_EEE20__throw_length_errorB8ue170006Ev, symObjAddr: 0x6CEC, symBinAddr: 0x100008BEC, symSize: 0x1C }
  - { offsetInCU: 0x1889F, offset: 0x1889F, size: 0x8, addend: 0x0, symName: __ZNSt3__16vectorINS0_IdNS_9allocatorIdEEEENS1_IS3_EEE7__allocB8ue170006Ev, symObjAddr: 0x6D48, symBinAddr: 0x100008C48, symSize: 0x28 }
  - { offsetInCU: 0x188C5, offset: 0x188C5, size: 0x8, addend: 0x0, symName: __ZNSt3__16vectorINS0_IdNS_9allocatorIdEEEENS1_IS3_EEE9__end_capB8ue170006Ev, symObjAddr: 0x6D70, symBinAddr: 0x100008C70, symSize: 0x28 }
  - { offsetInCU: 0x188EB, offset: 0x188EB, size: 0x8, addend: 0x0, symName: __ZNKSt3__16vectorINS0_IdNS_9allocatorIdEEEENS1_IS3_EEE14__annotate_newB8ue170006Em, symObjAddr: 0x6D98, symBinAddr: 0x100008C98, symSize: 0xC8 }
  - { offsetInCU: 0x1892A, offset: 0x1892A, size: 0x8, addend: 0x0, symName: __ZNSt3__116allocator_traitsINS_9allocatorINS_6vectorIdNS1_IdEEEEEEE8max_sizeB8ue170006IS5_vEEmRKS5_, symObjAddr: 0x6E60, symBinAddr: 0x100008D60, symSize: 0x24 }
  - { offsetInCU: 0x18958, offset: 0x18958, size: 0x8, addend: 0x0, symName: __ZNKSt3__16vectorINS0_IdNS_9allocatorIdEEEENS1_IS3_EEE7__allocB8ue170006Ev, symObjAddr: 0x6E84, symBinAddr: 0x100008D84, symSize: 0x28 }
  - { offsetInCU: 0x1897E, offset: 0x1897E, size: 0x8, addend: 0x0, symName: __ZNKSt3__19allocatorINS_6vectorIdNS0_IdEEEEE8max_sizeB8ue170006Ev, symObjAddr: 0x6EAC, symBinAddr: 0x100008DAC, symSize: 0x18 }
  - { offsetInCU: 0x189A4, offset: 0x189A4, size: 0x8, addend: 0x0, symName: __ZNKSt3__117__compressed_pairIPNS_6vectorIdNS_9allocatorIdEEEENS2_IS4_EEE6secondB8ue170006Ev, symObjAddr: 0x6EC4, symBinAddr: 0x100008DC4, symSize: 0x24 }
  - { offsetInCU: 0x189CA, offset: 0x189CA, size: 0x8, addend: 0x0, symName: __ZNKSt3__122__compressed_pair_elemINS_9allocatorINS_6vectorIdNS1_IdEEEEEELi1ELb1EE5__getB8ue170006Ev, symObjAddr: 0x6EE8, symBinAddr: 0x100008DE8, symSize: 0x14 }
  - { offsetInCU: 0x189F0, offset: 0x189F0, size: 0x8, addend: 0x0, symName: __ZNSt3__19allocatorINS_6vectorIdNS0_IdEEEEE8allocateB8ue170006Em, symObjAddr: 0x6EFC, symBinAddr: 0x100008DFC, symSize: 0x8C }
  - { offsetInCU: 0x18A24, offset: 0x18A24, size: 0x8, addend: 0x0, symName: __ZNSt3__117__compressed_pairIPNS_6vectorIdNS_9allocatorIdEEEENS2_IS4_EEE6secondB8ue170006Ev, symObjAddr: 0x6F88, symBinAddr: 0x100008E88, symSize: 0x24 }
  - { offsetInCU: 0x18A4A, offset: 0x18A4A, size: 0x8, addend: 0x0, symName: __ZNSt3__122__compressed_pair_elemINS_9allocatorINS_6vectorIdNS1_IdEEEEEELi1ELb1EE5__getB8ue170006Ev, symObjAddr: 0x6FAC, symBinAddr: 0x100008EAC, symSize: 0x14 }
  - { offsetInCU: 0x18A70, offset: 0x18A70, size: 0x8, addend: 0x0, symName: __ZNSt3__117__compressed_pairIPNS_6vectorIdNS_9allocatorIdEEEENS2_IS4_EEE5firstB8ue170006Ev, symObjAddr: 0x6FC0, symBinAddr: 0x100008EC0, symSize: 0x24 }
  - { offsetInCU: 0x18A96, offset: 0x18A96, size: 0x8, addend: 0x0, symName: __ZNSt3__122__compressed_pair_elemIPNS_6vectorIdNS_9allocatorIdEEEELi0ELb0EE5__getB8ue170006Ev, symObjAddr: 0x6FE4, symBinAddr: 0x100008EE4, symSize: 0x14 }
  - { offsetInCU: 0x18ABC, offset: 0x18ABC, size: 0x8, addend: 0x0, symName: __ZNKSt3__16vectorINS0_IdNS_9allocatorIdEEEENS1_IS3_EEE31__annotate_contiguous_containerB8ue170006EPKvS7_S7_S7_, symObjAddr: 0x6FF8, symBinAddr: 0x100008EF8, symSize: 0x20 }
  - { offsetInCU: 0x18B0E, offset: 0x18B0E, size: 0x8, addend: 0x0, symName: __ZNKSt3__16vectorINS0_IdNS_9allocatorIdEEEENS1_IS3_EEE4dataB8ue170006Ev, symObjAddr: 0x7018, symBinAddr: 0x100008F18, symSize: 0x28 }
  - { offsetInCU: 0x18B34, offset: 0x18B34, size: 0x8, addend: 0x0, symName: __ZNKSt3__16vectorINS0_IdNS_9allocatorIdEEEENS1_IS3_EEE8capacityB8ue170006Ev, symObjAddr: 0x7040, symBinAddr: 0x100008F40, symSize: 0x40 }
  - { offsetInCU: 0x18B5A, offset: 0x18B5A, size: 0x8, addend: 0x0, symName: __ZNKSt3__16vectorINS0_IdNS_9allocatorIdEEEENS1_IS3_EEE9__end_capB8ue170006Ev, symObjAddr: 0x7094, symBinAddr: 0x100008F94, symSize: 0x28 }
  - { offsetInCU: 0x18B80, offset: 0x18B80, size: 0x8, addend: 0x0, symName: __ZNKSt3__117__compressed_pairIPNS_6vectorIdNS_9allocatorIdEEEENS2_IS4_EEE5firstB8ue170006Ev, symObjAddr: 0x70BC, symBinAddr: 0x100008FBC, symSize: 0x24 }
  - { offsetInCU: 0x18BA6, offset: 0x18BA6, size: 0x8, addend: 0x0, symName: __ZNKSt3__122__compressed_pair_elemIPNS_6vectorIdNS_9allocatorIdEEEELi0ELb0EE5__getB8ue170006Ev, symObjAddr: 0x70E0, symBinAddr: 0x100008FE0, symSize: 0x14 }
  - { offsetInCU: 0x18BE5, offset: 0x18BE5, size: 0x8, addend: 0x0, symName: __ZNSt3__16vectorINS0_IdNS_9allocatorIdEEEENS1_IS3_EEE21_ConstructTransactionC1B8ue170006ERS5_m, symObjAddr: 0x70F4, symBinAddr: 0x100008FF4, symSize: 0x3C }
  - { offsetInCU: 0x18C2D, offset: 0x18C2D, size: 0x8, addend: 0x0, symName: __ZNSt3__116allocator_traitsINS_9allocatorINS_6vectorIdNS1_IdEEEEEEE9constructB8ue170006IS4_JRKS4_EvEEvRS5_PT_DpOT0_, symObjAddr: 0x7130, symBinAddr: 0x100009030, symSize: 0x34 }
  - { offsetInCU: 0x18C84, offset: 0x18C84, size: 0x8, addend: 0x0, symName: __ZNSt3__16vectorINS0_IdNS_9allocatorIdEEEENS1_IS3_EEE21_ConstructTransactionD1B8ue170006Ev, symObjAddr: 0x7164, symBinAddr: 0x100009064, symSize: 0x2C }
  - { offsetInCU: 0x18CAE, offset: 0x18CAE, size: 0x8, addend: 0x0, symName: __ZNSt3__16vectorINS0_IdNS_9allocatorIdEEEENS1_IS3_EEE21_ConstructTransactionC2B8ue170006ERS5_m, symObjAddr: 0x7190, symBinAddr: 0x100009090, symSize: 0x4C }
  - { offsetInCU: 0x18CF6, offset: 0x18CF6, size: 0x8, addend: 0x0, symName: __ZNSt3__19allocatorINS_6vectorIdNS0_IdEEEEE9constructB8ue170006IS3_JRKS3_EEEvPT_DpOT0_, symObjAddr: 0x71DC, symBinAddr: 0x1000090DC, symSize: 0x30 }
  - { offsetInCU: 0x18D4C, offset: 0x18D4C, size: 0x8, addend: 0x0, symName: __ZNSt3__16vectorIdNS_9allocatorIdEEEC1ERKS3_, symObjAddr: 0x720C, symBinAddr: 0x10000910C, symSize: 0x34 }
  - { offsetInCU: 0x18D87, offset: 0x18D87, size: 0x8, addend: 0x0, symName: __ZNSt3__16vectorIdNS_9allocatorIdEEEC2ERKS3_, symObjAddr: 0x7240, symBinAddr: 0x100009140, symSize: 0x94 }
  - { offsetInCU: 0x18DC2, offset: 0x18DC2, size: 0x8, addend: 0x0, symName: __ZNSt3__116allocator_traitsINS_9allocatorIdEEE37select_on_container_copy_constructionB8ue170006IS2_vvEES2_RKS2_, symObjAddr: 0x72D4, symBinAddr: 0x1000091D4, symSize: 0x10 }
  - { offsetInCU: 0x18DF7, offset: 0x18DF7, size: 0x8, addend: 0x0, symName: __ZNSt3__117__compressed_pairIPdNS_9allocatorIdEEEC1B8ue170006IDnS3_EEOT_OT0_, symObjAddr: 0x72E4, symBinAddr: 0x1000091E4, symSize: 0x3C }
  - { offsetInCU: 0x18E4F, offset: 0x18E4F, size: 0x8, addend: 0x0, symName: __ZNSt3__16vectorIdNS_9allocatorIdEEE16__init_with_sizeB8ue170006IPdS5_EEvT_T0_m, symObjAddr: 0x7320, symBinAddr: 0x100009220, symSize: 0xC0 }
  - { offsetInCU: 0x18EC3, offset: 0x18EC3, size: 0x8, addend: 0x0, symName: __ZNSt3__117__compressed_pairIPdNS_9allocatorIdEEEC2B8ue170006IDnS3_EEOT_OT0_, symObjAddr: 0x73E0, symBinAddr: 0x1000092E0, symSize: 0x44 }
  - { offsetInCU: 0x18F1B, offset: 0x18F1B, size: 0x8, addend: 0x0, symName: __ZNSt3__122__compressed_pair_elemINS_9allocatorIdEELi1ELb1EEC2B8ue170006IS2_vEEOT_, symObjAddr: 0x7424, symBinAddr: 0x100009324, symSize: 0x18 }
  - { offsetInCU: 0x18F5D, offset: 0x18F5D, size: 0x8, addend: 0x0, symName: __ZNSt3__16vectorIdNS_9allocatorIdEEE18__construct_at_endIPdS5_EEvT_T0_m, symObjAddr: 0x743C, symBinAddr: 0x10000933C, symSize: 0x94 }
  - { offsetInCU: 0x18FED, offset: 0x18FED, size: 0x8, addend: 0x0, symName: __ZNSt3__14pairIPdS1_EC1B8ue170006ERKS1_S4_, symObjAddr: 0x7758, symBinAddr: 0x100009658, symSize: 0x3C }
  - { offsetInCU: 0x19033, offset: 0x19033, size: 0x8, addend: 0x0, symName: __ZNSt3__14pairIPdS1_EC2B8ue170006ERKS1_S4_, symObjAddr: 0x7794, symBinAddr: 0x100009694, symSize: 0x34 }
  - { offsetInCU: 0x19079, offset: 0x19079, size: 0x8, addend: 0x0, symName: __ZNSt3__129_AllocatorDestroyRangeReverseINS_9allocatorIdEEPdEC1B8ue170006ERS2_RS3_S6_, symObjAddr: 0x7814, symBinAddr: 0x100009714, symSize: 0x44 }
  - { offsetInCU: 0x190D0, offset: 0x190D0, size: 0x8, addend: 0x0, symName: __ZNSt3__116allocator_traitsINS_9allocatorIdEEE9constructB8ue170006IdJRdEvEEvRS2_PT_DpOT0_, symObjAddr: 0x7858, symBinAddr: 0x100009758, symSize: 0x34 }
  - { offsetInCU: 0x19127, offset: 0x19127, size: 0x8, addend: 0x0, symName: __ZNSt3__128__exception_guard_exceptionsINS_29_AllocatorDestroyRangeReverseINS_9allocatorIdEEPdEEE10__completeB8ue170006Ev, symObjAddr: 0x788C, symBinAddr: 0x10000978C, symSize: 0x1C }
  - { offsetInCU: 0x1914D, offset: 0x1914D, size: 0x8, addend: 0x0, symName: __ZNSt3__128__exception_guard_exceptionsINS_29_AllocatorDestroyRangeReverseINS_9allocatorIdEEPdEEED1B8ue170006Ev, symObjAddr: 0x78A8, symBinAddr: 0x1000097A8, symSize: 0x2C }
  - { offsetInCU: 0x19177, offset: 0x19177, size: 0x8, addend: 0x0, symName: __ZNSt3__128__exception_guard_exceptionsINS_29_AllocatorDestroyRangeReverseINS_9allocatorIdEEPdEEEC1B8ue170006ES5_, symObjAddr: 0x78D4, symBinAddr: 0x1000097D4, symSize: 0x34 }
  - { offsetInCU: 0x191B0, offset: 0x191B0, size: 0x8, addend: 0x0, symName: __ZNSt3__128__exception_guard_exceptionsINS_29_AllocatorDestroyRangeReverseINS_9allocatorIdEEPdEEEC2B8ue170006ES5_, symObjAddr: 0x7908, symBinAddr: 0x100009808, symSize: 0x30 }
  - { offsetInCU: 0x191E9, offset: 0x191E9, size: 0x8, addend: 0x0, symName: __ZNSt3__129_AllocatorDestroyRangeReverseINS_9allocatorIdEEPdEC2B8ue170006ERS2_RS3_S6_, symObjAddr: 0x7938, symBinAddr: 0x100009838, symSize: 0x38 }
  - { offsetInCU: 0x19240, offset: 0x19240, size: 0x8, addend: 0x0, symName: __ZNSt3__19allocatorIdE9constructB8ue170006IdJRdEEEvPT_DpOT0_, symObjAddr: 0x7970, symBinAddr: 0x100009870, symSize: 0x28 }
  - { offsetInCU: 0x19296, offset: 0x19296, size: 0x8, addend: 0x0, symName: __ZNSt3__128__exception_guard_exceptionsINS_29_AllocatorDestroyRangeReverseINS_9allocatorIdEEPdEEED2B8ue170006Ev, symObjAddr: 0x7998, symBinAddr: 0x100009898, symSize: 0x48 }
  - { offsetInCU: 0x192C0, offset: 0x192C0, size: 0x8, addend: 0x0, symName: __ZNKSt3__129_AllocatorDestroyRangeReverseINS_9allocatorIdEEPdEclB8ue170006Ev, symObjAddr: 0x79E0, symBinAddr: 0x1000098E0, symSize: 0x68 }
  - { offsetInCU: 0x192E6, offset: 0x192E6, size: 0x8, addend: 0x0, symName: __ZNSt3__116reverse_iteratorIPdEC1B8ue170006ES1_, symObjAddr: 0x7AB8, symBinAddr: 0x1000099B8, symSize: 0x34 }
  - { offsetInCU: 0x1931E, offset: 0x1931E, size: 0x8, addend: 0x0, symName: __ZNSt3__116reverse_iteratorIPdEppB8ue170006Ev, symObjAddr: 0x7B58, symBinAddr: 0x100009A58, symSize: 0x20 }
  - { offsetInCU: 0x19344, offset: 0x19344, size: 0x8, addend: 0x0, symName: __ZNKSt3__116reverse_iteratorIPdE4baseB8ue170006Ev, symObjAddr: 0x7B78, symBinAddr: 0x100009A78, symSize: 0x18 }
  - { offsetInCU: 0x1936F, offset: 0x1936F, size: 0x8, addend: 0x0, symName: __ZNSt3__119__to_address_helperINS_16reverse_iteratorIPdEEvE6__callB8ue170006ERKS3_, symObjAddr: 0x7B90, symBinAddr: 0x100009A90, symSize: 0x4C }
  - { offsetInCU: 0x19392, offset: 0x19392, size: 0x8, addend: 0x0, symName: __ZNKSt3__116reverse_iteratorIPdEptB8ue170006Ev, symObjAddr: 0x7BDC, symBinAddr: 0x100009ADC, symSize: 0x24 }
  - { offsetInCU: 0x193B8, offset: 0x193B8, size: 0x8, addend: 0x0, symName: __ZNKSt3__116reverse_iteratorIPdEdeB8ue170006Ev, symObjAddr: 0x7C00, symBinAddr: 0x100009B00, symSize: 0x28 }
  - { offsetInCU: 0x193EC, offset: 0x193EC, size: 0x8, addend: 0x0, symName: __ZNSt3__116reverse_iteratorIPdEC2B8ue170006ES1_, symObjAddr: 0x7C28, symBinAddr: 0x100009B28, symSize: 0x28 }
  - { offsetInCU: 0x19424, offset: 0x19424, size: 0x8, addend: 0x0, symName: __ZNSt3__118__unwrap_iter_implIPdLb1EE8__unwrapB8ue170006ES1_, symObjAddr: 0x7C50, symBinAddr: 0x100009B50, symSize: 0x24 }
  - { offsetInCU: 0x19447, offset: 0x19447, size: 0x8, addend: 0x0, symName: __ZNSt3__118__unwrap_iter_implIPdLb1EE8__rewrapB8ue170006ES1_S1_, symObjAddr: 0x7C74, symBinAddr: 0x100009B74, symSize: 0x50 }
  - { offsetInCU: 0x19478, offset: 0x19478, size: 0x8, addend: 0x0, symName: __ZNSt3__16vectorINS0_IdNS_9allocatorIdEEEENS1_IS3_EEE21_ConstructTransactionD2B8ue170006Ev, symObjAddr: 0x7CC4, symBinAddr: 0x100009BC4, symSize: 0x20 }
  - { offsetInCU: 0x194A2, offset: 0x194A2, size: 0x8, addend: 0x0, symName: __ZNSt3__128__exception_guard_exceptionsINS_6vectorINS1_IdNS_9allocatorIdEEEENS2_IS4_EEE16__destroy_vectorEED2B8ue170006Ev, symObjAddr: 0x7CE4, symBinAddr: 0x100009BE4, symSize: 0x48 }
  - { offsetInCU: 0x194CC, offset: 0x194CC, size: 0x8, addend: 0x0, symName: __ZNSt3__16vectorINS0_IdNS_9allocatorIdEEEENS1_IS3_EEE16__destroy_vectorclB8ue170006Ev, symObjAddr: 0x7D2C, symBinAddr: 0x100009C2C, symSize: 0x90 }
  - { offsetInCU: 0x194F2, offset: 0x194F2, size: 0x8, addend: 0x0, symName: __ZNSt3__16vectorINS0_IdNS_9allocatorIdEEEENS1_IS3_EEE7__clearB8ue170006Ev, symObjAddr: 0x7DBC, symBinAddr: 0x100009CBC, symSize: 0x28 }
  - { offsetInCU: 0x19518, offset: 0x19518, size: 0x8, addend: 0x0, symName: __ZNKSt3__16vectorINS0_IdNS_9allocatorIdEEEENS1_IS3_EEE17__annotate_deleteB8ue170006Ev, symObjAddr: 0x7DE4, symBinAddr: 0x100009CE4, symSize: 0xD4 }
  - { offsetInCU: 0x1953E, offset: 0x1953E, size: 0x8, addend: 0x0, symName: __ZNSt3__116allocator_traitsINS_9allocatorINS_6vectorIdNS1_IdEEEEEEE10deallocateB8ue170006ERS5_PS4_m, symObjAddr: 0x7EB8, symBinAddr: 0x100009DB8, symSize: 0x34 }
  - { offsetInCU: 0x19580, offset: 0x19580, size: 0x8, addend: 0x0, symName: __ZNSt3__16vectorINS0_IdNS_9allocatorIdEEEENS1_IS3_EEE22__base_destruct_at_endB8ue170006EPS3_, symObjAddr: 0x7EEC, symBinAddr: 0x100009DEC, symSize: 0xA0 }
  - { offsetInCU: 0x195C4, offset: 0x195C4, size: 0x8, addend: 0x0, symName: __ZNSt3__116allocator_traitsINS_9allocatorINS_6vectorIdNS1_IdEEEEEEE7destroyB8ue170006IS4_vEEvRS5_PT_, symObjAddr: 0x7F8C, symBinAddr: 0x100009E8C, symSize: 0x2C }
  - { offsetInCU: 0x19601, offset: 0x19601, size: 0x8, addend: 0x0, symName: __ZNSt3__19allocatorINS_6vectorIdNS0_IdEEEEE7destroyB8ue170006EPS3_, symObjAddr: 0x7FB8, symBinAddr: 0x100009EB8, symSize: 0x28 }
  - { offsetInCU: 0x19635, offset: 0x19635, size: 0x8, addend: 0x0, symName: __ZNKSt3__16vectorINS0_IdNS_9allocatorIdEEEENS1_IS3_EEE4sizeB8ue170006Ev, symObjAddr: 0x7FE0, symBinAddr: 0x100009EE0, symSize: 0x28 }
  - { offsetInCU: 0x1965B, offset: 0x1965B, size: 0x8, addend: 0x0, symName: __ZNSt3__19allocatorINS_6vectorIdNS0_IdEEEEE10deallocateB8ue170006EPS3_m, symObjAddr: 0x8008, symBinAddr: 0x100009F08, symSize: 0x74 }
  - { offsetInCU: 0x1969D, offset: 0x1969D, size: 0x8, addend: 0x0, symName: __ZNSt3__16vectorIdNS_9allocatorIdEEED2B8ue170006Ev, symObjAddr: 0x807C, symBinAddr: 0x100009F7C, symSize: 0x3C }
  - { offsetInCU: 0x196D6, offset: 0x196D6, size: 0x8, addend: 0x0, symName: __ZN5Graph13FibonacciHeapC1Ev, symObjAddr: 0x80B8, symBinAddr: 0x100009FB8, symSize: 0x2C }
  - { offsetInCU: 0x19700, offset: 0x19700, size: 0x8, addend: 0x0, symName: __ZNSt3__13mapIiPN5Graph7FibNodeENS_4lessIiEENS_9allocatorINS_4pairIKiS3_EEEEEC1B8ue170006Ev, symObjAddr: 0x80E4, symBinAddr: 0x100009FE4, symSize: 0x2C }
  - { offsetInCU: 0x1972A, offset: 0x1972A, size: 0x8, addend: 0x0, symName: __ZN5Graph13FibonacciHeap6insertEid, symObjAddr: 0x8110, symBinAddr: 0x10000A010, symSize: 0x94 }
  - { offsetInCU: 0x1977A, offset: 0x1977A, size: 0x8, addend: 0x0, symName: __ZNSt3__13mapIiPN5Graph7FibNodeENS_4lessIiEENS_9allocatorINS_4pairIKiS3_EEEEEixERS8_, symObjAddr: 0x81A4, symBinAddr: 0x10000A0A4, symSize: 0xC8 }
  - { offsetInCU: 0x197F3, offset: 0x197F3, size: 0x8, addend: 0x0, symName: __ZNK5Graph13FibonacciHeap7isEmptyEv, symObjAddr: 0x826C, symBinAddr: 0x10000A16C, symSize: 0x24 }
  - { offsetInCU: 0x19819, offset: 0x19819, size: 0x8, addend: 0x0, symName: __ZN5Graph13FibonacciHeap10extractMinEv, symObjAddr: 0x8290, symBinAddr: 0x10000A190, symSize: 0x118 }
  - { offsetInCU: 0x1987D, offset: 0x1987D, size: 0x8, addend: 0x0, symName: __ZNKSt3__16vectorIdNS_9allocatorIdEEEixB8ue170006Em, symObjAddr: 0x83A8, symBinAddr: 0x10000A2A8, symSize: 0x24 }
  - { offsetInCU: 0x198B4, offset: 0x198B4, size: 0x8, addend: 0x0, symName: __ZN5Graph13FibonacciHeap11decreaseKeyEPNS_7FibNodeEd, symObjAddr: 0x83CC, symBinAddr: 0x10000A2CC, symSize: 0xEC }
  - { offsetInCU: 0x19904, offset: 0x19904, size: 0x8, addend: 0x0, symName: __ZNSt3__13mapIiPN5Graph7FibNodeENS_4lessIiEENS_9allocatorINS_4pairIKiS3_EEEEED1B8ue170006Ev, symObjAddr: 0x84B8, symBinAddr: 0x10000A3B8, symSize: 0x2C }
  - { offsetInCU: 0x1992E, offset: 0x1992E, size: 0x8, addend: 0x0, symName: __ZN5Graph13FibonacciHeapD1Ev, symObjAddr: 0x84E4, symBinAddr: 0x10000A3E4, symSize: 0x2C }
  - { offsetInCU: 0x19958, offset: 0x19958, size: 0x8, addend: 0x0, symName: __ZN5Graph13FibonacciHeapC2Ev, symObjAddr: 0x8510, symBinAddr: 0x10000A410, symSize: 0x1C }
  - { offsetInCU: 0x19982, offset: 0x19982, size: 0x8, addend: 0x0, symName: __ZNSt3__13mapIiPN5Graph7FibNodeENS_4lessIiEENS_9allocatorINS_4pairIKiS3_EEEEEC2B8ue170006Ev, symObjAddr: 0x852C, symBinAddr: 0x10000A42C, symSize: 0x40 }
  - { offsetInCU: 0x199AC, offset: 0x199AC, size: 0x8, addend: 0x0, symName: __ZNSt3__119__map_value_compareIiNS_12__value_typeIiPN5Graph7FibNodeEEENS_4lessIiEELb1EEC1B8ue170006ES7_, symObjAddr: 0x856C, symBinAddr: 0x10000A46C, symSize: 0x2C }
  - { offsetInCU: 0x199E5, offset: 0x199E5, size: 0x8, addend: 0x0, symName: __ZNSt3__16__treeINS_12__value_typeIiPN5Graph7FibNodeEEENS_19__map_value_compareIiS5_NS_4lessIiEELb1EEENS_9allocatorIS5_EEEC1ERKS9_, symObjAddr: 0x8598, symBinAddr: 0x10000A498, symSize: 0x34 }
  - { offsetInCU: 0x19A20, offset: 0x19A20, size: 0x8, addend: 0x0, symName: __ZNSt3__119__map_value_compareIiNS_12__value_typeIiPN5Graph7FibNodeEEENS_4lessIiEELb1EEC2B8ue170006ES7_, symObjAddr: 0x85CC, symBinAddr: 0x10000A4CC, symSize: 0x14 }
  - { offsetInCU: 0x19A59, offset: 0x19A59, size: 0x8, addend: 0x0, symName: __ZNSt3__16__treeINS_12__value_typeIiPN5Graph7FibNodeEEENS_19__map_value_compareIiS5_NS_4lessIiEELb1EEENS_9allocatorIS5_EEEC2ERKS9_, symObjAddr: 0x85E0, symBinAddr: 0x10000A4E0, symSize: 0x70 }
  - { offsetInCU: 0x19A94, offset: 0x19A94, size: 0x8, addend: 0x0, symName: __ZNSt3__117__compressed_pairINS_15__tree_end_nodeIPNS_16__tree_node_baseIPvEEEENS_9allocatorINS_11__tree_nodeINS_12__value_typeIiPN5Graph7FibNodeEEES3_EEEEEC1B8ue170006ILb1EvEEv, symObjAddr: 0x8650, symBinAddr: 0x10000A550, symSize: 0x2C }
  - { offsetInCU: 0x19AC9, offset: 0x19AC9, size: 0x8, addend: 0x0, symName: __ZNSt3__117__compressed_pairImNS_19__map_value_compareIiNS_12__value_typeIiPN5Graph7FibNodeEEENS_4lessIiEELb1EEEEC1B8ue170006IiRKS9_EEOT_OT0_, symObjAddr: 0x867C, symBinAddr: 0x10000A57C, symSize: 0x3C }
  - { offsetInCU: 0x19B21, offset: 0x19B21, size: 0x8, addend: 0x0, symName: __ZNSt3__16__treeINS_12__value_typeIiPN5Graph7FibNodeEEENS_19__map_value_compareIiS5_NS_4lessIiEELb1EEENS_9allocatorIS5_EEE10__end_nodeB8ue170006Ev, symObjAddr: 0x86B8, symBinAddr: 0x10000A5B8, symSize: 0x2C }
  - { offsetInCU: 0x19B47, offset: 0x19B47, size: 0x8, addend: 0x0, symName: __ZNSt3__16__treeINS_12__value_typeIiPN5Graph7FibNodeEEENS_19__map_value_compareIiS5_NS_4lessIiEELb1EEENS_9allocatorIS5_EEE12__begin_nodeB8ue170006Ev, symObjAddr: 0x86E4, symBinAddr: 0x10000A5E4, symSize: 0x14 }
  - { offsetInCU: 0x19B6D, offset: 0x19B6D, size: 0x8, addend: 0x0, symName: __ZNSt3__117__compressed_pairINS_15__tree_end_nodeIPNS_16__tree_node_baseIPvEEEENS_9allocatorINS_11__tree_nodeINS_12__value_typeIiPN5Graph7FibNodeEEES3_EEEEEC2B8ue170006ILb1EvEEv, symObjAddr: 0x86F8, symBinAddr: 0x10000A5F8, symSize: 0x34 }
  - { offsetInCU: 0x19BA2, offset: 0x19BA2, size: 0x8, addend: 0x0, symName: __ZNSt3__122__compressed_pair_elemINS_15__tree_end_nodeIPNS_16__tree_node_baseIPvEEEELi0ELb0EEC2B8ue170006ENS_16__value_init_tagE, symObjAddr: 0x872C, symBinAddr: 0x10000A62C, symSize: 0x2C }
  - { offsetInCU: 0x19BD6, offset: 0x19BD6, size: 0x8, addend: 0x0, symName: __ZNSt3__122__compressed_pair_elemINS_9allocatorINS_11__tree_nodeINS_12__value_typeIiPN5Graph7FibNodeEEEPvEEEELi1ELb1EEC2B8ue170006ENS_16__value_init_tagE, symObjAddr: 0x8758, symBinAddr: 0x10000A658, symSize: 0x2C }
  - { offsetInCU: 0x19C0A, offset: 0x19C0A, size: 0x8, addend: 0x0, symName: __ZNSt3__115__tree_end_nodeIPNS_16__tree_node_baseIPvEEEC1B8ue170006Ev, symObjAddr: 0x8784, symBinAddr: 0x10000A684, symSize: 0x2C }
  - { offsetInCU: 0x19C34, offset: 0x19C34, size: 0x8, addend: 0x0, symName: __ZNSt3__115__tree_end_nodeIPNS_16__tree_node_baseIPvEEEC2B8ue170006Ev, symObjAddr: 0x87B0, symBinAddr: 0x10000A6B0, symSize: 0x18 }
  - { offsetInCU: 0x19C5E, offset: 0x19C5E, size: 0x8, addend: 0x0, symName: __ZNSt3__19allocatorINS_11__tree_nodeINS_12__value_typeIiPN5Graph7FibNodeEEEPvEEEC2B8ue170006Ev, symObjAddr: 0x87C8, symBinAddr: 0x10000A6C8, symSize: 0x2C }
  - { offsetInCU: 0x19C88, offset: 0x19C88, size: 0x8, addend: 0x0, symName: __ZNSt3__116__non_trivial_ifILb1ENS_9allocatorINS_11__tree_nodeINS_12__value_typeIiPN5Graph7FibNodeEEEPvEEEEEC2B8ue170006Ev, symObjAddr: 0x87F4, symBinAddr: 0x10000A6F4, symSize: 0x14 }
  - { offsetInCU: 0x19CB2, offset: 0x19CB2, size: 0x8, addend: 0x0, symName: __ZNSt3__117__compressed_pairImNS_19__map_value_compareIiNS_12__value_typeIiPN5Graph7FibNodeEEENS_4lessIiEELb1EEEEC2B8ue170006IiRKS9_EEOT_OT0_, symObjAddr: 0x8808, symBinAddr: 0x10000A708, symSize: 0x44 }
  - { offsetInCU: 0x19D0A, offset: 0x19D0A, size: 0x8, addend: 0x0, symName: __ZNSt3__122__compressed_pair_elemINS_19__map_value_compareIiNS_12__value_typeIiPN5Graph7FibNodeEEENS_4lessIiEELb1EEELi1ELb1EEC2B8ue170006IRKS9_vEEOT_, symObjAddr: 0x884C, symBinAddr: 0x10000A74C, symSize: 0x18 }
  - { offsetInCU: 0x19D4C, offset: 0x19D4C, size: 0x8, addend: 0x0, symName: __ZNSt3__114pointer_traitsIPNS_15__tree_end_nodeIPNS_16__tree_node_baseIPvEEEEE10pointer_toB8ue170006ERS6_, symObjAddr: 0x8864, symBinAddr: 0x10000A764, symSize: 0x14 }
  - { offsetInCU: 0x19D6F, offset: 0x19D6F, size: 0x8, addend: 0x0, symName: __ZNSt3__117__compressed_pairINS_15__tree_end_nodeIPNS_16__tree_node_baseIPvEEEENS_9allocatorINS_11__tree_nodeINS_12__value_typeIiPN5Graph7FibNodeEEES3_EEEEE5firstB8ue170006Ev, symObjAddr: 0x8878, symBinAddr: 0x10000A778, symSize: 0x24 }
  - { offsetInCU: 0x19D95, offset: 0x19D95, size: 0x8, addend: 0x0, symName: __ZNSt3__122__compressed_pair_elemINS_15__tree_end_nodeIPNS_16__tree_node_baseIPvEEEELi0ELb0EE5__getB8ue170006Ev, symObjAddr: 0x889C, symBinAddr: 0x10000A79C, symSize: 0x14 }
  - { offsetInCU: 0x19DBB, offset: 0x19DBB, size: 0x8, addend: 0x0, symName: __ZN5Graph7FibNodeC1Eid, symObjAddr: 0x88B0, symBinAddr: 0x10000A7B0, symSize: 0x3C }
  - { offsetInCU: 0x19E01, offset: 0x19E01, size: 0x8, addend: 0x0, symName: __ZN5Graph13FibonacciHeap18insertIntoRootListEPNS_7FibNodeE, symObjAddr: 0x88EC, symBinAddr: 0x10000A7EC, symSize: 0xBC }
  - { offsetInCU: 0x19E35, offset: 0x19E35, size: 0x8, addend: 0x0, symName: __ZN5Graph7FibNodeC2Eid, symObjAddr: 0x89A8, symBinAddr: 0x10000A8A8, symSize: 0x4C }
  - { offsetInCU: 0x19E7B, offset: 0x19E7B, size: 0x8, addend: 0x0, symName: __ZN5Graph13FibonacciHeap4linkEPNS_7FibNodeES2_, symObjAddr: 0x89F4, symBinAddr: 0x10000A8F4, symSize: 0x30 }
  - { offsetInCU: 0x19EBD, offset: 0x19EBD, size: 0x8, addend: 0x0, symName: __ZNSt3__16__treeINS_12__value_typeIiPN5Graph7FibNodeEEENS_19__map_value_compareIiS5_NS_4lessIiEELb1EEENS_9allocatorIS5_EEE12__find_equalIiEERPNS_16__tree_node_baseIPvEERPNS_15__tree_end_nodeISH_EERKT_, symObjAddr: 0x8A24, symBinAddr: 0x10000A924, symSize: 0x184 }
  - { offsetInCU: 0x19F2A, offset: 0x19F2A, size: 0x8, addend: 0x0, symName: __ZNSt3__13mapIiPN5Graph7FibNodeENS_4lessIiEENS_9allocatorINS_4pairIKiS3_EEEEE25__construct_node_with_keyERS8_, symObjAddr: 0x8BA8, symBinAddr: 0x10000AAA8, symSize: 0x154 }
  - { offsetInCU: 0x19F80, offset: 0x19F80, size: 0x8, addend: 0x0, symName: __ZNSt3__16__treeINS_12__value_typeIiPN5Graph7FibNodeEEENS_19__map_value_compareIiS5_NS_4lessIiEELb1EEENS_9allocatorIS5_EEE16__insert_node_atEPNS_15__tree_end_nodeIPNS_16__tree_node_baseIPvEEEERSH_SH_, symObjAddr: 0x8CFC, symBinAddr: 0x10000ABFC, symSize: 0xCC }
  - { offsetInCU: 0x19FD5, offset: 0x19FD5, size: 0x8, addend: 0x0, symName: __ZNKSt3__110unique_ptrINS_11__tree_nodeINS_12__value_typeIiPN5Graph7FibNodeEEEPvEENS_21__map_node_destructorINS_9allocatorIS8_EEEEE3getB8ue170006Ev, symObjAddr: 0x8DC8, symBinAddr: 0x10000ACC8, symSize: 0x28 }
  - { offsetInCU: 0x19FFB, offset: 0x19FFB, size: 0x8, addend: 0x0, symName: __ZNSt3__110unique_ptrINS_11__tree_nodeINS_12__value_typeIiPN5Graph7FibNodeEEEPvEENS_21__map_node_destructorINS_9allocatorIS8_EEEEE7releaseB8ue170006Ev, symObjAddr: 0x8DF0, symBinAddr: 0x10000ACF0, symSize: 0x44 }
  - { offsetInCU: 0x1A030, offset: 0x1A030, size: 0x8, addend: 0x0, symName: __ZNSt3__110unique_ptrINS_11__tree_nodeINS_12__value_typeIiPN5Graph7FibNodeEEEPvEENS_21__map_node_destructorINS_9allocatorIS8_EEEEED1B8ue170006Ev, symObjAddr: 0x8E34, symBinAddr: 0x10000AD34, symSize: 0x2C }
  - { offsetInCU: 0x1A05A, offset: 0x1A05A, size: 0x8, addend: 0x0, symName: __ZNSt3__112__value_typeIiPN5Graph7FibNodeEE11__get_valueB8ue170006Ev, symObjAddr: 0x8E60, symBinAddr: 0x10000AD60, symSize: 0x14 }
  - { offsetInCU: 0x1A080, offset: 0x1A080, size: 0x8, addend: 0x0, symName: __ZNKSt3__16__treeINS_12__value_typeIiPN5Graph7FibNodeEEENS_19__map_value_compareIiS5_NS_4lessIiEELb1EEENS_9allocatorIS5_EEE6__rootB8ue170006Ev, symObjAddr: 0x8E74, symBinAddr: 0x10000AD74, symSize: 0x28 }
  - { offsetInCU: 0x1A0A6, offset: 0x1A0A6, size: 0x8, addend: 0x0, symName: __ZNKSt3__16__treeINS_12__value_typeIiPN5Graph7FibNodeEEENS_19__map_value_compareIiS5_NS_4lessIiEELb1EEENS_9allocatorIS5_EEE10__root_ptrB8ue170006Ev, symObjAddr: 0x8E9C, symBinAddr: 0x10000AD9C, symSize: 0x24 }
  - { offsetInCU: 0x1A0CC, offset: 0x1A0CC, size: 0x8, addend: 0x0, symName: __ZNSt3__16__treeINS_12__value_typeIiPN5Graph7FibNodeEEENS_19__map_value_compareIiS5_NS_4lessIiEELb1EEENS_9allocatorIS5_EEE10value_compB8ue170006Ev, symObjAddr: 0x8EC0, symBinAddr: 0x10000ADC0, symSize: 0x28 }
  - { offsetInCU: 0x1A0F2, offset: 0x1A0F2, size: 0x8, addend: 0x0, symName: __ZNKSt3__119__map_value_compareIiNS_12__value_typeIiPN5Graph7FibNodeEEENS_4lessIiEELb1EEclB8ue170006ERKiRKS5_, symObjAddr: 0x8EE8, symBinAddr: 0x10000ADE8, symSize: 0x50 }
  - { offsetInCU: 0x1A136, offset: 0x1A136, size: 0x8, addend: 0x0, symName: __ZNKSt3__119__map_value_compareIiNS_12__value_typeIiPN5Graph7FibNodeEEENS_4lessIiEELb1EEclB8ue170006ERKS5_RKi, symObjAddr: 0x8F38, symBinAddr: 0x10000AE38, symSize: 0x48 }
  - { offsetInCU: 0x1A17A, offset: 0x1A17A, size: 0x8, addend: 0x0, symName: __ZNKSt3__16__treeINS_12__value_typeIiPN5Graph7FibNodeEEENS_19__map_value_compareIiS5_NS_4lessIiEELb1EEENS_9allocatorIS5_EEE10__end_nodeB8ue170006Ev, symObjAddr: 0x8F80, symBinAddr: 0x10000AE80, symSize: 0x2C }
  - { offsetInCU: 0x1A1A0, offset: 0x1A1A0, size: 0x8, addend: 0x0, symName: __ZNKSt3__117__compressed_pairINS_15__tree_end_nodeIPNS_16__tree_node_baseIPvEEEENS_9allocatorINS_11__tree_nodeINS_12__value_typeIiPN5Graph7FibNodeEEES3_EEEEE5firstB8ue170006Ev, symObjAddr: 0x8FAC, symBinAddr: 0x10000AEAC, symSize: 0x24 }
  - { offsetInCU: 0x1A1C6, offset: 0x1A1C6, size: 0x8, addend: 0x0, symName: __ZNKSt3__122__compressed_pair_elemINS_15__tree_end_nodeIPNS_16__tree_node_baseIPvEEEELi0ELb0EE5__getB8ue170006Ev, symObjAddr: 0x8FD0, symBinAddr: 0x10000AED0, symSize: 0x14 }
  - { offsetInCU: 0x1A1EC, offset: 0x1A1EC, size: 0x8, addend: 0x0, symName: __ZNSt3__117__compressed_pairImNS_19__map_value_compareIiNS_12__value_typeIiPN5Graph7FibNodeEEENS_4lessIiEELb1EEEE6secondB8ue170006Ev, symObjAddr: 0x8FE4, symBinAddr: 0x10000AEE4, symSize: 0x24 }
  - { offsetInCU: 0x1A212, offset: 0x1A212, size: 0x8, addend: 0x0, symName: __ZNSt3__122__compressed_pair_elemINS_19__map_value_compareIiNS_12__value_typeIiPN5Graph7FibNodeEEENS_4lessIiEELb1EEELi1ELb1EE5__getB8ue170006Ev, symObjAddr: 0x9008, symBinAddr: 0x10000AF08, symSize: 0x14 }
  - { offsetInCU: 0x1A238, offset: 0x1A238, size: 0x8, addend: 0x0, symName: __ZNKSt3__14lessIiEclB8ue170006ERKiS3_, symObjAddr: 0x901C, symBinAddr: 0x10000AF1C, symSize: 0x34 }
  - { offsetInCU: 0x1A27C, offset: 0x1A27C, size: 0x8, addend: 0x0, symName: __ZNKSt3__112__value_typeIiPN5Graph7FibNodeEE11__get_valueB8ue170006Ev, symObjAddr: 0x9050, symBinAddr: 0x10000AF50, symSize: 0x14 }
  - { offsetInCU: 0x1A2A2, offset: 0x1A2A2, size: 0x8, addend: 0x0, symName: __ZNSt3__16__treeINS_12__value_typeIiPN5Graph7FibNodeEEENS_19__map_value_compareIiS5_NS_4lessIiEELb1EEENS_9allocatorIS5_EEE12__node_allocB8ue170006Ev, symObjAddr: 0x9064, symBinAddr: 0x10000AF64, symSize: 0x28 }
  - { offsetInCU: 0x1A2C8, offset: 0x1A2C8, size: 0x8, addend: 0x0, symName: __ZNSt3__116allocator_traitsINS_9allocatorINS_11__tree_nodeINS_12__value_typeIiPN5Graph7FibNodeEEEPvEEEEE8allocateB8ue170006ERSA_m, symObjAddr: 0x908C, symBinAddr: 0x10000AF8C, symSize: 0x2C }
  - { offsetInCU: 0x1A2FB, offset: 0x1A2FB, size: 0x8, addend: 0x0, symName: __ZNSt3__121__map_node_destructorINS_9allocatorINS_11__tree_nodeINS_12__value_typeIiPN5Graph7FibNodeEEEPvEEEEEC1B8ue170006ERSA_, symObjAddr: 0x90B8, symBinAddr: 0x10000AFB8, symSize: 0x34 }
  - { offsetInCU: 0x1A33A, offset: 0x1A33A, size: 0x8, addend: 0x0, symName: __ZNSt3__110unique_ptrINS_11__tree_nodeINS_12__value_typeIiPN5Graph7FibNodeEEEPvEENS_21__map_node_destructorINS_9allocatorIS8_EEEEEC1B8ue170006ILb1EvEEPS8_NS_16__dependent_typeINS_27__unique_ptr_deleter_sfinaeISC_EEXT_EE20__good_rval_ref_typeE, symObjAddr: 0x90EC, symBinAddr: 0x10000AFEC, symSize: 0x3C }
  - { offsetInCU: 0x1A390, offset: 0x1A390, size: 0x8, addend: 0x0, symName: __ZNSt3__116allocator_traitsINS_9allocatorINS_11__tree_nodeINS_12__value_typeIiPN5Graph7FibNodeEEEPvEEEEE9constructB8ue170006IKiJRSD_EvEEvRSA_PT_DpOT0_, symObjAddr: 0x9128, symBinAddr: 0x10000B028, symSize: 0x34 }
  - { offsetInCU: 0x1A3E7, offset: 0x1A3E7, size: 0x8, addend: 0x0, symName: __ZNKSt3__110unique_ptrINS_11__tree_nodeINS_12__value_typeIiPN5Graph7FibNodeEEEPvEENS_21__map_node_destructorINS_9allocatorIS8_EEEEEptB8ue170006Ev, symObjAddr: 0x915C, symBinAddr: 0x10000B05C, symSize: 0x28 }
  - { offsetInCU: 0x1A40D, offset: 0x1A40D, size: 0x8, addend: 0x0, symName: __ZNSt3__110unique_ptrINS_11__tree_nodeINS_12__value_typeIiPN5Graph7FibNodeEEEPvEENS_21__map_node_destructorINS_9allocatorIS8_EEEEE11get_deleterB8ue170006Ev, symObjAddr: 0x9184, symBinAddr: 0x10000B084, symSize: 0x24 }
  - { offsetInCU: 0x1A433, offset: 0x1A433, size: 0x8, addend: 0x0, symName: __ZNSt3__116allocator_traitsINS_9allocatorINS_11__tree_nodeINS_12__value_typeIiPN5Graph7FibNodeEEEPvEEEEE9constructB8ue170006IS6_JEvEEvRSA_PT_DpOT0_, symObjAddr: 0x91A8, symBinAddr: 0x10000B0A8, symSize: 0x2C }
  - { offsetInCU: 0x1A475, offset: 0x1A475, size: 0x8, addend: 0x0, symName: __ZNSt3__117__compressed_pairINS_15__tree_end_nodeIPNS_16__tree_node_baseIPvEEEENS_9allocatorINS_11__tree_nodeINS_12__value_typeIiPN5Graph7FibNodeEEES3_EEEEE6secondB8ue170006Ev, symObjAddr: 0x91D4, symBinAddr: 0x10000B0D4, symSize: 0x24 }
  - { offsetInCU: 0x1A49B, offset: 0x1A49B, size: 0x8, addend: 0x0, symName: __ZNSt3__122__compressed_pair_elemINS_9allocatorINS_11__tree_nodeINS_12__value_typeIiPN5Graph7FibNodeEEEPvEEEELi1ELb1EE5__getB8ue170006Ev, symObjAddr: 0x91F8, symBinAddr: 0x10000B0F8, symSize: 0x14 }
  - { offsetInCU: 0x1A4C1, offset: 0x1A4C1, size: 0x8, addend: 0x0, symName: __ZNSt3__19allocatorINS_11__tree_nodeINS_12__value_typeIiPN5Graph7FibNodeEEEPvEEE8allocateB8ue170006Em, symObjAddr: 0x920C, symBinAddr: 0x10000B10C, symSize: 0x8C }
  - { offsetInCU: 0x1A4FF, offset: 0x1A4FF, size: 0x8, addend: 0x0, symName: __ZNSt3__116allocator_traitsINS_9allocatorINS_11__tree_nodeINS_12__value_typeIiPN5Graph7FibNodeEEEPvEEEEE8max_sizeB8ue170006ISA_vEEmRKSA_, symObjAddr: 0x9298, symBinAddr: 0x10000B198, symSize: 0x24 }
  - { offsetInCU: 0x1A52D, offset: 0x1A52D, size: 0x8, addend: 0x0, symName: __ZNKSt3__19allocatorINS_11__tree_nodeINS_12__value_typeIiPN5Graph7FibNodeEEEPvEEE8max_sizeB8ue170006Ev, symObjAddr: 0x92BC, symBinAddr: 0x10000B1BC, symSize: 0x18 }
  - { offsetInCU: 0x1A553, offset: 0x1A553, size: 0x8, addend: 0x0, symName: __ZNSt3__121__map_node_destructorINS_9allocatorINS_11__tree_nodeINS_12__value_typeIiPN5Graph7FibNodeEEEPvEEEEEC2B8ue170006ERSA_, symObjAddr: 0x92D4, symBinAddr: 0x10000B1D4, symSize: 0x28 }
  - { offsetInCU: 0x1A58C, offset: 0x1A58C, size: 0x8, addend: 0x0, symName: __ZNSt3__110unique_ptrINS_11__tree_nodeINS_12__value_typeIiPN5Graph7FibNodeEEEPvEENS_21__map_node_destructorINS_9allocatorIS8_EEEEEC2B8ue170006ILb1EvEEPS8_NS_16__dependent_typeINS_27__unique_ptr_deleter_sfinaeISC_EEXT_EE20__good_rval_ref_typeE, symObjAddr: 0x92FC, symBinAddr: 0x10000B1FC, symSize: 0x5C }
  - { offsetInCU: 0x1A5DD, offset: 0x1A5DD, size: 0x8, addend: 0x0, symName: __ZNSt3__117__compressed_pairIPNS_11__tree_nodeINS_12__value_typeIiPN5Graph7FibNodeEEEPvEENS_21__map_node_destructorINS_9allocatorIS8_EEEEEC1B8ue170006IRS9_SD_EEOT_OT0_, symObjAddr: 0x9358, symBinAddr: 0x10000B258, symSize: 0x3C }
  - { offsetInCU: 0x1A635, offset: 0x1A635, size: 0x8, addend: 0x0, symName: __ZNSt3__117__compressed_pairIPNS_11__tree_nodeINS_12__value_typeIiPN5Graph7FibNodeEEEPvEENS_21__map_node_destructorINS_9allocatorIS8_EEEEEC2B8ue170006IRS9_SD_EEOT_OT0_, symObjAddr: 0x9394, symBinAddr: 0x10000B294, symSize: 0x48 }
  - { offsetInCU: 0x1A68D, offset: 0x1A68D, size: 0x8, addend: 0x0, symName: __ZNSt3__122__compressed_pair_elemIPNS_11__tree_nodeINS_12__value_typeIiPN5Graph7FibNodeEEEPvEELi0ELb0EEC2B8ue170006IRS9_vEEOT_, symObjAddr: 0x93DC, symBinAddr: 0x10000B2DC, symSize: 0x24 }
  - { offsetInCU: 0x1A6CF, offset: 0x1A6CF, size: 0x8, addend: 0x0, symName: __ZNSt3__122__compressed_pair_elemINS_21__map_node_destructorINS_9allocatorINS_11__tree_nodeINS_12__value_typeIiPN5Graph7FibNodeEEEPvEEEEEELi1ELb0EEC2B8ue170006ISC_vEEOT_, symObjAddr: 0x9400, symBinAddr: 0x10000B300, symSize: 0x24 }
  - { offsetInCU: 0x1A711, offset: 0x1A711, size: 0x8, addend: 0x0, symName: __ZNSt3__19allocatorINS_11__tree_nodeINS_12__value_typeIiPN5Graph7FibNodeEEEPvEEE9constructB8ue170006IKiJRSB_EEEvPT_DpOT0_, symObjAddr: 0x9424, symBinAddr: 0x10000B324, symSize: 0x28 }
  - { offsetInCU: 0x1A767, offset: 0x1A767, size: 0x8, addend: 0x0, symName: __ZNKSt3__117__compressed_pairIPNS_11__tree_nodeINS_12__value_typeIiPN5Graph7FibNodeEEEPvEENS_21__map_node_destructorINS_9allocatorIS8_EEEEE5firstB8ue170006Ev, symObjAddr: 0x944C, symBinAddr: 0x10000B34C, symSize: 0x24 }
  - { offsetInCU: 0x1A78D, offset: 0x1A78D, size: 0x8, addend: 0x0, symName: __ZNKSt3__122__compressed_pair_elemIPNS_11__tree_nodeINS_12__value_typeIiPN5Graph7FibNodeEEEPvEELi0ELb0EE5__getB8ue170006Ev, symObjAddr: 0x9470, symBinAddr: 0x10000B370, symSize: 0x14 }
  - { offsetInCU: 0x1A7B3, offset: 0x1A7B3, size: 0x8, addend: 0x0, symName: __ZNSt3__117__compressed_pairIPNS_11__tree_nodeINS_12__value_typeIiPN5Graph7FibNodeEEEPvEENS_21__map_node_destructorINS_9allocatorIS8_EEEEE6secondB8ue170006Ev, symObjAddr: 0x9484, symBinAddr: 0x10000B384, symSize: 0x28 }
  - { offsetInCU: 0x1A7D9, offset: 0x1A7D9, size: 0x8, addend: 0x0, symName: __ZNSt3__122__compressed_pair_elemINS_21__map_node_destructorINS_9allocatorINS_11__tree_nodeINS_12__value_typeIiPN5Graph7FibNodeEEEPvEEEEEELi1ELb0EE5__getB8ue170006Ev, symObjAddr: 0x94AC, symBinAddr: 0x10000B3AC, symSize: 0x14 }
  - { offsetInCU: 0x1A7FF, offset: 0x1A7FF, size: 0x8, addend: 0x0, symName: __ZNSt3__19allocatorINS_11__tree_nodeINS_12__value_typeIiPN5Graph7FibNodeEEEPvEEE9constructB8ue170006IS5_JEEEvPT_DpOT0_, symObjAddr: 0x94C0, symBinAddr: 0x10000B3C0, symSize: 0x1C }
  - { offsetInCU: 0x1A841, offset: 0x1A841, size: 0x8, addend: 0x0, symName: __ZNSt3__16__treeINS_12__value_typeIiPN5Graph7FibNodeEEENS_19__map_value_compareIiS5_NS_4lessIiEELb1EEENS_9allocatorIS5_EEE4sizeB8ue170006Ev, symObjAddr: 0x981C, symBinAddr: 0x10000B71C, symSize: 0x28 }
  - { offsetInCU: 0x1A867, offset: 0x1A867, size: 0x8, addend: 0x0, symName: __ZNKSt3__116__tree_node_baseIPvE15__parent_unsafeB8ue170006Ev, symObjAddr: 0x9844, symBinAddr: 0x10000B744, symSize: 0x18 }
  - { offsetInCU: 0x1A88D, offset: 0x1A88D, size: 0x8, addend: 0x0, symName: __ZNSt3__116__tree_node_baseIPvE12__set_parentB8ue170006EPS2_, symObjAddr: 0x9A40, symBinAddr: 0x10000B940, symSize: 0x20 }
  - { offsetInCU: 0x1A8C2, offset: 0x1A8C2, size: 0x8, addend: 0x0, symName: __ZNSt3__117__compressed_pairImNS_19__map_value_compareIiNS_12__value_typeIiPN5Graph7FibNodeEEENS_4lessIiEELb1EEEE5firstB8ue170006Ev, symObjAddr: 0x9A60, symBinAddr: 0x10000B960, symSize: 0x24 }
  - { offsetInCU: 0x1A8E8, offset: 0x1A8E8, size: 0x8, addend: 0x0, symName: __ZNSt3__117__compressed_pairIPNS_11__tree_nodeINS_12__value_typeIiPN5Graph7FibNodeEEEPvEENS_21__map_node_destructorINS_9allocatorIS8_EEEEE5firstB8ue170006Ev, symObjAddr: 0x9A84, symBinAddr: 0x10000B984, symSize: 0x24 }
  - { offsetInCU: 0x1A90E, offset: 0x1A90E, size: 0x8, addend: 0x0, symName: __ZNSt3__122__compressed_pair_elemIPNS_11__tree_nodeINS_12__value_typeIiPN5Graph7FibNodeEEEPvEELi0ELb0EE5__getB8ue170006Ev, symObjAddr: 0x9AA8, symBinAddr: 0x10000B9A8, symSize: 0x14 }
  - { offsetInCU: 0x1A934, offset: 0x1A934, size: 0x8, addend: 0x0, symName: __ZNSt3__110unique_ptrINS_11__tree_nodeINS_12__value_typeIiPN5Graph7FibNodeEEEPvEENS_21__map_node_destructorINS_9allocatorIS8_EEEEED2B8ue170006Ev, symObjAddr: 0x9ABC, symBinAddr: 0x10000B9BC, symSize: 0x30 }
  - { offsetInCU: 0x1A95E, offset: 0x1A95E, size: 0x8, addend: 0x0, symName: __ZNSt3__110unique_ptrINS_11__tree_nodeINS_12__value_typeIiPN5Graph7FibNodeEEEPvEENS_21__map_node_destructorINS_9allocatorIS8_EEEEE5resetB8ue170006EPS8_, symObjAddr: 0x9AEC, symBinAddr: 0x10000B9EC, symSize: 0x78 }
  - { offsetInCU: 0x1A9A2, offset: 0x1A9A2, size: 0x8, addend: 0x0, symName: __ZNSt3__121__map_node_destructorINS_9allocatorINS_11__tree_nodeINS_12__value_typeIiPN5Graph7FibNodeEEEPvEEEEEclB8ue170006EPS9_, symObjAddr: 0x9B64, symBinAddr: 0x10000BA64, symSize: 0xF4 }
  - { offsetInCU: 0x1A9D7, offset: 0x1A9D7, size: 0x8, addend: 0x0, symName: __ZNSt3__116allocator_traitsINS_9allocatorINS_11__tree_nodeINS_12__value_typeIiPN5Graph7FibNodeEEEPvEEEEE7destroyB8ue170006IS6_vvEEvRSA_PT_, symObjAddr: 0x9C58, symBinAddr: 0x10000BB58, symSize: 0x14 }
  - { offsetInCU: 0x1AA11, offset: 0x1AA11, size: 0x8, addend: 0x0, symName: __ZNSt3__116allocator_traitsINS_9allocatorINS_11__tree_nodeINS_12__value_typeIiPN5Graph7FibNodeEEEPvEEEEE7destroyB8ue170006IKivvEEvRSA_PT_, symObjAddr: 0x9C6C, symBinAddr: 0x10000BB6C, symSize: 0x14 }
  - { offsetInCU: 0x1AA4B, offset: 0x1AA4B, size: 0x8, addend: 0x0, symName: __ZNSt3__116allocator_traitsINS_9allocatorINS_11__tree_nodeINS_12__value_typeIiPN5Graph7FibNodeEEEPvEEEEE10deallocateB8ue170006ERSA_PS9_m, symObjAddr: 0x9C80, symBinAddr: 0x10000BB80, symSize: 0x34 }
  - { offsetInCU: 0x1AA8D, offset: 0x1AA8D, size: 0x8, addend: 0x0, symName: __ZNSt3__19allocatorINS_11__tree_nodeINS_12__value_typeIiPN5Graph7FibNodeEEEPvEEE10deallocateB8ue170006EPS8_m, symObjAddr: 0x9CB4, symBinAddr: 0x10000BBB4, symSize: 0x74 }
  - { offsetInCU: 0x1AACF, offset: 0x1AACF, size: 0x8, addend: 0x0, symName: __ZN5Graph13FibonacciHeap14removeFromListEPNS_7FibNodeE, symObjAddr: 0x9D28, symBinAddr: 0x10000BC28, symSize: 0x3C }
  - { offsetInCU: 0x1AB03, offset: 0x1AB03, size: 0x8, addend: 0x0, symName: __ZN5Graph13FibonacciHeap11consolidateEv, symObjAddr: 0x9D64, symBinAddr: 0x10000BC64, symSize: 0x438 }
  - { offsetInCU: 0x1ABFB, offset: 0x1ABFB, size: 0x8, addend: 0x0, symName: __Z4log2B8ue170006IiENSt3__19enable_ifIXsr3std11is_integralIT_EE5valueEdE4typeES2_, symObjAddr: 0xA19C, symBinAddr: 0x10000C09C, symSize: 0x30 }
  - { offsetInCU: 0x1AC33, offset: 0x1AC33, size: 0x8, addend: 0x0, symName: __ZNSt3__16vectorIPN5Graph7FibNodeENS_9allocatorIS3_EEEC1EmRKS3_, symObjAddr: 0xA1CC, symBinAddr: 0x10000C0CC, symSize: 0x3C }
  - { offsetInCU: 0x1AC7D, offset: 0x1AC7D, size: 0x8, addend: 0x0, symName: __ZNSt3__16vectorIPN5Graph7FibNodeENS_9allocatorIS3_EEEC1B8ue170006Ev, symObjAddr: 0xA208, symBinAddr: 0x10000C108, symSize: 0x2C }
  - { offsetInCU: 0x1ACA7, offset: 0x1ACA7, size: 0x8, addend: 0x0, symName: __ZNSt3__16vectorIPN5Graph7FibNodeENS_9allocatorIS3_EEE9push_backB8ue170006ERKS3_, symObjAddr: 0xA234, symBinAddr: 0x10000C134, symSize: 0x6C }
  - { offsetInCU: 0x1ACDE, offset: 0x1ACDE, size: 0x8, addend: 0x0, symName: __ZNSt3__16vectorIPN5Graph7FibNodeENS_9allocatorIS3_EEE5beginB8ue170006Ev, symObjAddr: 0xA2A0, symBinAddr: 0x10000C1A0, symSize: 0x30 }
  - { offsetInCU: 0x1AD06, offset: 0x1AD06, size: 0x8, addend: 0x0, symName: __ZNSt3__16vectorIPN5Graph7FibNodeENS_9allocatorIS3_EEE3endB8ue170006Ev, symObjAddr: 0xA2D0, symBinAddr: 0x10000C1D0, symSize: 0x30 }
  - { offsetInCU: 0x1AD2E, offset: 0x1AD2E, size: 0x8, addend: 0x0, symName: __ZNKSt3__111__wrap_iterIPPN5Graph7FibNodeEEdeB8ue170006Ev, symObjAddr: 0xA334, symBinAddr: 0x10000C234, symSize: 0x18 }
  - { offsetInCU: 0x1AD54, offset: 0x1AD54, size: 0x8, addend: 0x0, symName: __ZNSt3__16vectorIPN5Graph7FibNodeENS_9allocatorIS3_EEEixB8ue170006Em, symObjAddr: 0xA34C, symBinAddr: 0x10000C24C, symSize: 0x24 }
  - { offsetInCU: 0x1AD8B, offset: 0x1AD8B, size: 0x8, addend: 0x0, symName: __ZNSt3__111__wrap_iterIPPN5Graph7FibNodeEEppB8ue170006Ev, symObjAddr: 0xA370, symBinAddr: 0x10000C270, symSize: 0x20 }
  - { offsetInCU: 0x1ADB1, offset: 0x1ADB1, size: 0x8, addend: 0x0, symName: __ZNSt3__16vectorIPN5Graph7FibNodeENS_9allocatorIS3_EEED1B8ue170006Ev, symObjAddr: 0xA390, symBinAddr: 0x10000C290, symSize: 0x2C }
  - { offsetInCU: 0x1ADDB, offset: 0x1ADDB, size: 0x8, addend: 0x0, symName: __ZNSt3__16vectorIPN5Graph7FibNodeENS_9allocatorIS3_EEEC2EmRKS3_, symObjAddr: 0xA3BC, symBinAddr: 0x10000C2BC, symSize: 0xE4 }
  - { offsetInCU: 0x1AE3A, offset: 0x1AE3A, size: 0x8, addend: 0x0, symName: __ZNSt3__117__compressed_pairIPPN5Graph7FibNodeENS_9allocatorIS3_EEEC1B8ue170006IDnNS_18__default_init_tagEEEOT_OT0_, symObjAddr: 0xA4A0, symBinAddr: 0x10000C3A0, symSize: 0x3C }
  - { offsetInCU: 0x1AE92, offset: 0x1AE92, size: 0x8, addend: 0x0, symName: __ZNSt3__16vectorIPN5Graph7FibNodeENS_9allocatorIS3_EEE16__destroy_vectorC1B8ue170006ERS6_, symObjAddr: 0xA51C, symBinAddr: 0x10000C41C, symSize: 0x34 }
  - { offsetInCU: 0x1AECB, offset: 0x1AECB, size: 0x8, addend: 0x0, symName: __ZNSt3__16vectorIPN5Graph7FibNodeENS_9allocatorIS3_EEE11__vallocateB8ue170006Em, symObjAddr: 0xA550, symBinAddr: 0x10000C450, symSize: 0xAC }
  - { offsetInCU: 0x1AF0F, offset: 0x1AF0F, size: 0x8, addend: 0x0, symName: __ZNSt3__16vectorIPN5Graph7FibNodeENS_9allocatorIS3_EEE18__construct_at_endEmRKS3_, symObjAddr: 0xA5FC, symBinAddr: 0x10000C4FC, symSize: 0xD8 }
  - { offsetInCU: 0x1AF90, offset: 0x1AF90, size: 0x8, addend: 0x0, symName: __ZNSt3__128__exception_guard_exceptionsINS_6vectorIPN5Graph7FibNodeENS_9allocatorIS4_EEE16__destroy_vectorEE10__completeB8ue170006Ev, symObjAddr: 0xA6D4, symBinAddr: 0x10000C5D4, symSize: 0x1C }
  - { offsetInCU: 0x1AFB6, offset: 0x1AFB6, size: 0x8, addend: 0x0, symName: __ZNSt3__128__exception_guard_exceptionsINS_6vectorIPN5Graph7FibNodeENS_9allocatorIS4_EEE16__destroy_vectorEED1B8ue170006Ev, symObjAddr: 0xA6F0, symBinAddr: 0x10000C5F0, symSize: 0x2C }
  - { offsetInCU: 0x1AFE0, offset: 0x1AFE0, size: 0x8, addend: 0x0, symName: __ZNSt3__117__compressed_pairIPPN5Graph7FibNodeENS_9allocatorIS3_EEEC2B8ue170006IDnNS_18__default_init_tagEEEOT_OT0_, symObjAddr: 0xA71C, symBinAddr: 0x10000C61C, symSize: 0x40 }
  - { offsetInCU: 0x1B038, offset: 0x1B038, size: 0x8, addend: 0x0, symName: __ZNSt3__122__compressed_pair_elemIPPN5Graph7FibNodeELi0ELb0EEC2B8ue170006IDnvEEOT_, symObjAddr: 0xA75C, symBinAddr: 0x10000C65C, symSize: 0x1C }
  - { offsetInCU: 0x1B07A, offset: 0x1B07A, size: 0x8, addend: 0x0, symName: __ZNSt3__122__compressed_pair_elemINS_9allocatorIPN5Graph7FibNodeEEELi1ELb1EEC2B8ue170006ENS_18__default_init_tagE, symObjAddr: 0xA778, symBinAddr: 0x10000C678, symSize: 0x2C }
  - { offsetInCU: 0x1B0AE, offset: 0x1B0AE, size: 0x8, addend: 0x0, symName: __ZNSt3__19allocatorIPN5Graph7FibNodeEEC2B8ue170006Ev, symObjAddr: 0xA7A4, symBinAddr: 0x10000C6A4, symSize: 0x2C }
  - { offsetInCU: 0x1B0D8, offset: 0x1B0D8, size: 0x8, addend: 0x0, symName: __ZNSt3__116__non_trivial_ifILb1ENS_9allocatorIPN5Graph7FibNodeEEEEC2B8ue170006Ev, symObjAddr: 0xA7D0, symBinAddr: 0x10000C6D0, symSize: 0x14 }
  - { offsetInCU: 0x1B102, offset: 0x1B102, size: 0x8, addend: 0x0, symName: __ZNSt3__128__exception_guard_exceptionsINS_6vectorIPN5Graph7FibNodeENS_9allocatorIS4_EEE16__destroy_vectorEEC1B8ue170006ES8_, symObjAddr: 0xA7E4, symBinAddr: 0x10000C6E4, symSize: 0x34 }
  - { offsetInCU: 0x1B13A, offset: 0x1B13A, size: 0x8, addend: 0x0, symName: __ZNSt3__128__exception_guard_exceptionsINS_6vectorIPN5Graph7FibNodeENS_9allocatorIS4_EEE16__destroy_vectorEEC2B8ue170006ES8_, symObjAddr: 0xA818, symBinAddr: 0x10000C718, symSize: 0x24 }
  - { offsetInCU: 0x1B172, offset: 0x1B172, size: 0x8, addend: 0x0, symName: __ZNSt3__16vectorIPN5Graph7FibNodeENS_9allocatorIS3_EEE16__destroy_vectorC2B8ue170006ERS6_, symObjAddr: 0xA83C, symBinAddr: 0x10000C73C, symSize: 0x20 }
  - { offsetInCU: 0x1B1AB, offset: 0x1B1AB, size: 0x8, addend: 0x0, symName: __ZNKSt3__16vectorIPN5Graph7FibNodeENS_9allocatorIS3_EEE8max_sizeEv, symObjAddr: 0xA85C, symBinAddr: 0x10000C75C, symSize: 0x74 }
  - { offsetInCU: 0x1B1D3, offset: 0x1B1D3, size: 0x8, addend: 0x0, symName: __ZNKSt3__16vectorIPN5Graph7FibNodeENS_9allocatorIS3_EEE20__throw_length_errorB8ue170006Ev, symObjAddr: 0xA8D0, symBinAddr: 0x10000C7D0, symSize: 0x1C }
  - { offsetInCU: 0x1B1F9, offset: 0x1B1F9, size: 0x8, addend: 0x0, symName: __ZNSt3__16vectorIPN5Graph7FibNodeENS_9allocatorIS3_EEE7__allocB8ue170006Ev, symObjAddr: 0xA92C, symBinAddr: 0x10000C82C, symSize: 0x28 }
  - { offsetInCU: 0x1B21F, offset: 0x1B21F, size: 0x8, addend: 0x0, symName: __ZNSt3__16vectorIPN5Graph7FibNodeENS_9allocatorIS3_EEE9__end_capB8ue170006Ev, symObjAddr: 0xA954, symBinAddr: 0x10000C854, symSize: 0x28 }
  - { offsetInCU: 0x1B245, offset: 0x1B245, size: 0x8, addend: 0x0, symName: __ZNKSt3__16vectorIPN5Graph7FibNodeENS_9allocatorIS3_EEE14__annotate_newB8ue170006Em, symObjAddr: 0xA97C, symBinAddr: 0x10000C87C, symSize: 0xAC }
  - { offsetInCU: 0x1B284, offset: 0x1B284, size: 0x8, addend: 0x0, symName: __ZNSt3__116allocator_traitsINS_9allocatorIPN5Graph7FibNodeEEEE8max_sizeB8ue170006IS5_vEEmRKS5_, symObjAddr: 0xAA28, symBinAddr: 0x10000C928, symSize: 0x24 }
  - { offsetInCU: 0x1B2B2, offset: 0x1B2B2, size: 0x8, addend: 0x0, symName: __ZNKSt3__16vectorIPN5Graph7FibNodeENS_9allocatorIS3_EEE7__allocB8ue170006Ev, symObjAddr: 0xAA4C, symBinAddr: 0x10000C94C, symSize: 0x28 }
  - { offsetInCU: 0x1B2D8, offset: 0x1B2D8, size: 0x8, addend: 0x0, symName: __ZNKSt3__19allocatorIPN5Graph7FibNodeEE8max_sizeB8ue170006Ev, symObjAddr: 0xAA74, symBinAddr: 0x10000C974, symSize: 0x14 }
  - { offsetInCU: 0x1B2FE, offset: 0x1B2FE, size: 0x8, addend: 0x0, symName: __ZNKSt3__117__compressed_pairIPPN5Graph7FibNodeENS_9allocatorIS3_EEE6secondB8ue170006Ev, symObjAddr: 0xAA88, symBinAddr: 0x10000C988, symSize: 0x24 }
  - { offsetInCU: 0x1B324, offset: 0x1B324, size: 0x8, addend: 0x0, symName: __ZNKSt3__122__compressed_pair_elemINS_9allocatorIPN5Graph7FibNodeEEELi1ELb1EE5__getB8ue170006Ev, symObjAddr: 0xAAAC, symBinAddr: 0x10000C9AC, symSize: 0x14 }
  - { offsetInCU: 0x1B34A, offset: 0x1B34A, size: 0x8, addend: 0x0, symName: __ZNSt3__19allocatorIPN5Graph7FibNodeEE8allocateB8ue170006Em, symObjAddr: 0xAAC0, symBinAddr: 0x10000C9C0, symSize: 0x84 }
  - { offsetInCU: 0x1B37E, offset: 0x1B37E, size: 0x8, addend: 0x0, symName: __ZNSt3__117__compressed_pairIPPN5Graph7FibNodeENS_9allocatorIS3_EEE6secondB8ue170006Ev, symObjAddr: 0xAB44, symBinAddr: 0x10000CA44, symSize: 0x24 }
  - { offsetInCU: 0x1B3A4, offset: 0x1B3A4, size: 0x8, addend: 0x0, symName: __ZNSt3__122__compressed_pair_elemINS_9allocatorIPN5Graph7FibNodeEEELi1ELb1EE5__getB8ue170006Ev, symObjAddr: 0xAB68, symBinAddr: 0x10000CA68, symSize: 0x14 }
  - { offsetInCU: 0x1B3CA, offset: 0x1B3CA, size: 0x8, addend: 0x0, symName: __ZNSt3__117__compressed_pairIPPN5Graph7FibNodeENS_9allocatorIS3_EEE5firstB8ue170006Ev, symObjAddr: 0xAB7C, symBinAddr: 0x10000CA7C, symSize: 0x24 }
  - { offsetInCU: 0x1B3F0, offset: 0x1B3F0, size: 0x8, addend: 0x0, symName: __ZNSt3__122__compressed_pair_elemIPPN5Graph7FibNodeELi0ELb0EE5__getB8ue170006Ev, symObjAddr: 0xABA0, symBinAddr: 0x10000CAA0, symSize: 0x14 }
  - { offsetInCU: 0x1B416, offset: 0x1B416, size: 0x8, addend: 0x0, symName: __ZNKSt3__16vectorIPN5Graph7FibNodeENS_9allocatorIS3_EEE31__annotate_contiguous_containerB8ue170006EPKvS8_S8_S8_, symObjAddr: 0xABB4, symBinAddr: 0x10000CAB4, symSize: 0x20 }
  - { offsetInCU: 0x1B468, offset: 0x1B468, size: 0x8, addend: 0x0, symName: __ZNKSt3__16vectorIPN5Graph7FibNodeENS_9allocatorIS3_EEE4dataB8ue170006Ev, symObjAddr: 0xABD4, symBinAddr: 0x10000CAD4, symSize: 0x28 }
  - { offsetInCU: 0x1B48E, offset: 0x1B48E, size: 0x8, addend: 0x0, symName: __ZNKSt3__16vectorIPN5Graph7FibNodeENS_9allocatorIS3_EEE8capacityB8ue170006Ev, symObjAddr: 0xABFC, symBinAddr: 0x10000CAFC, symSize: 0x40 }
  - { offsetInCU: 0x1B4B4, offset: 0x1B4B4, size: 0x8, addend: 0x0, symName: __ZNKSt3__16vectorIPN5Graph7FibNodeENS_9allocatorIS3_EEE9__end_capB8ue170006Ev, symObjAddr: 0xAC50, symBinAddr: 0x10000CB50, symSize: 0x28 }
  - { offsetInCU: 0x1B4DA, offset: 0x1B4DA, size: 0x8, addend: 0x0, symName: __ZNKSt3__117__compressed_pairIPPN5Graph7FibNodeENS_9allocatorIS3_EEE5firstB8ue170006Ev, symObjAddr: 0xAC78, symBinAddr: 0x10000CB78, symSize: 0x24 }
  - { offsetInCU: 0x1B500, offset: 0x1B500, size: 0x8, addend: 0x0, symName: __ZNKSt3__122__compressed_pair_elemIPPN5Graph7FibNodeELi0ELb0EE5__getB8ue170006Ev, symObjAddr: 0xAC9C, symBinAddr: 0x10000CB9C, symSize: 0x14 }
  - { offsetInCU: 0x1B53F, offset: 0x1B53F, size: 0x8, addend: 0x0, symName: __ZNSt3__16vectorIPN5Graph7FibNodeENS_9allocatorIS3_EEE21_ConstructTransactionC1B8ue170006ERS6_m, symObjAddr: 0xACB0, symBinAddr: 0x10000CBB0, symSize: 0x3C }
  - { offsetInCU: 0x1B587, offset: 0x1B587, size: 0x8, addend: 0x0, symName: __ZNSt3__116allocator_traitsINS_9allocatorIPN5Graph7FibNodeEEEE9constructB8ue170006IS4_JRKS4_EvEEvRS5_PT_DpOT0_, symObjAddr: 0xACEC, symBinAddr: 0x10000CBEC, symSize: 0x34 }
  - { offsetInCU: 0x1B5DE, offset: 0x1B5DE, size: 0x8, addend: 0x0, symName: __ZNSt3__16vectorIPN5Graph7FibNodeENS_9allocatorIS3_EEE21_ConstructTransactionD1B8ue170006Ev, symObjAddr: 0xAD20, symBinAddr: 0x10000CC20, symSize: 0x2C }
  - { offsetInCU: 0x1B608, offset: 0x1B608, size: 0x8, addend: 0x0, symName: __ZNSt3__16vectorIPN5Graph7FibNodeENS_9allocatorIS3_EEE21_ConstructTransactionC2B8ue170006ERS6_m, symObjAddr: 0xAD4C, symBinAddr: 0x10000CC4C, symSize: 0x44 }
  - { offsetInCU: 0x1B650, offset: 0x1B650, size: 0x8, addend: 0x0, symName: __ZNSt3__19allocatorIPN5Graph7FibNodeEE9constructB8ue170006IS3_JRKS3_EEEvPT_DpOT0_, symObjAddr: 0xAD90, symBinAddr: 0x10000CC90, symSize: 0x28 }
  - { offsetInCU: 0x1B6A6, offset: 0x1B6A6, size: 0x8, addend: 0x0, symName: __ZNSt3__16vectorIPN5Graph7FibNodeENS_9allocatorIS3_EEE21_ConstructTransactionD2B8ue170006Ev, symObjAddr: 0xADB8, symBinAddr: 0x10000CCB8, symSize: 0x20 }
  - { offsetInCU: 0x1B6D0, offset: 0x1B6D0, size: 0x8, addend: 0x0, symName: __ZNSt3__128__exception_guard_exceptionsINS_6vectorIPN5Graph7FibNodeENS_9allocatorIS4_EEE16__destroy_vectorEED2B8ue170006Ev, symObjAddr: 0xADD8, symBinAddr: 0x10000CCD8, symSize: 0x48 }
  - { offsetInCU: 0x1B6FA, offset: 0x1B6FA, size: 0x8, addend: 0x0, symName: __ZNSt3__16vectorIPN5Graph7FibNodeENS_9allocatorIS3_EEE16__destroy_vectorclB8ue170006Ev, symObjAddr: 0xAE20, symBinAddr: 0x10000CD20, symSize: 0x90 }
  - { offsetInCU: 0x1B720, offset: 0x1B720, size: 0x8, addend: 0x0, symName: __ZNSt3__16vectorIPN5Graph7FibNodeENS_9allocatorIS3_EEE7__clearB8ue170006Ev, symObjAddr: 0xAEB0, symBinAddr: 0x10000CDB0, symSize: 0x28 }
  - { offsetInCU: 0x1B746, offset: 0x1B746, size: 0x8, addend: 0x0, symName: __ZNKSt3__16vectorIPN5Graph7FibNodeENS_9allocatorIS3_EEE17__annotate_deleteB8ue170006Ev, symObjAddr: 0xAED8, symBinAddr: 0x10000CDD8, symSize: 0xB8 }
  - { offsetInCU: 0x1B76C, offset: 0x1B76C, size: 0x8, addend: 0x0, symName: __ZNSt3__116allocator_traitsINS_9allocatorIPN5Graph7FibNodeEEEE10deallocateB8ue170006ERS5_PS4_m, symObjAddr: 0xAF90, symBinAddr: 0x10000CE90, symSize: 0x34 }
  - { offsetInCU: 0x1B7AE, offset: 0x1B7AE, size: 0x8, addend: 0x0, symName: __ZNSt3__16vectorIPN5Graph7FibNodeENS_9allocatorIS3_EEE22__base_destruct_at_endB8ue170006EPS3_, symObjAddr: 0xAFC4, symBinAddr: 0x10000CEC4, symSize: 0xA0 }
  - { offsetInCU: 0x1B7F2, offset: 0x1B7F2, size: 0x8, addend: 0x0, symName: __ZNSt3__116allocator_traitsINS_9allocatorIPN5Graph7FibNodeEEEE7destroyB8ue170006IS4_vEEvRS5_PT_, symObjAddr: 0xB064, symBinAddr: 0x10000CF64, symSize: 0x2C }
  - { offsetInCU: 0x1B82F, offset: 0x1B82F, size: 0x8, addend: 0x0, symName: __ZNSt3__19allocatorIPN5Graph7FibNodeEE7destroyB8ue170006EPS3_, symObjAddr: 0xB090, symBinAddr: 0x10000CF90, symSize: 0x14 }
  - { offsetInCU: 0x1B863, offset: 0x1B863, size: 0x8, addend: 0x0, symName: __ZNKSt3__16vectorIPN5Graph7FibNodeENS_9allocatorIS3_EEE4sizeB8ue170006Ev, symObjAddr: 0xB0A4, symBinAddr: 0x10000CFA4, symSize: 0x28 }
  - { offsetInCU: 0x1B889, offset: 0x1B889, size: 0x8, addend: 0x0, symName: __ZNSt3__19allocatorIPN5Graph7FibNodeEE10deallocateB8ue170006EPS3_m, symObjAddr: 0xB0CC, symBinAddr: 0x10000CFCC, symSize: 0x70 }
  - { offsetInCU: 0x1B8CB, offset: 0x1B8CB, size: 0x8, addend: 0x0, symName: __ZNSt3__16vectorIPN5Graph7FibNodeENS_9allocatorIS3_EEEC2B8ue170006Ev, symObjAddr: 0xB13C, symBinAddr: 0x10000D03C, symSize: 0x44 }
  - { offsetInCU: 0x1B8F5, offset: 0x1B8F5, size: 0x8, addend: 0x0, symName: __ZNSt3__16vectorIPN5Graph7FibNodeENS_9allocatorIS3_EEE22__construct_one_at_endB8ue170006IJRKS3_EEEvDpOT_, symObjAddr: 0xB180, symBinAddr: 0x10000D080, symSize: 0x98 }
  - { offsetInCU: 0x1B944, offset: 0x1B944, size: 0x8, addend: 0x0, symName: __ZNSt3__16vectorIPN5Graph7FibNodeENS_9allocatorIS3_EEE21__push_back_slow_pathIRKS3_EEvOT_, symObjAddr: 0xB218, symBinAddr: 0x10000D118, symSize: 0xE0 }
  - { offsetInCU: 0x1B9A2, offset: 0x1B9A2, size: 0x8, addend: 0x0, symName: __ZNKSt3__16vectorIPN5Graph7FibNodeENS_9allocatorIS3_EEE11__recommendB8ue170006Em, symObjAddr: 0xB2F8, symBinAddr: 0x10000D1F8, symSize: 0xB4 }
  - { offsetInCU: 0x1B9F7, offset: 0x1B9F7, size: 0x8, addend: 0x0, symName: __ZNSt3__114__split_bufferIPN5Graph7FibNodeERNS_9allocatorIS3_EEEC1EmmS6_, symObjAddr: 0xB3AC, symBinAddr: 0x10000D2AC, symSize: 0x44 }
  - { offsetInCU: 0x1BA4D, offset: 0x1BA4D, size: 0x8, addend: 0x0, symName: __ZNSt3__114__split_bufferIPN5Graph7FibNodeERNS_9allocatorIS3_EEED1Ev, symObjAddr: 0xB500, symBinAddr: 0x10000D400, symSize: 0x2C }
  - { offsetInCU: 0x1BA79, offset: 0x1BA79, size: 0x8, addend: 0x0, symName: __ZNSt3__114__split_bufferIPN5Graph7FibNodeERNS_9allocatorIS3_EEEC2EmmS6_, symObjAddr: 0xB52C, symBinAddr: 0x10000D42C, symSize: 0xD4 }
  - { offsetInCU: 0x1BAEC, offset: 0x1BAEC, size: 0x8, addend: 0x0, symName: __ZNSt3__117__compressed_pairIPPN5Graph7FibNodeERNS_9allocatorIS3_EEEC1B8ue170006IDnS7_EEOT_OT0_, symObjAddr: 0xB600, symBinAddr: 0x10000D500, symSize: 0x3C }
  - { offsetInCU: 0x1BB44, offset: 0x1BB44, size: 0x8, addend: 0x0, symName: __ZNSt3__114__split_bufferIPN5Graph7FibNodeERNS_9allocatorIS3_EEE7__allocB8ue170006Ev, symObjAddr: 0xB63C, symBinAddr: 0x10000D53C, symSize: 0x28 }
  - { offsetInCU: 0x1BB6A, offset: 0x1BB6A, size: 0x8, addend: 0x0, symName: __ZNSt3__114__split_bufferIPN5Graph7FibNodeERNS_9allocatorIS3_EEE9__end_capB8ue170006Ev, symObjAddr: 0xB664, symBinAddr: 0x10000D564, symSize: 0x28 }
  - { offsetInCU: 0x1BB90, offset: 0x1BB90, size: 0x8, addend: 0x0, symName: __ZNSt3__117__compressed_pairIPPN5Graph7FibNodeERNS_9allocatorIS3_EEEC2B8ue170006IDnS7_EEOT_OT0_, symObjAddr: 0xB68C, symBinAddr: 0x10000D58C, symSize: 0x48 }
  - { offsetInCU: 0x1BBE8, offset: 0x1BBE8, size: 0x8, addend: 0x0, symName: __ZNSt3__122__compressed_pair_elemIRNS_9allocatorIPN5Graph7FibNodeEEELi1ELb0EEC2B8ue170006IS6_vEEOT_, symObjAddr: 0xB6D4, symBinAddr: 0x10000D5D4, symSize: 0x20 }
  - { offsetInCU: 0x1BC2A, offset: 0x1BC2A, size: 0x8, addend: 0x0, symName: __ZNSt3__117__compressed_pairIPPN5Graph7FibNodeERNS_9allocatorIS3_EEE6secondB8ue170006Ev, symObjAddr: 0xB6F4, symBinAddr: 0x10000D5F4, symSize: 0x28 }
  - { offsetInCU: 0x1BC50, offset: 0x1BC50, size: 0x8, addend: 0x0, symName: __ZNSt3__122__compressed_pair_elemIRNS_9allocatorIPN5Graph7FibNodeEEELi1ELb0EE5__getB8ue170006Ev, symObjAddr: 0xB71C, symBinAddr: 0x10000D61C, symSize: 0x18 }
  - { offsetInCU: 0x1BC76, offset: 0x1BC76, size: 0x8, addend: 0x0, symName: __ZNSt3__117__compressed_pairIPPN5Graph7FibNodeERNS_9allocatorIS3_EEE5firstB8ue170006Ev, symObjAddr: 0xB734, symBinAddr: 0x10000D634, symSize: 0x24 }
  - { offsetInCU: 0x1BC9C, offset: 0x1BC9C, size: 0x8, addend: 0x0, symName: __ZNSt3__116reverse_iteratorIPPN5Graph7FibNodeEEC1B8ue170006ES4_, symObjAddr: 0xB840, symBinAddr: 0x10000D740, symSize: 0x34 }
  - { offsetInCU: 0x1BCD4, offset: 0x1BCD4, size: 0x8, addend: 0x0, symName: __ZNKSt3__116reverse_iteratorIPPN5Graph7FibNodeEE4baseB8ue170006Ev, symObjAddr: 0xB874, symBinAddr: 0x10000D774, symSize: 0x18 }
  - { offsetInCU: 0x1BCFA, offset: 0x1BCFA, size: 0x8, addend: 0x0, symName: __ZNKSt3__116reverse_iteratorIPPN5Graph7FibNodeEEdeB8ue170006Ev, symObjAddr: 0xB960, symBinAddr: 0x10000D860, symSize: 0x28 }
  - { offsetInCU: 0x1BD2E, offset: 0x1BD2E, size: 0x8, addend: 0x0, symName: __ZNSt3__116reverse_iteratorIPPN5Graph7FibNodeEEppB8ue170006Ev, symObjAddr: 0xB988, symBinAddr: 0x10000D888, symSize: 0x20 }
  - { offsetInCU: 0x1BD59, offset: 0x1BD59, size: 0x8, addend: 0x0, symName: __ZNSt3__119__to_address_helperINS_16reverse_iteratorIPPN5Graph7FibNodeEEEvE6__callB8ue170006ERKS6_, symObjAddr: 0xBA20, symBinAddr: 0x10000D920, symSize: 0x4C }
  - { offsetInCU: 0x1BD7C, offset: 0x1BD7C, size: 0x8, addend: 0x0, symName: __ZNKSt3__116reverse_iteratorIPPN5Graph7FibNodeEEptB8ue170006Ev, symObjAddr: 0xBA6C, symBinAddr: 0x10000D96C, symSize: 0x24 }
  - { offsetInCU: 0x1BDC6, offset: 0x1BDC6, size: 0x8, addend: 0x0, symName: __ZNKSt3__111__move_loopINS_17_ClassicAlgPolicyEEclB8ue170006INS_16reverse_iteratorIPPN5Graph7FibNodeEEES9_S9_EENS_4pairIT_T1_EESB_T0_SC_, symObjAddr: 0xBD08, symBinAddr: 0x10000DC08, symSize: 0xA0 }
  - { offsetInCU: 0x1BE37, offset: 0x1BE37, size: 0x8, addend: 0x0, symName: __ZNSt3__18_IterOpsINS_17_ClassicAlgPolicyEE11__iter_moveB8ue170006IRNS_16reverse_iteratorIPPN5Graph7FibNodeEEEEENS_9enable_ifIXsr12is_referenceIDTdeclsr3stdE7declvalIRT_EEEEE5valueEDTclsr3stdE4movedeclsr3stdE7declvalISD_EEEEE4typeEOSC_, symObjAddr: 0xBF08, symBinAddr: 0x10000DE08, symSize: 0x28 }
  - { offsetInCU: 0x1BE63, offset: 0x1BE63, size: 0x8, addend: 0x0, symName: __ZNSt3__18_IterOpsINS_17_ClassicAlgPolicyEE25__validate_iter_referenceB8ue170006IRNS_16reverse_iteratorIPPN5Graph7FibNodeEEEEEvv, symObjAddr: 0xBF30, symBinAddr: 0x10000DE30, symSize: 0x4 }
  - { offsetInCU: 0x1BE81, offset: 0x1BE81, size: 0x8, addend: 0x0, symName: __ZNSt3__118__unwrap_iter_implINS_16reverse_iteratorIPPN5Graph7FibNodeEEELb0EE8__unwrapB8ue170006ES6_, symObjAddr: 0xBF34, symBinAddr: 0x10000DE34, symSize: 0x24 }
  - { offsetInCU: 0x1BEA4, offset: 0x1BEA4, size: 0x8, addend: 0x0, symName: __ZNSt3__14pairINS_16reverse_iteratorIPPN5Graph7FibNodeEEES6_EC1B8ue170006ERKS6_S9_, symObjAddr: 0xBF58, symBinAddr: 0x10000DE58, symSize: 0x3C }
  - { offsetInCU: 0x1BEEA, offset: 0x1BEEA, size: 0x8, addend: 0x0, symName: __ZNSt3__14pairINS_16reverse_iteratorIPPN5Graph7FibNodeEEES6_EC2B8ue170006ERKS6_S9_, symObjAddr: 0xBF94, symBinAddr: 0x10000DE94, symSize: 0x34 }
  - { offsetInCU: 0x1BF30, offset: 0x1BF30, size: 0x8, addend: 0x0, symName: __ZNSt3__118__unwrap_iter_implINS_16reverse_iteratorIPPN5Graph7FibNodeEEELb0EE8__rewrapB8ue170006ES6_S6_, symObjAddr: 0xBFC8, symBinAddr: 0x10000DEC8, symSize: 0x2C }
  - { offsetInCU: 0x1BF5D, offset: 0x1BF5D, size: 0x8, addend: 0x0, symName: __ZNSt3__116reverse_iteratorIPPN5Graph7FibNodeEEC2B8ue170006ES4_, symObjAddr: 0xBFF4, symBinAddr: 0x10000DEF4, symSize: 0x28 }
  - { offsetInCU: 0x1BF95, offset: 0x1BF95, size: 0x8, addend: 0x0, symName: __ZNSt3__114__split_bufferIPN5Graph7FibNodeERNS_9allocatorIS3_EEED2Ev, symObjAddr: 0xC01C, symBinAddr: 0x10000DF1C, symSize: 0x80 }
  - { offsetInCU: 0x1BFC1, offset: 0x1BFC1, size: 0x8, addend: 0x0, symName: __ZNSt3__114__split_bufferIPN5Graph7FibNodeERNS_9allocatorIS3_EEE5clearB8ue170006Ev, symObjAddr: 0xC09C, symBinAddr: 0x10000DF9C, symSize: 0x28 }
  - { offsetInCU: 0x1BFE7, offset: 0x1BFE7, size: 0x8, addend: 0x0, symName: __ZNKSt3__114__split_bufferIPN5Graph7FibNodeERNS_9allocatorIS3_EEE8capacityB8ue170006Ev, symObjAddr: 0xC0C4, symBinAddr: 0x10000DFC4, symSize: 0x40 }
  - { offsetInCU: 0x1C00D, offset: 0x1C00D, size: 0x8, addend: 0x0, symName: __ZNSt3__114__split_bufferIPN5Graph7FibNodeERNS_9allocatorIS3_EEE17__destruct_at_endB8ue170006EPS3_, symObjAddr: 0xC104, symBinAddr: 0x10000E004, symSize: 0x2C }
  - { offsetInCU: 0x1C041, offset: 0x1C041, size: 0x8, addend: 0x0, symName: __ZNSt3__114__split_bufferIPN5Graph7FibNodeERNS_9allocatorIS3_EEE17__destruct_at_endB8ue170006EPS3_NS_17integral_constantIbLb0EEE, symObjAddr: 0xC130, symBinAddr: 0x10000E030, symSize: 0x94 }
  - { offsetInCU: 0x1C081, offset: 0x1C081, size: 0x8, addend: 0x0, symName: __ZNKSt3__114__split_bufferIPN5Graph7FibNodeERNS_9allocatorIS3_EEE9__end_capB8ue170006Ev, symObjAddr: 0xC1C4, symBinAddr: 0x10000E0C4, symSize: 0x28 }
  - { offsetInCU: 0x1C0A7, offset: 0x1C0A7, size: 0x8, addend: 0x0, symName: __ZNKSt3__117__compressed_pairIPPN5Graph7FibNodeERNS_9allocatorIS3_EEE5firstB8ue170006Ev, symObjAddr: 0xC1EC, symBinAddr: 0x10000E0EC, symSize: 0x24 }
  - { offsetInCU: 0x1C0CD, offset: 0x1C0CD, size: 0x8, addend: 0x0, symName: __ZNSt3__16vectorIPN5Graph7FibNodeENS_9allocatorIS3_EEE11__make_iterB8ue170006EPS3_, symObjAddr: 0xC210, symBinAddr: 0x10000E110, symSize: 0x30 }
  - { offsetInCU: 0x1C102, offset: 0x1C102, size: 0x8, addend: 0x0, symName: __ZNSt3__111__wrap_iterIPPN5Graph7FibNodeEEC1B8ue170006ES4_, symObjAddr: 0xC240, symBinAddr: 0x10000E140, symSize: 0x34 }
  - { offsetInCU: 0x1C13A, offset: 0x1C13A, size: 0x8, addend: 0x0, symName: __ZNSt3__111__wrap_iterIPPN5Graph7FibNodeEEC2B8ue170006ES4_, symObjAddr: 0xC274, symBinAddr: 0x10000E174, symSize: 0x20 }
  - { offsetInCU: 0x1C172, offset: 0x1C172, size: 0x8, addend: 0x0, symName: __ZNKSt3__111__wrap_iterIPPN5Graph7FibNodeEE4baseB8ue170006Ev, symObjAddr: 0xC2DC, symBinAddr: 0x10000E1DC, symSize: 0x18 }
  - { offsetInCU: 0x1C198, offset: 0x1C198, size: 0x8, addend: 0x0, symName: __ZNSt3__16vectorIPN5Graph7FibNodeENS_9allocatorIS3_EEED2B8ue170006Ev, symObjAddr: 0xC2F4, symBinAddr: 0x10000E1F4, symSize: 0x3C }
  - { offsetInCU: 0x1C1C2, offset: 0x1C1C2, size: 0x8, addend: 0x0, symName: __ZN5Graph13FibonacciHeap3cutEPNS_7FibNodeES2_, symObjAddr: 0xC330, symBinAddr: 0x10000E230, symSize: 0xC0 }
  - { offsetInCU: 0x1C204, offset: 0x1C204, size: 0x8, addend: 0x0, symName: __ZN5Graph13FibonacciHeap12cascadingCutEPNS_7FibNodeE, symObjAddr: 0xC3F0, symBinAddr: 0x10000E2F0, symSize: 0x8C }
  - { offsetInCU: 0x1C246, offset: 0x1C246, size: 0x8, addend: 0x0, symName: __ZNSt3__13mapIiPN5Graph7FibNodeENS_4lessIiEENS_9allocatorINS_4pairIKiS3_EEEEED2B8ue170006Ev, symObjAddr: 0xC47C, symBinAddr: 0x10000E37C, symSize: 0x2C }
  - { offsetInCU: 0x1C270, offset: 0x1C270, size: 0x8, addend: 0x0, symName: __ZNSt3__16__treeINS_12__value_typeIiPN5Graph7FibNodeEEENS_19__map_value_compareIiS5_NS_4lessIiEELb1EEENS_9allocatorIS5_EEED1Ev, symObjAddr: 0xC4A8, symBinAddr: 0x10000E3A8, symSize: 0x2C }
  - { offsetInCU: 0x1C29C, offset: 0x1C29C, size: 0x8, addend: 0x0, symName: __ZNSt3__16__treeINS_12__value_typeIiPN5Graph7FibNodeEEENS_19__map_value_compareIiS5_NS_4lessIiEELb1EEENS_9allocatorIS5_EEED2Ev, symObjAddr: 0xC4D4, symBinAddr: 0x10000E3D4, symSize: 0x38 }
  - { offsetInCU: 0x1C2C8, offset: 0x1C2C8, size: 0x8, addend: 0x0, symName: __ZNSt3__16__treeINS_12__value_typeIiPN5Graph7FibNodeEEENS_19__map_value_compareIiS5_NS_4lessIiEELb1EEENS_9allocatorIS5_EEE7destroyEPNS_11__tree_nodeIS5_PvEE, symObjAddr: 0xC50C, symBinAddr: 0x10000E40C, symSize: 0xC0 }
  - { offsetInCU: 0x1C31C, offset: 0x1C31C, size: 0x8, addend: 0x0, symName: __ZNSt3__116allocator_traitsINS_9allocatorINS_11__tree_nodeINS_12__value_typeIiPN5Graph7FibNodeEEEPvEEEEE7destroyB8ue170006INS_4pairIKiS6_EEvvEEvRSA_PT_, symObjAddr: 0xC5CC, symBinAddr: 0x10000E4CC, symSize: 0x14 }
  - { offsetInCU: 0x1C356, offset: 0x1C356, size: 0x8, addend: 0x0, symName: __ZNSt3__122__tree_key_value_typesINS_12__value_typeIiPN5Graph7FibNodeEEEE9__get_ptrB8ue170006ERS5_, symObjAddr: 0xC5E0, symBinAddr: 0x10000E4E0, symSize: 0x24 }
  - { offsetInCU: 0x1C37A, offset: 0x1C37A, size: 0x8, addend: 0x0, symName: __ZN5Graph13FibonacciHeapD2Ev, symObjAddr: 0xC604, symBinAddr: 0x10000E504, symSize: 0x14 }
  - { offsetInCU: 0x1C3A4, offset: 0x1C3A4, size: 0x8, addend: 0x0, symName: __ZNSt3__16vectorIdNS_9allocatorIdEEE19__copy_assign_allocB8ue170006ERKS3_, symObjAddr: 0xC618, symBinAddr: 0x10000E518, symSize: 0x2C }
  - { offsetInCU: 0x1C3D9, offset: 0x1C3D9, size: 0x8, addend: 0x0, symName: __ZNSt3__16vectorIdNS_9allocatorIdEEE6assignIPdLi0EEEvT_S6_, symObjAddr: 0xC644, symBinAddr: 0x10000E544, symSize: 0x5C }
  - { offsetInCU: 0x1C42E, offset: 0x1C42E, size: 0x8, addend: 0x0, symName: __ZNSt3__16vectorIdNS_9allocatorIdEEE19__copy_assign_allocB8ue170006ERKS3_NS_17integral_constantIbLb0EEE, symObjAddr: 0xC6A0, symBinAddr: 0x10000E5A0, symSize: 0x14 }
  - { offsetInCU: 0x1C46A, offset: 0x1C46A, size: 0x8, addend: 0x0, symName: __ZNSt3__16vectorIdNS_9allocatorIdEEE18__assign_with_sizeB8ue170006IPdS5_EEvT_T0_l, symObjAddr: 0xC6B4, symBinAddr: 0x10000E5B4, symSize: 0x164 }
  - { offsetInCU: 0x1C524, offset: 0x1C524, size: 0x8, addend: 0x0, symName: __ZNKSt3__114__copy_trivialclB8ue170006IddLi0EEENS_4pairIPT_PT0_EES4_S4_S6_, symObjAddr: 0xCA68, symBinAddr: 0x10000E968, symSize: 0x48 }
  - { offsetInCU: 0x1C58C, offset: 0x1C58C, size: 0x8, addend: 0x0, symName: __ZNKSt3__16vectorINS0_IdNS_9allocatorIdEEEENS1_IS3_EEEixB8ue170006Em, symObjAddr: 0xCC5C, symBinAddr: 0x10000EB5C, symSize: 0x2C }
  - { offsetInCU: 0x1C5C3, offset: 0x1C5C3, size: 0x8, addend: 0x0, symName: __ZN5GraphD2Ev, symObjAddr: 0xCC88, symBinAddr: 0x10000EB88, symSize: 0x30 }
  - { offsetInCU: 0x1C5EF, offset: 0x1C5EF, size: 0x8, addend: 0x0, symName: __ZNSt3__16vectorINS0_IdNS_9allocatorIdEEEENS1_IS3_EEED2B8ue170006Ev, symObjAddr: 0xCCB8, symBinAddr: 0x10000EBB8, symSize: 0x3C }
...
